

Microchip MPLAB XC8 Assembler V2.10 build 88905656 
                                                                                               Sat Feb 08 17:22:01 2020

Microchip MPLAB XC8 C Compiler v2.10 (Free license) build 20190730164152 Og1 
     1                           	processor	16F887
     2                           	opt	pw 120
     3                           	opt	flic
     4                           	psect	strings,global,class=STRING,delta=2
     5                           	psect	cinit,global,class=CODE,merge=1,delta=2
     6                           	psect	bssCOMMON,global,class=COMMON,space=1,delta=1
     7                           	psect	bssBANK0,global,class=BANK0,space=1,delta=1
     8                           	psect	bssBANK1,global,class=BANK1,space=1,delta=1
     9                           	psect	clrtext,global,class=CODE,delta=2
    10                           	psect	cstackCOMMON,global,class=COMMON,space=1,delta=1
    11                           	psect	cstackBANK0,global,class=BANK0,space=1,delta=1
    12                           	psect	maintext,global,class=CODE,split=1,delta=2
    13                           	psect	text1,local,class=CODE,merge=1,delta=2
    14                           	psect	text2,local,class=CODE,merge=1,delta=2,group=1
    15                           	psect	text3,local,class=CODE,merge=1,delta=2
    16                           	psect	text4,local,class=CODE,merge=1,delta=2
    17                           	psect	text5,local,class=CODE,merge=1,delta=2,group=1
    18                           	psect	text6,local,class=CODE,merge=1,delta=2,group=1
    19                           	psect	text7,local,class=CODE,merge=1,delta=2
    20                           	psect	text8,local,class=CODE,merge=1,delta=2
    21                           	psect	text9,local,class=CODE,merge=1,delta=2
    22                           	psect	text10,local,class=CODE,merge=1,delta=2
    23                           	psect	text11,local,class=CODE,merge=1,delta=2
    24                           	psect	text12,local,class=CODE,merge=1,delta=2
    25                           	psect	text13,local,class=CODE,merge=1,delta=2
    26                           	psect	text14,local,class=CODE,merge=1,delta=2
    27                           	psect	text15,local,class=CODE,merge=1,delta=2,group=1
    28                           	psect	text16,local,class=CODE,merge=1,delta=2,group=1
    29                           	psect	text17,local,class=CODE,merge=1,delta=2,group=1
    30                           	psect	text18,local,class=CODE,merge=1,delta=2,group=1
    31                           	psect	text19,local,class=CODE,merge=1,delta=2,group=1
    32                           	psect	text20,local,class=CODE,merge=1,delta=2,group=1
    33                           	psect	text21,local,class=CODE,merge=1,delta=2
    34                           	psect	intentry,global,class=CODE,delta=2
    35                           	dabs	1,0x7E,2
    36  0000                     
    37                           ; Version 2.10
    38                           ; Generated 31/07/2019 GMT
    39                           ; 
    40                           ; Copyright © 2019, Microchip Technology Inc. and its subsidiaries ("Microchip")
    41                           ; All rights reserved.
    42                           ; 
    43                           ; This software is developed by Microchip Technology Inc. and its subsidiaries ("Microch
      +                          ip").
    44                           ; 
    45                           ; Redistribution and use in source and binary forms, with or without modification, are
    46                           ; permitted provided that the following conditions are met:
    47                           ; 
    48                           ;     1. Redistributions of source code must retain the above copyright notice, this lis
      +                          t of
    49                           ;        conditions and the following disclaimer.
    50                           ; 
    51                           ;     2. Redistributions in binary form must reproduce the above copyright notice, this 
      +                          list
    52                           ;        of conditions and the following disclaimer in the documentation and/or other
    53                           ;        materials provided with the distribution.
    54                           ; 
    55                           ;     3. Microchip's name may not be used to endorse or promote products derived from th
      +                          is
    56                           ;        software without specific prior written permission.
    57                           ; 
    58                           ; THIS SOFTWARE IS PROVIDED BY MICROCHIP "AS IS" AND ANY EXPRESS OR IMPLIED WARRANTIES,
    59                           ; INCLUDING, BUT NOT LIMITED TO, THE IMPLIED WARRANTIES OF MERCHANTABILITY AND FITNESS F
      +                          OR
    60                           ; PURPOSE ARE DISCLAIMED.  IN NO EVENT SHALL MICROCHIP BE LIABLE FOR ANY DIRECT, INDIREC
      +                          T,
    61                           ; INCIDENTAL, SPECIAL, EXEMPLARY, OR CONSEQUENTIAL DAMAGES (INCLUDING BUT NOT LIMITED TO
    62                           ; PROCUREMENT OF SUBSTITUTE GOODS OR SERVICES; LOSS OF USE, DATA OR PROFITS; OR BUSINESS
    63                           ; INTERRUPTION) HOWSOEVER CAUSED AND ON ANY THEORY OF LIABILITY, WHETHER IN CONTRACT, ST
      +                          RICT
    64                           ; LIABILITY, OR TORT (INCLUDING NEGLIGENCE OR OTHERWISE) ARISING IN ANY WAY OUT OF THE U
      +                          SE OF
    65                           ; THIS SOFTWARE, EVEN IF ADVISED OF THE POSSIBILITY OF SUCH DAMAGE.
    66                           ; 
    67                           ; 
    68                           ; Code-generator required, PIC16F887 Definitions
    69                           ; 
    70                           ; SFR Addresses
    71  0000                     	;# 
    72  0001                     	;# 
    73  0002                     	;# 
    74  0003                     	;# 
    75  0004                     	;# 
    76  0005                     	;# 
    77  0006                     	;# 
    78  0007                     	;# 
    79  0008                     	;# 
    80  0009                     	;# 
    81  000A                     	;# 
    82  000B                     	;# 
    83  000C                     	;# 
    84  000D                     	;# 
    85  000E                     	;# 
    86  000E                     	;# 
    87  000F                     	;# 
    88  0010                     	;# 
    89  0011                     	;# 
    90  0012                     	;# 
    91  0013                     	;# 
    92  0014                     	;# 
    93  0015                     	;# 
    94  0015                     	;# 
    95  0016                     	;# 
    96  0017                     	;# 
    97  0018                     	;# 
    98  0019                     	;# 
    99  001A                     	;# 
   100  001B                     	;# 
   101  001B                     	;# 
   102  001C                     	;# 
   103  001D                     	;# 
   104  001E                     	;# 
   105  001F                     	;# 
   106  0081                     	;# 
   107  0085                     	;# 
   108  0086                     	;# 
   109  0087                     	;# 
   110  0088                     	;# 
   111  0089                     	;# 
   112  008C                     	;# 
   113  008D                     	;# 
   114  008E                     	;# 
   115  008F                     	;# 
   116  0090                     	;# 
   117  0091                     	;# 
   118  0092                     	;# 
   119  0093                     	;# 
   120  0093                     	;# 
   121  0093                     	;# 
   122  0094                     	;# 
   123  0095                     	;# 
   124  0096                     	;# 
   125  0097                     	;# 
   126  0098                     	;# 
   127  0099                     	;# 
   128  009A                     	;# 
   129  009B                     	;# 
   130  009C                     	;# 
   131  009D                     	;# 
   132  009E                     	;# 
   133  009F                     	;# 
   134  0105                     	;# 
   135  0107                     	;# 
   136  0108                     	;# 
   137  0109                     	;# 
   138  010C                     	;# 
   139  010C                     	;# 
   140  010D                     	;# 
   141  010E                     	;# 
   142  010F                     	;# 
   143  0185                     	;# 
   144  0187                     	;# 
   145  0188                     	;# 
   146  0189                     	;# 
   147  018C                     	;# 
   148  018D                     	;# 
   149  0000                     	;# 
   150  0001                     	;# 
   151  0002                     	;# 
   152  0003                     	;# 
   153  0004                     	;# 
   154  0005                     	;# 
   155  0006                     	;# 
   156  0007                     	;# 
   157  0008                     	;# 
   158  0009                     	;# 
   159  000A                     	;# 
   160  000B                     	;# 
   161  000C                     	;# 
   162  000D                     	;# 
   163  000E                     	;# 
   164  000E                     	;# 
   165  000F                     	;# 
   166  0010                     	;# 
   167  0011                     	;# 
   168  0012                     	;# 
   169  0013                     	;# 
   170  0014                     	;# 
   171  0015                     	;# 
   172  0015                     	;# 
   173  0016                     	;# 
   174  0017                     	;# 
   175  0018                     	;# 
   176  0019                     	;# 
   177  001A                     	;# 
   178  001B                     	;# 
   179  001B                     	;# 
   180  001C                     	;# 
   181  001D                     	;# 
   182  001E                     	;# 
   183  001F                     	;# 
   184  0081                     	;# 
   185  0085                     	;# 
   186  0086                     	;# 
   187  0087                     	;# 
   188  0088                     	;# 
   189  0089                     	;# 
   190  008C                     	;# 
   191  008D                     	;# 
   192  008E                     	;# 
   193  008F                     	;# 
   194  0090                     	;# 
   195  0091                     	;# 
   196  0092                     	;# 
   197  0093                     	;# 
   198  0093                     	;# 
   199  0093                     	;# 
   200  0094                     	;# 
   201  0095                     	;# 
   202  0096                     	;# 
   203  0097                     	;# 
   204  0098                     	;# 
   205  0099                     	;# 
   206  009A                     	;# 
   207  009B                     	;# 
   208  009C                     	;# 
   209  009D                     	;# 
   210  009E                     	;# 
   211  009F                     	;# 
   212  0105                     	;# 
   213  0107                     	;# 
   214  0108                     	;# 
   215  0109                     	;# 
   216  010C                     	;# 
   217  010C                     	;# 
   218  010D                     	;# 
   219  010E                     	;# 
   220  010F                     	;# 
   221  0185                     	;# 
   222  0187                     	;# 
   223  0188                     	;# 
   224  0189                     	;# 
   225  018C                     	;# 
   226  018D                     	;# 
   227  0000                     	;# 
   228  0001                     	;# 
   229  0002                     	;# 
   230  0003                     	;# 
   231  0004                     	;# 
   232  0005                     	;# 
   233  0006                     	;# 
   234  0007                     	;# 
   235  0008                     	;# 
   236  0009                     	;# 
   237  000A                     	;# 
   238  000B                     	;# 
   239  000C                     	;# 
   240  000D                     	;# 
   241  000E                     	;# 
   242  000E                     	;# 
   243  000F                     	;# 
   244  0010                     	;# 
   245  0011                     	;# 
   246  0012                     	;# 
   247  0013                     	;# 
   248  0014                     	;# 
   249  0015                     	;# 
   250  0015                     	;# 
   251  0016                     	;# 
   252  0017                     	;# 
   253  0018                     	;# 
   254  0019                     	;# 
   255  001A                     	;# 
   256  001B                     	;# 
   257  001B                     	;# 
   258  001C                     	;# 
   259  001D                     	;# 
   260  001E                     	;# 
   261  001F                     	;# 
   262  0081                     	;# 
   263  0085                     	;# 
   264  0086                     	;# 
   265  0087                     	;# 
   266  0088                     	;# 
   267  0089                     	;# 
   268  008C                     	;# 
   269  008D                     	;# 
   270  008E                     	;# 
   271  008F                     	;# 
   272  0090                     	;# 
   273  0091                     	;# 
   274  0092                     	;# 
   275  0093                     	;# 
   276  0093                     	;# 
   277  0093                     	;# 
   278  0094                     	;# 
   279  0095                     	;# 
   280  0096                     	;# 
   281  0097                     	;# 
   282  0098                     	;# 
   283  0099                     	;# 
   284  009A                     	;# 
   285  009B                     	;# 
   286  009C                     	;# 
   287  009D                     	;# 
   288  009E                     	;# 
   289  009F                     	;# 
   290  0105                     	;# 
   291  0107                     	;# 
   292  0108                     	;# 
   293  0109                     	;# 
   294  010C                     	;# 
   295  010C                     	;# 
   296  010D                     	;# 
   297  010E                     	;# 
   298  010F                     	;# 
   299  0185                     	;# 
   300  0187                     	;# 
   301  0188                     	;# 
   302  0189                     	;# 
   303  018C                     	;# 
   304  018D                     	;# 
   305  0000                     	;# 
   306  0001                     	;# 
   307  0002                     	;# 
   308  0003                     	;# 
   309  0004                     	;# 
   310  0005                     	;# 
   311  0006                     	;# 
   312  0007                     	;# 
   313  0008                     	;# 
   314  0009                     	;# 
   315  000A                     	;# 
   316  000B                     	;# 
   317  000C                     	;# 
   318  000D                     	;# 
   319  000E                     	;# 
   320  000E                     	;# 
   321  000F                     	;# 
   322  0010                     	;# 
   323  0011                     	;# 
   324  0012                     	;# 
   325  0013                     	;# 
   326  0014                     	;# 
   327  0015                     	;# 
   328  0015                     	;# 
   329  0016                     	;# 
   330  0017                     	;# 
   331  0018                     	;# 
   332  0019                     	;# 
   333  001A                     	;# 
   334  001B                     	;# 
   335  001B                     	;# 
   336  001C                     	;# 
   337  001D                     	;# 
   338  001E                     	;# 
   339  001F                     	;# 
   340  0081                     	;# 
   341  0085                     	;# 
   342  0086                     	;# 
   343  0087                     	;# 
   344  0088                     	;# 
   345  0089                     	;# 
   346  008C                     	;# 
   347  008D                     	;# 
   348  008E                     	;# 
   349  008F                     	;# 
   350  0090                     	;# 
   351  0091                     	;# 
   352  0092                     	;# 
   353  0093                     	;# 
   354  0093                     	;# 
   355  0093                     	;# 
   356  0094                     	;# 
   357  0095                     	;# 
   358  0096                     	;# 
   359  0097                     	;# 
   360  0098                     	;# 
   361  0099                     	;# 
   362  009A                     	;# 
   363  009B                     	;# 
   364  009C                     	;# 
   365  009D                     	;# 
   366  009E                     	;# 
   367  009F                     	;# 
   368  0105                     	;# 
   369  0107                     	;# 
   370  0108                     	;# 
   371  0109                     	;# 
   372  010C                     	;# 
   373  010C                     	;# 
   374  010D                     	;# 
   375  010E                     	;# 
   376  010F                     	;# 
   377  0185                     	;# 
   378  0187                     	;# 
   379  0188                     	;# 
   380  0189                     	;# 
   381  018C                     	;# 
   382  018D                     	;# 
   383  0000                     	;# 
   384  0001                     	;# 
   385  0002                     	;# 
   386  0003                     	;# 
   387  0004                     	;# 
   388  0005                     	;# 
   389  0006                     	;# 
   390  0007                     	;# 
   391  0008                     	;# 
   392  0009                     	;# 
   393  000A                     	;# 
   394  000B                     	;# 
   395  000C                     	;# 
   396  000D                     	;# 
   397  000E                     	;# 
   398  000E                     	;# 
   399  000F                     	;# 
   400  0010                     	;# 
   401  0011                     	;# 
   402  0012                     	;# 
   403  0013                     	;# 
   404  0014                     	;# 
   405  0015                     	;# 
   406  0015                     	;# 
   407  0016                     	;# 
   408  0017                     	;# 
   409  0018                     	;# 
   410  0019                     	;# 
   411  001A                     	;# 
   412  001B                     	;# 
   413  001B                     	;# 
   414  001C                     	;# 
   415  001D                     	;# 
   416  001E                     	;# 
   417  001F                     	;# 
   418  0081                     	;# 
   419  0085                     	;# 
   420  0086                     	;# 
   421  0087                     	;# 
   422  0088                     	;# 
   423  0089                     	;# 
   424  008C                     	;# 
   425  008D                     	;# 
   426  008E                     	;# 
   427  008F                     	;# 
   428  0090                     	;# 
   429  0091                     	;# 
   430  0092                     	;# 
   431  0093                     	;# 
   432  0093                     	;# 
   433  0093                     	;# 
   434  0094                     	;# 
   435  0095                     	;# 
   436  0096                     	;# 
   437  0097                     	;# 
   438  0098                     	;# 
   439  0099                     	;# 
   440  009A                     	;# 
   441  009B                     	;# 
   442  009C                     	;# 
   443  009D                     	;# 
   444  009E                     	;# 
   445  009F                     	;# 
   446  0105                     	;# 
   447  0107                     	;# 
   448  0108                     	;# 
   449  0109                     	;# 
   450  010C                     	;# 
   451  010C                     	;# 
   452  010D                     	;# 
   453  010E                     	;# 
   454  010F                     	;# 
   455  0185                     	;# 
   456  0187                     	;# 
   457  0188                     	;# 
   458  0189                     	;# 
   459  018C                     	;# 
   460  018D                     	;# 
   461                           
   462                           	psect	strings
   463  0800                     __pstrings:	
   464  0800                     stringtab:	
   465  0800                     __stringtab:	
   466                           
   467                           ;	String table - string pointers are 1 byte each
   468  0800  1BFF               	btfsc	btemp+1,7
   469  0801  280A               	ljmp	stringcode
   470  0802  1383               	bcf	3,7
   471  0803  187F               	btfsc	btemp+1,0
   472  0804  1783               	bsf	3,7
   473  0805  0800               	movf	0,w
   474  0806  0A84               	incf	4,f
   475  0807  1903               	skipnz
   476  0808  0AFF               	incf	btemp+1,f
   477  0809  0008               	return
   478  080A                     stringcode:	
   479  080A                     stringdir:	
   480  080A  3008               	movlw	high stringdir
   481  080B  008A               	movwf	10
   482  080C  0804               	movf	4,w
   483  080D  0A84               	incf	4,f
   484  080E  0782               	addwf	2,f
   485  080F                     __stringbase:	
   486  080F  3400               	retlw	0
   487  0810                     __end_of__stringtab:	
   488  0810                     _dpowers:	
   489  0810  3401               	retlw	1
   490  0811  3400               	retlw	0
   491  0812  340A               	retlw	10
   492  0813  3400               	retlw	0
   493  0814  3464               	retlw	100
   494  0815  3400               	retlw	0
   495  0816  34E8               	retlw	232
   496  0817  3403               	retlw	3
   497  0818  3410               	retlw	16
   498  0819  3427               	retlw	39
   499  081A                     __end_of_dpowers:	
   500  0019                     _TXREG	set	25
   501  0018                     _RCSTA	set	24
   502  0006                     _PORTBbits	set	6
   503  001E                     _ADRESH	set	30
   504  0008                     _PORTD	set	8
   505  0007                     _PORTC	set	7
   506  0006                     _PORTB	set	6
   507  0005                     _PORTA	set	5
   508  000C                     _PIR1bits	set	12
   509  001F                     _ADCON0bits	set	31
   510  000B                     _INTCONbits	set	11
   511  0098                     _TXSTAbits	set	152
   512  0099                     _SPBRG	set	153
   513  0098                     _TXSTA	set	152
   514  009F                     _ADCON1	set	159
   515  008C                     _PIE1bits	set	140
   516  0088                     _TRISD	set	136
   517  0087                     _TRISC	set	135
   518  0086                     _TRISB	set	134
   519  0085                     _TRISA	set	133
   520  0187                     _BAUDCTLbits	set	391
   521  0188                     _ANSEL	set	392
   522  081A                     STR_1:	
   523  081A  3450               	retlw	80	;'P'
   524  081B  344F               	retlw	79	;'O'
   525  081C  3454               	retlw	84	;'T'
   526  081D  3430               	retlw	48	;'0'
   527  081E  3431               	retlw	49	;'1'
   528  081F  3400               	retlw	0
   529  0820                     STR_2:	
   530  0820  3450               	retlw	80	;'P'
   531  0821  344F               	retlw	79	;'O'
   532  0822  3454               	retlw	84	;'T'
   533  0823  3430               	retlw	48	;'0'
   534  0824  3432               	retlw	50	;'2'
   535  0825  3400               	retlw	0
   536  0826                     STR_3:	
   537  0826  3454               	retlw	84	;'T'
   538  0827  3454               	retlw	84	;'T'
   539  0828  344C               	retlw	76	;'L'
   540  0829  3400               	retlw	0
   541  082A                     STR_10:	
   542  082A  3425               	retlw	37	;'%'
   543  082B  3464               	retlw	100	;'d'
   544  082C  3400               	retlw	0
   545  082D                     STR_5:	
   546  082D  3430               	retlw	48	;'0'
   547  082E  3400               	retlw	0
   548  082F                     STR_4:	
   549  082F  3456               	retlw	86	;'V'
   550  0830  3400               	retlw	0
   551  082D                     
   552                           ; #config settings
   553  0000                     
   554                           	psect	cinit
   555  000F                     start_initialization:	
   556  000F                     __initialization:	
   557                           
   558                           ; Clear objects allocated to COMMON
   559  000F  01FA               	clrf	__pbssCOMMON& (0+127)
   560  0010  01FB               	clrf	(__pbssCOMMON+1)& (0+127)
   561                           
   562                           ; Clear objects allocated to BANK0
   563  0011  1283               	bcf	3,5	;RP0=0, select bank0
   564  0012  1303               	bcf	3,6	;RP1=0, select bank0
   565  0013  01EC               	clrf	__pbssBANK0& (0+127)
   566  0014  01ED               	clrf	(__pbssBANK0+1)& (0+127)
   567  0015  01EE               	clrf	(__pbssBANK0+2)& (0+127)
   568  0016  01EF               	clrf	(__pbssBANK0+3)& (0+127)
   569                           
   570                           ; Clear objects allocated to BANK1
   571  0017  1383               	bcf	3,7	;select IRP bank0
   572  0018  30A0               	movlw	low __pbssBANK1
   573  0019  0084               	movwf	4
   574  001A  30B0               	movlw	low (__pbssBANK1+16)
   575  001B  160A  118A  2784  120A  118A  	fcall	clear_ram0
   576  0020                     end_of_initialization:	
   577                           ;End of C runtime variable initialization code
   578                           
   579  0020                     __end_of__initialization:	
   580  0020  0183               	clrf	3
   581  0021  120A  118A  2824   	ljmp	_main	;jump to C main() function
   582                           
   583                           	psect	bssCOMMON
   584  007A                     __pbssCOMMON:	
   585  007A                     _ttl:	
   586  007A                     	ds	1
   587  007B                     _entero2:	
   588  007B                     	ds	1
   589                           
   590                           	psect	bssBANK0
   591  006C                     __pbssBANK0:	
   592  006C                     _decimale2:	
   593  006C                     	ds	1
   594  006D                     _decimale1:	
   595  006D                     	ds	1
   596  006E                     _entero1:	
   597  006E                     	ds	1
   598  006F                     _ready:	
   599  006F                     	ds	1
   600                           
   601                           	psect	bssBANK1
   602  00A0                     __pbssBANK1:	
   603  00A0                     _decimal2:	
   604  00A0                     	ds	4
   605  00A4                     _decimal1:	
   606  00A4                     	ds	4
   607  00A8                     _adc2:	
   608  00A8                     	ds	4
   609  00AC                     _adc1:	
   610  00AC                     	ds	4
   611                           
   612                           	psect	clrtext
   613  1784                     clear_ram0:	
   614                           ;	Called with FSR containing the base address, and
   615                           ;	W with the last address+1
   616                           
   617  1784  0064               	clrwdt	;clear the watchdog before getting into this loop
   618  1785                     clrloop0:	
   619  1785  0180               	clrf	0	;clear RAM location pointed to by FSR
   620  1786  0A84               	incf	4,f	;increment pointer
   621  1787  0604               	xorwf	4,w	;XOR with final address
   622  1788  1903               	btfsc	3,2	;have we reached the end yet?
   623  1789  3400               	retlw	0	;all done for this memory range, return
   624  178A  0604               	xorwf	4,w	;XOR again to restore value
   625  178B  2F85               	goto	clrloop0	;do the next byte
   626                           
   627                           	psect	cstackCOMMON
   628  0070                     __pcstackCOMMON:	
   629  0070                     ?_initLCD:	
   630  0070                     ?_lcd_clr:	
   631                           ; 1 bytes @ 0x0
   632                           
   633  0070                     ?_initADC:	
   634                           ; 1 bytes @ 0x0
   635                           
   636  0070                     ?_lcd_write_int:	
   637                           ; 1 bytes @ 0x0
   638                           
   639  0070                     ?_lcd_write_char:	
   640                           ; 1 bytes @ 0x0
   641                           
   642  0070                     ?_lcd_cmd:	
   643                           ; 1 bytes @ 0x0
   644                           
   645  0070                     ?_ISR:	
   646                           ; 1 bytes @ 0x0
   647                           
   648  0070                     ??_ISR:	
   649                           ; 1 bytes @ 0x0
   650                           
   651  0070                     ?_main:	
   652                           ; 1 bytes @ 0x0
   653                           
   654                           
   655                           ; 1 bytes @ 0x0
   656  0070                     	ds	2
   657  0072                     ?_initSerial:	
   658  0072                     ??_initADC:	
   659                           ; 1 bytes @ 0x2
   660                           
   661  0072                     ??_lcd_write_char:	
   662                           ; 1 bytes @ 0x2
   663                           
   664  0072                     ??_lcd_cmd:	
   665                           ; 1 bytes @ 0x2
   666                           
   667  0072                     ?__Umul8_16:	
   668                           ; 1 bytes @ 0x2
   669                           
   670  0072                     ?___lwdiv:	
   671                           ; 2 bytes @ 0x2
   672                           
   673  0072                     ?___fltol:	
   674                           ; 2 bytes @ 0x2
   675                           
   676  0072                     ?___fladd:	
   677                           ; 4 bytes @ 0x2
   678                           
   679  0072                     ?___xxtofl:	
   680                           ; 4 bytes @ 0x2
   681                           
   682  0072                     __Umul8_16@multiplicand:	
   683                           ; 4 bytes @ 0x2
   684                           
   685  0072                     initSerial@baudrate:	
   686                           ; 1 bytes @ 0x2
   687                           
   688  0072                     ___lwdiv@divisor:	
   689                           ; 2 bytes @ 0x2
   690                           
   691  0072                     ___fltol@f1:	
   692                           ; 2 bytes @ 0x2
   693                           
   694  0072                     ___fladd@b:	
   695                           ; 4 bytes @ 0x2
   696                           
   697  0072                     ___xxtofl@val:	
   698                           ; 4 bytes @ 0x2
   699                           
   700                           
   701                           ; 4 bytes @ 0x2
   702  0072                     	ds	2
   703  0074                     ??_initSerial:	
   704  0074                     ??__Umul8_16:	
   705                           ; 1 bytes @ 0x4
   706                           
   707  0074                     lcd_cmd@command:	
   708                           ; 1 bytes @ 0x4
   709                           
   710  0074                     lcd_write_char@var:	
   711                           ; 1 bytes @ 0x4
   712                           
   713  0074                     initADC@analog:	
   714                           ; 1 bytes @ 0x4
   715                           
   716  0074                     ___lwdiv@dividend:	
   717                           ; 1 bytes @ 0x4
   718                           
   719                           
   720                           ; 2 bytes @ 0x4
   721  0074                     	ds	1
   722  0075                     ??_initLCD:	
   723  0075                     ??_lcd_clr:	
   724                           ; 1 bytes @ 0x5
   725                           
   726  0075                     ?_lcd_set_cursor:	
   727                           ; 1 bytes @ 0x5
   728                           
   729  0075                     ?_lcd_write_string:	
   730                           ; 1 bytes @ 0x5
   731                           
   732  0075                     lcd_set_cursor@posy:	
   733                           ; 1 bytes @ 0x5
   734                           
   735  0075                     lcd_write_string@var:	
   736                           ; 1 bytes @ 0x5
   737                           
   738                           
   739                           ; 2 bytes @ 0x5
   740  0075                     	ds	1
   741  0076                     ??_lcd_set_cursor:	
   742  0076                     ??___lwdiv:	
   743                           ; 1 bytes @ 0x6
   744                           
   745  0076                     ??___xxtofl:	
   746                           ; 1 bytes @ 0x6
   747                           
   748  0076                     lcd_set_cursor@posx:	
   749                           ; 1 bytes @ 0x6
   750                           
   751  0076                     ___fltol@sign1:	
   752                           ; 1 bytes @ 0x6
   753                           
   754  0076                     ___fladd@a:	
   755                           ; 1 bytes @ 0x6
   756                           
   757                           
   758                           ; 4 bytes @ 0x6
   759  0076                     	ds	1
   760  0077                     ??_lcd_write_string:	
   761  0077                     ___fltol@exp1:	
   762                           ; 1 bytes @ 0x7
   763                           
   764  0077                     ___lwdiv@quotient:	
   765                           ; 1 bytes @ 0x7
   766                           
   767                           
   768                           ; 2 bytes @ 0x7
   769  0077                     	ds	1
   770  0078                     ??_send_float:	
   771                           
   772                           ; 1 bytes @ 0x8
   773  0078                     	ds	1
   774  0079                     ___lwdiv@counter:	
   775                           
   776                           ; 1 bytes @ 0x9
   777  0079                     	ds	1
   778  007A                     ??___flsub:	
   779                           
   780                           	psect	cstackBANK0
   781  0020                     __pcstackBANK0:	
   782                           ; 1 bytes @ 0xA
   783                           
   784  0020                     ??___fltol:	
   785  0020                     ??___fladd:	
   786                           ; 1 bytes @ 0x0
   787                           
   788  0020                     ?___lwmod:	
   789                           ; 1 bytes @ 0x0
   790                           
   791  0020                     ___xxtofl@sign:	
   792                           ; 2 bytes @ 0x0
   793                           
   794  0020                     lcd_write_string@i:	
   795                           ; 1 bytes @ 0x0
   796                           
   797  0020                     ___lwmod@divisor:	
   798                           ; 2 bytes @ 0x0
   799                           
   800  0020                     __Umul8_16@product:	
   801                           ; 2 bytes @ 0x0
   802                           
   803                           
   804                           ; 2 bytes @ 0x0
   805  0020                     	ds	1
   806  0021                     ___xxtofl@exp:	
   807                           
   808                           ; 1 bytes @ 0x1
   809  0021                     	ds	1
   810  0022                     ___lwmod@dividend:	
   811  0022                     __Umul8_16@word_mpld:	
   812                           ; 2 bytes @ 0x2
   813                           
   814  0022                     ___xxtofl@arg:	
   815                           ; 2 bytes @ 0x2
   816                           
   817                           
   818                           ; 4 bytes @ 0x2
   819  0022                     	ds	2
   820  0024                     ??___lwmod:	
   821  0024                     __Umul8_16@multiplier:	
   822                           ; 1 bytes @ 0x4
   823                           
   824                           
   825                           ; 1 bytes @ 0x4
   826  0024                     	ds	1
   827  0025                     ?_send_float:	
   828  0025                     ___lwmod@counter:	
   829                           ; 1 bytes @ 0x5
   830                           
   831  0025                     send_float@msg:	
   832                           ; 1 bytes @ 0x5
   833                           
   834                           
   835                           ; 4 bytes @ 0x5
   836  0025                     	ds	1
   837  0026                     ?_sprintf:	
   838  0026                     sprintf@f:	
   839                           ; 2 bytes @ 0x6
   840                           
   841                           
   842                           ; 1 bytes @ 0x6
   843  0026                     	ds	2
   844  0028                     ___fladd@signs:	
   845                           
   846                           ; 1 bytes @ 0x8
   847  0028                     	ds	1
   848  0029                     ??_sprintf:	
   849  0029                     ___fladd@aexp:	
   850                           ; 1 bytes @ 0x9
   851                           
   852                           
   853                           ; 1 bytes @ 0x9
   854  0029                     	ds	1
   855  002A                     ___fladd@bexp:	
   856                           
   857                           ; 1 bytes @ 0xA
   858  002A                     	ds	1
   859  002B                     ___fladd@grs:	
   860                           
   861                           ; 1 bytes @ 0xB
   862  002B                     	ds	1
   863  002C                     ?___flsub:	
   864  002C                     sprintf@ap:	
   865                           ; 4 bytes @ 0xC
   866                           
   867  002C                     ___flsub@a:	
   868                           ; 1 bytes @ 0xC
   869                           
   870                           
   871                           ; 4 bytes @ 0xC
   872  002C                     	ds	1
   873  002D                     sprintf@flag:	
   874                           
   875                           ; 1 bytes @ 0xD
   876  002D                     	ds	1
   877  002E                     sprintf@prec:	
   878                           
   879                           ; 1 bytes @ 0xE
   880  002E                     	ds	1
   881  002F                     sprintf@val:	
   882                           
   883                           ; 2 bytes @ 0xF
   884  002F                     	ds	1
   885  0030                     ___flsub@b:	
   886                           
   887                           ; 4 bytes @ 0x10
   888  0030                     	ds	1
   889  0031                     sprintf@sp:	
   890                           
   891                           ; 1 bytes @ 0x11
   892  0031                     	ds	1
   893  0032                     sprintf@c:	
   894                           
   895                           ; 1 bytes @ 0x12
   896  0032                     	ds	1
   897  0033                     ??_lcd_write_int:	
   898                           
   899                           ; 1 bytes @ 0x13
   900  0033                     	ds	1
   901  0034                     ?___flmul:	
   902  0034                     ___flmul@b:	
   903                           ; 4 bytes @ 0x14
   904                           
   905                           
   906                           ; 4 bytes @ 0x14
   907  0034                     	ds	2
   908  0036                     lcd_write_int@buffer:	
   909                           
   910                           ; 4 bytes @ 0x16
   911  0036                     	ds	2
   912  0038                     ___flmul@a:	
   913                           
   914                           ; 4 bytes @ 0x18
   915  0038                     	ds	2
   916  003A                     lcd_write_int@numero:	
   917                           
   918                           ; 1 bytes @ 0x1A
   919  003A                     	ds	2
   920  003C                     ??___flmul:	
   921                           
   922                           ; 1 bytes @ 0x1C
   923  003C                     	ds	5
   924  0041                     ___flmul@sign:	
   925                           
   926                           ; 1 bytes @ 0x21
   927  0041                     	ds	1
   928  0042                     ___flmul@aexp:	
   929                           
   930                           ; 1 bytes @ 0x22
   931  0042                     	ds	1
   932  0043                     ___flmul@grs:	
   933                           
   934                           ; 4 bytes @ 0x23
   935  0043                     	ds	4
   936  0047                     ___flmul@bexp:	
   937                           
   938                           ; 1 bytes @ 0x27
   939  0047                     	ds	1
   940  0048                     ___flmul@prod:	
   941                           
   942                           ; 4 bytes @ 0x28
   943  0048                     	ds	4
   944  004C                     ___flmul@temp:	
   945                           
   946                           ; 2 bytes @ 0x2C
   947  004C                     	ds	2
   948  004E                     ?___fldiv:	
   949  004E                     ___fldiv@a:	
   950                           ; 4 bytes @ 0x2E
   951                           
   952                           
   953                           ; 4 bytes @ 0x2E
   954  004E                     	ds	4
   955  0052                     ___fldiv@b:	
   956                           
   957                           ; 4 bytes @ 0x32
   958  0052                     	ds	4
   959  0056                     ??___fldiv:	
   960                           
   961                           ; 1 bytes @ 0x36
   962  0056                     	ds	5
   963  005B                     ___fldiv@rem:	
   964                           
   965                           ; 4 bytes @ 0x3B
   966  005B                     	ds	4
   967  005F                     ___fldiv@sign:	
   968                           
   969                           ; 1 bytes @ 0x3F
   970  005F                     	ds	1
   971  0060                     ___fldiv@new_exp:	
   972                           
   973                           ; 2 bytes @ 0x40
   974  0060                     	ds	2
   975  0062                     ___fldiv@grs:	
   976                           
   977                           ; 4 bytes @ 0x42
   978  0062                     	ds	4
   979  0066                     ___fldiv@bexp:	
   980                           
   981                           ; 1 bytes @ 0x46
   982  0066                     	ds	1
   983  0067                     ___fldiv@aexp:	
   984                           
   985                           ; 1 bytes @ 0x47
   986  0067                     	ds	1
   987  0068                     ??_main:	
   988                           
   989                           ; 1 bytes @ 0x48
   990  0068                     	ds	4
   991                           
   992                           	psect	maintext
   993  0024                     __pmaintext:	
   994 ;;
   995 ;;Main: autosize = 0, tempsize = 4, incstack = 0, save=0
   996 ;;
   997 ;; *************** function _main *****************
   998 ;; Defined at:
   999 ;;		line 49 in file "LCD.c"
  1000 ;; Parameters:    Size  Location     Type
  1001 ;;		None
  1002 ;; Auto vars:     Size  Location     Type
  1003 ;;		None
  1004 ;; Return value:  Size  Location     Type
  1005 ;;                  1    wreg      void 
  1006 ;; Registers used:
  1007 ;;		wreg, fsr0l, fsr0h, status,2, status,0, btemp+1, pclath, cstack
  1008 ;; Tracked objects:
  1009 ;;		On entry : B00/0
  1010 ;;		On exit  : 0/0
  1011 ;;		Unchanged: 0/0
  1012 ;; Data sizes:     COMMON   BANK0   BANK1   BANK3   BANK2
  1013 ;;      Params:         0       0       0       0       0
  1014 ;;      Locals:         0       0       0       0       0
  1015 ;;      Temps:          0       4       0       0       0
  1016 ;;      Totals:         0       4       0       0       0
  1017 ;;Total ram usage:        4 bytes
  1018 ;; Hardware stack levels required when called:    4
  1019 ;; This function calls:
  1020 ;;		___fldiv
  1021 ;;		___flmul
  1022 ;;		___flsub
  1023 ;;		___fltol
  1024 ;;		___xxtofl
  1025 ;;		_initADC
  1026 ;;		_initLCD
  1027 ;;		_initSerial
  1028 ;;		_lcd_clr
  1029 ;;		_lcd_set_cursor
  1030 ;;		_lcd_write_char
  1031 ;;		_lcd_write_int
  1032 ;;		_lcd_write_string
  1033 ;;		_send_float
  1034 ;; This function is called by:
  1035 ;;		Startup code after reset
  1036 ;; This function uses a non-reentrant model
  1037 ;;
  1038                           
  1039                           
  1040                           ;psect for function _main
  1041  0024                     _main:	
  1042  0024                     l3106:	
  1043                           ;incstack = 0
  1044                           ; Regs used in _main: [wreg-fsr0h+status,2+status,0+btemp+1+pclath+cstack]
  1045                           
  1046                           
  1047                           ;LCD.c: 50:     TRISA = 0b00000011;
  1048  0024  3003               	movlw	3
  1049  0025  1683               	bsf	3,5	;RP0=1, select bank1
  1050  0026  1303               	bcf	3,6	;RP1=0, select bank1
  1051  0027  0085               	movwf	5	;volatile
  1052  0028                     l3108:	
  1053                           
  1054                           ;LCD.c: 51:     TRISB = 0;
  1055  0028  0186               	clrf	6	;volatile
  1056  0029                     l3110:	
  1057                           
  1058                           ;LCD.c: 52:     TRISC = 0;
  1059  0029  0187               	clrf	7	;volatile
  1060  002A                     l3112:	
  1061                           
  1062                           ;LCD.c: 53:     TRISD = 0;
  1063  002A  0188               	clrf	8	;volatile
  1064  002B                     l3114:	
  1065                           
  1066                           ;LCD.c: 55:     ANSEL = 0b00000011;
  1067  002B  3003               	movlw	3
  1068  002C  1683               	bsf	3,5	;RP0=1, select bank3
  1069  002D  1703               	bsf	3,6	;RP1=1, select bank3
  1070  002E  0088               	movwf	8	;volatile
  1071                           
  1072                           ;LCD.c: 58:     PORTA = 0;
  1073  002F  1283               	bcf	3,5	;RP0=0, select bank0
  1074  0030  1303               	bcf	3,6	;RP1=0, select bank0
  1075  0031  0185               	clrf	5	;volatile
  1076                           
  1077                           ;LCD.c: 59:     PORTB = 0;
  1078  0032  0186               	clrf	6	;volatile
  1079                           
  1080                           ;LCD.c: 60:     PORTC = 0;
  1081  0033  0187               	clrf	7	;volatile
  1082                           
  1083                           ;LCD.c: 61:     PORTD = 0;
  1084  0034  0188               	clrf	8	;volatile
  1085  0035                     l3116:	
  1086                           
  1087                           ;LCD.c: 68:     initLCD();
  1088  0035  120A  158A  2176  120A  118A  	fcall	_initLCD
  1089  003A                     l3118:	
  1090                           
  1091                           ;LCD.c: 69:     initSerial(9600);
  1092  003A  3080               	movlw	128
  1093  003B  00F2               	movwf	initSerial@baudrate
  1094  003C  3025               	movlw	37
  1095  003D  00F3               	movwf	initSerial@baudrate+1
  1096  003E  120A  158A  20AD  120A  118A  	fcall	_initSerial
  1097  0043                     l3120:	
  1098                           
  1099                           ;LCD.c: 70:     lcd_clr();
  1100  0043  160A  118A  277D  120A  118A  	fcall	_lcd_clr
  1101  0048                     l3122:	
  1102                           
  1103                           ;LCD.c: 71:     lcd_set_cursor(1,1);
  1104  0048  01F5               	clrf	lcd_set_cursor@posy
  1105  0049  0AF5               	incf	lcd_set_cursor@posy,f
  1106  004A  3001               	movlw	1
  1107  004B  120A  158A  2032  120A  118A  	fcall	_lcd_set_cursor
  1108  0050                     l3124:	
  1109                           
  1110                           ;LCD.c: 72:     lcd_write_string ("POT01");
  1111  0050  300B               	movlw	(low ((STR_1-__stringbase)| (0+32768)))& (0+255)
  1112  0051  00F5               	movwf	lcd_write_string@var
  1113  0052  3080               	movlw	128
  1114  0053  00F6               	movwf	lcd_write_string@var+1
  1115  0054  120A  158A  2130  120A  118A  	fcall	_lcd_write_string
  1116  0059                     l3126:	
  1117                           
  1118                           ;LCD.c: 73:     lcd_set_cursor(7,1);
  1119  0059  01F5               	clrf	lcd_set_cursor@posy
  1120  005A  0AF5               	incf	lcd_set_cursor@posy,f
  1121  005B  3007               	movlw	7
  1122  005C  120A  158A  2032  120A  118A  	fcall	_lcd_set_cursor
  1123  0061                     l3128:	
  1124                           
  1125                           ;LCD.c: 74:     lcd_write_string ("POT02");
  1126  0061  3011               	movlw	(low ((STR_2-__stringbase)| (0+32768)))& (0+255)
  1127  0062  00F5               	movwf	lcd_write_string@var
  1128  0063  3080               	movlw	128
  1129  0064  00F6               	movwf	lcd_write_string@var+1
  1130  0065  120A  158A  2130  120A  118A  	fcall	_lcd_write_string
  1131  006A                     l3130:	
  1132                           
  1133                           ;LCD.c: 75:     lcd_set_cursor(13,1);
  1134  006A  01F5               	clrf	lcd_set_cursor@posy
  1135  006B  0AF5               	incf	lcd_set_cursor@posy,f
  1136  006C  300D               	movlw	13
  1137  006D  120A  158A  2032  120A  118A  	fcall	_lcd_set_cursor
  1138  0072                     l3132:	
  1139                           
  1140                           ;LCD.c: 76:     lcd_write_string ("TTL");
  1141  0072  3017               	movlw	(low ((STR_3-__stringbase)| (0+32768)))& (0+255)
  1142  0073  00F5               	movwf	lcd_write_string@var
  1143  0074  3080               	movlw	128
  1144  0075  00F6               	movwf	lcd_write_string@var+1
  1145  0076  120A  158A  2130  120A  118A  	fcall	_lcd_write_string
  1146  007B                     l3134:	
  1147                           
  1148                           ;LCD.c: 79:         initADC(0);
  1149  007B  3000               	movlw	0
  1150  007C  120A  158A  2241  120A  118A  	fcall	_initADC
  1151  0081                     l3136:	
  1152                           
  1153                           ;LCD.c: 80:         if(ready){
  1154  0081  1283               	bcf	3,5	;RP0=0, select bank0
  1155  0082  1303               	bcf	3,6	;RP1=0, select bank0
  1156  0083  086F               	movf	_ready,w
  1157  0084  1903               	btfsc	3,2
  1158  0085  2887               	goto	u4081
  1159  0086  2888               	goto	u4080
  1160  0087                     u4081:	
  1161  0087  28A9               	goto	l3144
  1162  0088                     u4080:	
  1163  0088                     l3138:	
  1164                           
  1165                           ;LCD.c: 81:             adc1 = ADRESH;
  1166  0088  081E               	movf	30,w	;volatile
  1167  0089  00E8               	movwf	??_main
  1168  008A  01E9               	clrf	??_main+1
  1169  008B  01EA               	clrf	??_main+2
  1170  008C  01EB               	clrf	??_main+3
  1171  008D  086B               	movf	??_main+3,w
  1172  008E  00F5               	movwf	___xxtofl@val+3
  1173  008F  086A               	movf	??_main+2,w
  1174  0090  00F4               	movwf	___xxtofl@val+2
  1175  0091  0869               	movf	??_main+1,w
  1176  0092  00F3               	movwf	___xxtofl@val+1
  1177  0093  0868               	movf	??_main,w
  1178  0094  00F2               	movwf	___xxtofl@val
  1179  0095  3000               	movlw	0
  1180  0096  120A  158A  22DF  120A  118A  	fcall	___xxtofl
  1181  009B  0875               	movf	?___xxtofl+3,w
  1182  009C  1683               	bsf	3,5	;RP0=1, select bank1
  1183  009D  1303               	bcf	3,6	;RP1=0, select bank1
  1184  009E  00AF               	movwf	(_adc1+3)^(0+128)
  1185  009F  0874               	movf	?___xxtofl+2,w
  1186  00A0  00AE               	movwf	(_adc1+2)^(0+128)
  1187  00A1  0873               	movf	?___xxtofl+1,w
  1188  00A2  00AD               	movwf	(_adc1+1)^(0+128)
  1189  00A3  0872               	movf	?___xxtofl,w
  1190  00A4  00AC               	movwf	_adc1^(0+128)
  1191  00A5                     l3140:	
  1192                           
  1193                           ;LCD.c: 82:             ready = 0;
  1194  00A5  1283               	bcf	3,5	;RP0=0, select bank0
  1195  00A6  1303               	bcf	3,6	;RP1=0, select bank0
  1196  00A7  01EF               	clrf	_ready
  1197  00A8                     l3142:	
  1198                           
  1199                           ;LCD.c: 83:             ADCON0bits.GO_DONE = 1;
  1200  00A8  149F               	bsf	31,1	;volatile
  1201  00A9                     l3144:	
  1202                           
  1203                           ;LCD.c: 85:         adc1 = adc1 * 5/255;
  1204  00A9  3043               	movlw	67
  1205  00AA  00D1               	movwf	___fldiv@a+3
  1206  00AB  307F               	movlw	127
  1207  00AC  00D0               	movwf	___fldiv@a+2
  1208  00AD  3000               	movlw	0
  1209  00AE  00CF               	movwf	___fldiv@a+1
  1210  00AF  3000               	movlw	0
  1211  00B0  00CE               	movwf	___fldiv@a
  1212  00B1  3040               	movlw	64
  1213  00B2  00B7               	movwf	___flmul@b+3
  1214  00B3  30A0               	movlw	160
  1215  00B4  00B6               	movwf	___flmul@b+2
  1216  00B5  3000               	movlw	0
  1217  00B6  00B5               	movwf	___flmul@b+1
  1218  00B7  3000               	movlw	0
  1219  00B8  00B4               	movwf	___flmul@b
  1220  00B9  1683               	bsf	3,5	;RP0=1, select bank1
  1221  00BA  1303               	bcf	3,6	;RP1=0, select bank1
  1222  00BB  082F               	movf	(_adc1+3)^(0+128),w
  1223  00BC  1283               	bcf	3,5	;RP0=0, select bank0
  1224  00BD  1303               	bcf	3,6	;RP1=0, select bank0
  1225  00BE  00BB               	movwf	___flmul@a+3
  1226  00BF  1683               	bsf	3,5	;RP0=1, select bank1
  1227  00C0  1303               	bcf	3,6	;RP1=0, select bank1
  1228  00C1  082E               	movf	(_adc1+2)^(0+128),w
  1229  00C2  1283               	bcf	3,5	;RP0=0, select bank0
  1230  00C3  1303               	bcf	3,6	;RP1=0, select bank0
  1231  00C4  00BA               	movwf	___flmul@a+2
  1232  00C5  1683               	bsf	3,5	;RP0=1, select bank1
  1233  00C6  1303               	bcf	3,6	;RP1=0, select bank1
  1234  00C7  082D               	movf	(_adc1+1)^(0+128),w
  1235  00C8  1283               	bcf	3,5	;RP0=0, select bank0
  1236  00C9  1303               	bcf	3,6	;RP1=0, select bank0
  1237  00CA  00B9               	movwf	___flmul@a+1
  1238  00CB  1683               	bsf	3,5	;RP0=1, select bank1
  1239  00CC  1303               	bcf	3,6	;RP1=0, select bank1
  1240  00CD  082C               	movf	_adc1^(0+128),w
  1241  00CE  1283               	bcf	3,5	;RP0=0, select bank0
  1242  00CF  1303               	bcf	3,6	;RP1=0, select bank0
  1243  00D0  00B8               	movwf	___flmul@a
  1244  00D1  120A  118A  2387  120A  118A  	fcall	___flmul
  1245  00D6  1283               	bcf	3,5	;RP0=0, select bank0
  1246  00D7  1303               	bcf	3,6	;RP1=0, select bank0
  1247  00D8  0837               	movf	?___flmul+3,w
  1248  00D9  00D5               	movwf	___fldiv@b+3
  1249  00DA  0836               	movf	?___flmul+2,w
  1250  00DB  00D4               	movwf	___fldiv@b+2
  1251  00DC  0835               	movf	?___flmul+1,w
  1252  00DD  00D3               	movwf	___fldiv@b+1
  1253  00DE  0834               	movf	?___flmul,w
  1254  00DF  00D2               	movwf	___fldiv@b
  1255  00E0  120A  158A  239B  120A  118A  	fcall	___fldiv
  1256  00E5  1283               	bcf	3,5	;RP0=0, select bank0
  1257  00E6  1303               	bcf	3,6	;RP1=0, select bank0
  1258  00E7  0851               	movf	?___fldiv+3,w
  1259  00E8  1683               	bsf	3,5	;RP0=1, select bank1
  1260  00E9  1303               	bcf	3,6	;RP1=0, select bank1
  1261  00EA  00AF               	movwf	(_adc1+3)^(0+128)
  1262  00EB  1283               	bcf	3,5	;RP0=0, select bank0
  1263  00EC  1303               	bcf	3,6	;RP1=0, select bank0
  1264  00ED  0850               	movf	?___fldiv+2,w
  1265  00EE  1683               	bsf	3,5	;RP0=1, select bank1
  1266  00EF  1303               	bcf	3,6	;RP1=0, select bank1
  1267  00F0  00AE               	movwf	(_adc1+2)^(0+128)
  1268  00F1  1283               	bcf	3,5	;RP0=0, select bank0
  1269  00F2  1303               	bcf	3,6	;RP1=0, select bank0
  1270  00F3  084F               	movf	?___fldiv+1,w
  1271  00F4  1683               	bsf	3,5	;RP0=1, select bank1
  1272  00F5  1303               	bcf	3,6	;RP1=0, select bank1
  1273  00F6  00AD               	movwf	(_adc1+1)^(0+128)
  1274  00F7  1283               	bcf	3,5	;RP0=0, select bank0
  1275  00F8  1303               	bcf	3,6	;RP1=0, select bank0
  1276  00F9  084E               	movf	?___fldiv,w
  1277  00FA  1683               	bsf	3,5	;RP0=1, select bank1
  1278  00FB  1303               	bcf	3,6	;RP1=0, select bank1
  1279  00FC  00AC               	movwf	_adc1^(0+128)
  1280  00FD                     l3146:	
  1281                           
  1282                           ;LCD.c: 86:         entero1 = adc1;
  1283  00FD  082F               	movf	(_adc1+3)^(0+128),w
  1284  00FE  00F5               	movwf	___fltol@f1+3
  1285  00FF  082E               	movf	(_adc1+2)^(0+128),w
  1286  0100  00F4               	movwf	___fltol@f1+2
  1287  0101  082D               	movf	(_adc1+1)^(0+128),w
  1288  0102  00F3               	movwf	___fltol@f1+1
  1289  0103  082C               	movf	_adc1^(0+128),w
  1290  0104  00F2               	movwf	___fltol@f1
  1291  0105  120A  158A  21C5  120A  118A  	fcall	___fltol
  1292  010A  0872               	movf	?___fltol,w
  1293  010B  1283               	bcf	3,5	;RP0=0, select bank0
  1294  010C  1303               	bcf	3,6	;RP1=0, select bank0
  1295  010D  00E8               	movwf	??_main
  1296  010E  0868               	movf	??_main,w
  1297  010F  00EE               	movwf	_entero1
  1298  0110                     l3148:	
  1299                           
  1300                           ;LCD.c: 87:         decimal1 = (adc1 - entero1)*100;
  1301  0110  3042               	movlw	66
  1302  0111  00B7               	movwf	___flmul@b+3
  1303  0112  30C8               	movlw	200
  1304  0113  00B6               	movwf	___flmul@b+2
  1305  0114  3000               	movlw	0
  1306  0115  00B5               	movwf	___flmul@b+1
  1307  0116  3000               	movlw	0
  1308  0117  00B4               	movwf	___flmul@b
  1309  0118  086E               	movf	_entero1,w
  1310  0119  00E8               	movwf	??_main
  1311  011A  01E9               	clrf	??_main+1
  1312  011B  01EA               	clrf	??_main+2
  1313  011C  01EB               	clrf	??_main+3
  1314  011D  086B               	movf	??_main+3,w
  1315  011E  00F5               	movwf	___xxtofl@val+3
  1316  011F  086A               	movf	??_main+2,w
  1317  0120  00F4               	movwf	___xxtofl@val+2
  1318  0121  0869               	movf	??_main+1,w
  1319  0122  00F3               	movwf	___xxtofl@val+1
  1320  0123  0868               	movf	??_main,w
  1321  0124  00F2               	movwf	___xxtofl@val
  1322  0125  3001               	movlw	1
  1323  0126  120A  158A  22DF  120A  118A  	fcall	___xxtofl
  1324  012B  0875               	movf	?___xxtofl+3,w
  1325  012C  1283               	bcf	3,5	;RP0=0, select bank0
  1326  012D  1303               	bcf	3,6	;RP1=0, select bank0
  1327  012E  00AF               	movwf	___flsub@a+3
  1328  012F  0874               	movf	?___xxtofl+2,w
  1329  0130  00AE               	movwf	___flsub@a+2
  1330  0131  0873               	movf	?___xxtofl+1,w
  1331  0132  00AD               	movwf	___flsub@a+1
  1332  0133  0872               	movf	?___xxtofl,w
  1333  0134  00AC               	movwf	___flsub@a
  1334  0135  1683               	bsf	3,5	;RP0=1, select bank1
  1335  0136  1303               	bcf	3,6	;RP1=0, select bank1
  1336  0137  082F               	movf	(_adc1+3)^(0+128),w
  1337  0138  1283               	bcf	3,5	;RP0=0, select bank0
  1338  0139  1303               	bcf	3,6	;RP1=0, select bank0
  1339  013A  00B3               	movwf	___flsub@b+3
  1340  013B  1683               	bsf	3,5	;RP0=1, select bank1
  1341  013C  1303               	bcf	3,6	;RP1=0, select bank1
  1342  013D  082E               	movf	(_adc1+2)^(0+128),w
  1343  013E  1283               	bcf	3,5	;RP0=0, select bank0
  1344  013F  1303               	bcf	3,6	;RP1=0, select bank0
  1345  0140  00B2               	movwf	___flsub@b+2
  1346  0141  1683               	bsf	3,5	;RP0=1, select bank1
  1347  0142  1303               	bcf	3,6	;RP1=0, select bank1
  1348  0143  082D               	movf	(_adc1+1)^(0+128),w
  1349  0144  1283               	bcf	3,5	;RP0=0, select bank0
  1350  0145  1303               	bcf	3,6	;RP1=0, select bank0
  1351  0146  00B1               	movwf	___flsub@b+1
  1352  0147  1683               	bsf	3,5	;RP0=1, select bank1
  1353  0148  1303               	bcf	3,6	;RP1=0, select bank1
  1354  0149  082C               	movf	_adc1^(0+128),w
  1355  014A  1283               	bcf	3,5	;RP0=0, select bank0
  1356  014B  1303               	bcf	3,6	;RP1=0, select bank0
  1357  014C  00B0               	movwf	___flsub@b
  1358  014D  120A  158A  204D  120A  118A  	fcall	___flsub
  1359  0152  1283               	bcf	3,5	;RP0=0, select bank0
  1360  0153  1303               	bcf	3,6	;RP1=0, select bank0
  1361  0154  082F               	movf	?___flsub+3,w
  1362  0155  00BB               	movwf	___flmul@a+3
  1363  0156  082E               	movf	?___flsub+2,w
  1364  0157  00BA               	movwf	___flmul@a+2
  1365  0158  082D               	movf	?___flsub+1,w
  1366  0159  00B9               	movwf	___flmul@a+1
  1367  015A  082C               	movf	?___flsub,w
  1368  015B  00B8               	movwf	___flmul@a
  1369  015C  120A  118A  2387  120A  118A  	fcall	___flmul
  1370  0161  1283               	bcf	3,5	;RP0=0, select bank0
  1371  0162  1303               	bcf	3,6	;RP1=0, select bank0
  1372  0163  0837               	movf	?___flmul+3,w
  1373  0164  1683               	bsf	3,5	;RP0=1, select bank1
  1374  0165  1303               	bcf	3,6	;RP1=0, select bank1
  1375  0166  00A7               	movwf	(_decimal1+3)^(0+128)
  1376  0167  1283               	bcf	3,5	;RP0=0, select bank0
  1377  0168  1303               	bcf	3,6	;RP1=0, select bank0
  1378  0169  0836               	movf	?___flmul+2,w
  1379  016A  1683               	bsf	3,5	;RP0=1, select bank1
  1380  016B  1303               	bcf	3,6	;RP1=0, select bank1
  1381  016C  00A6               	movwf	(_decimal1+2)^(0+128)
  1382  016D  1283               	bcf	3,5	;RP0=0, select bank0
  1383  016E  1303               	bcf	3,6	;RP1=0, select bank0
  1384  016F  0835               	movf	?___flmul+1,w
  1385  0170  1683               	bsf	3,5	;RP0=1, select bank1
  1386  0171  1303               	bcf	3,6	;RP1=0, select bank1
  1387  0172  00A5               	movwf	(_decimal1+1)^(0+128)
  1388  0173  1283               	bcf	3,5	;RP0=0, select bank0
  1389  0174  1303               	bcf	3,6	;RP1=0, select bank0
  1390  0175  0834               	movf	?___flmul,w
  1391  0176  1683               	bsf	3,5	;RP0=1, select bank1
  1392  0177  1303               	bcf	3,6	;RP1=0, select bank1
  1393  0178  00A4               	movwf	_decimal1^(0+128)
  1394  0179                     l3150:	
  1395                           
  1396                           ;LCD.c: 88:         decimale1 = decimal1;
  1397  0179  0827               	movf	(_decimal1+3)^(0+128),w
  1398  017A  00F5               	movwf	___fltol@f1+3
  1399  017B  0826               	movf	(_decimal1+2)^(0+128),w
  1400  017C  00F4               	movwf	___fltol@f1+2
  1401  017D  0825               	movf	(_decimal1+1)^(0+128),w
  1402  017E  00F3               	movwf	___fltol@f1+1
  1403  017F  0824               	movf	_decimal1^(0+128),w
  1404  0180  00F2               	movwf	___fltol@f1
  1405  0181  120A  158A  21C5  120A  118A  	fcall	___fltol
  1406  0186  0872               	movf	?___fltol,w
  1407  0187  1283               	bcf	3,5	;RP0=0, select bank0
  1408  0188  1303               	bcf	3,6	;RP1=0, select bank0
  1409  0189  00E8               	movwf	??_main
  1410  018A  0868               	movf	??_main,w
  1411  018B  00ED               	movwf	_decimale1
  1412  018C                     l3152:	
  1413                           
  1414                           ;LCD.c: 89:         send_float(adc1);
  1415  018C  1683               	bsf	3,5	;RP0=1, select bank1
  1416  018D  1303               	bcf	3,6	;RP1=0, select bank1
  1417  018E  082F               	movf	(_adc1+3)^(0+128),w
  1418  018F  1283               	bcf	3,5	;RP0=0, select bank0
  1419  0190  1303               	bcf	3,6	;RP1=0, select bank0
  1420  0191  00A8               	movwf	send_float@msg+3
  1421  0192  1683               	bsf	3,5	;RP0=1, select bank1
  1422  0193  1303               	bcf	3,6	;RP1=0, select bank1
  1423  0194  082E               	movf	(_adc1+2)^(0+128),w
  1424  0195  1283               	bcf	3,5	;RP0=0, select bank0
  1425  0196  1303               	bcf	3,6	;RP1=0, select bank0
  1426  0197  00A7               	movwf	send_float@msg+2
  1427  0198  1683               	bsf	3,5	;RP0=1, select bank1
  1428  0199  1303               	bcf	3,6	;RP1=0, select bank1
  1429  019A  082D               	movf	(_adc1+1)^(0+128),w
  1430  019B  1283               	bcf	3,5	;RP0=0, select bank0
  1431  019C  1303               	bcf	3,6	;RP1=0, select bank0
  1432  019D  00A6               	movwf	send_float@msg+1
  1433  019E  1683               	bsf	3,5	;RP0=1, select bank1
  1434  019F  1303               	bcf	3,6	;RP1=0, select bank1
  1435  01A0  082C               	movf	_adc1^(0+128),w
  1436  01A1  1283               	bcf	3,5	;RP0=0, select bank0
  1437  01A2  1303               	bcf	3,6	;RP1=0, select bank0
  1438  01A3  00A5               	movwf	send_float@msg
  1439  01A4  160A  118A  27C8  120A  118A  	fcall	_send_float
  1440  01A9                     l3154:	
  1441                           
  1442                           ;LCD.c: 90:         lcd_set_cursor(1,2);
  1443  01A9  3002               	movlw	2
  1444  01AA  1283               	bcf	3,5	;RP0=0, select bank0
  1445  01AB  1303               	bcf	3,6	;RP1=0, select bank0
  1446  01AC  00E8               	movwf	??_main
  1447  01AD  0868               	movf	??_main,w
  1448  01AE  00F5               	movwf	lcd_set_cursor@posy
  1449  01AF  3001               	movlw	1
  1450  01B0  120A  158A  2032  120A  118A  	fcall	_lcd_set_cursor
  1451  01B5                     l3156:	
  1452                           
  1453                           ;LCD.c: 91:         lcd_write_int(entero1);
  1454  01B5  1283               	bcf	3,5	;RP0=0, select bank0
  1455  01B6  1303               	bcf	3,6	;RP1=0, select bank0
  1456  01B7  086E               	movf	_entero1,w
  1457  01B8  160A  118A  27E2  120A  118A  	fcall	_lcd_write_int
  1458  01BD                     l3158:	
  1459                           
  1460                           ;LCD.c: 92:         lcd_write_char('.');
  1461  01BD  302E               	movlw	46
  1462  01BE  160A  118A  27B4  120A  118A  	fcall	_lcd_write_char
  1463  01C3                     l3160:	
  1464                           
  1465                           ;LCD.c: 93:         if(decimale1 >= 10){
  1466  01C3  300A               	movlw	10
  1467  01C4  1283               	bcf	3,5	;RP0=0, select bank0
  1468  01C5  1303               	bcf	3,6	;RP1=0, select bank0
  1469  01C6  026D               	subwf	_decimale1,w
  1470  01C7  1C03               	skipc
  1471  01C8  29CA               	goto	u4091
  1472  01C9  29CB               	goto	u4090
  1473  01CA                     u4091:	
  1474  01CA  29DB               	goto	l3164
  1475  01CB                     u4090:	
  1476  01CB                     l3162:	
  1477                           
  1478                           ;LCD.c: 94:             lcd_write_int(decimale1);
  1479  01CB  086D               	movf	_decimale1,w
  1480  01CC  160A  118A  27E2  120A  118A  	fcall	_lcd_write_int
  1481                           
  1482                           ;LCD.c: 95:             lcd_write_string("V");
  1483  01D1  3020               	movlw	(low ((STR_4-__stringbase)| (0+32768)))& (0+255)
  1484  01D2  00F5               	movwf	lcd_write_string@var
  1485  01D3  3080               	movlw	128
  1486  01D4  00F6               	movwf	lcd_write_string@var+1
  1487  01D5  120A  158A  2130  120A  118A  	fcall	_lcd_write_string
  1488                           
  1489                           ;LCD.c: 96:         }else{
  1490  01DA  29F5               	goto	l3166
  1491  01DB                     l3164:	
  1492                           
  1493                           ;LCD.c: 97:             lcd_write_string("0");
  1494  01DB  301E               	movlw	(low ((STR_5-__stringbase)| (0+32768)))& (0+255)
  1495  01DC  00F5               	movwf	lcd_write_string@var
  1496  01DD  3080               	movlw	128
  1497  01DE  00F6               	movwf	lcd_write_string@var+1
  1498  01DF  120A  158A  2130  120A  118A  	fcall	_lcd_write_string
  1499                           
  1500                           ;LCD.c: 98:             lcd_write_int(decimale1);
  1501  01E4  1283               	bcf	3,5	;RP0=0, select bank0
  1502  01E5  1303               	bcf	3,6	;RP1=0, select bank0
  1503  01E6  086D               	movf	_decimale1,w
  1504  01E7  160A  118A  27E2  120A  118A  	fcall	_lcd_write_int
  1505                           
  1506                           ;LCD.c: 99:             lcd_write_string("V");
  1507  01EC  3020               	movlw	(low ((STR_4-__stringbase)| (0+32768)))& (0+255)
  1508  01ED  00F5               	movwf	lcd_write_string@var
  1509  01EE  3080               	movlw	128
  1510  01EF  00F6               	movwf	lcd_write_string@var+1
  1511  01F0  120A  158A  2130  120A  118A  	fcall	_lcd_write_string
  1512  01F5                     l3166:	
  1513                           
  1514                           ;LCD.c: 101:         _delay((unsigned long)((20)*(4000000/4000.0)));
  1515  01F5  301A               	movlw	26
  1516  01F6  1283               	bcf	3,5	;RP0=0, select bank0
  1517  01F7  1303               	bcf	3,6	;RP1=0, select bank0
  1518  01F8  00E9               	movwf	??_main+1
  1519  01F9  30F7               	movlw	247
  1520  01FA  00E8               	movwf	??_main
  1521  01FB                     u4127:	
  1522  01FB  0BE8               	decfsz	??_main,f
  1523  01FC  29FB               	goto	u4127
  1524  01FD  0BE9               	decfsz	??_main+1,f
  1525  01FE  29FB               	goto	u4127
  1526  01FF  2A00               	nop2
  1527  0200                     l3168:	
  1528                           
  1529                           ;LCD.c: 103:         initADC(1);
  1530  0200  3001               	movlw	1
  1531  0201  120A  158A  2241  120A  118A  	fcall	_initADC
  1532  0206                     l3170:	
  1533                           
  1534                           ;LCD.c: 104:         if(ready){
  1535  0206  1283               	bcf	3,5	;RP0=0, select bank0
  1536  0207  1303               	bcf	3,6	;RP1=0, select bank0
  1537  0208  086F               	movf	_ready,w
  1538  0209  1903               	btfsc	3,2
  1539  020A  2A0C               	goto	u4101
  1540  020B  2A0D               	goto	u4100
  1541  020C                     u4101:	
  1542  020C  2A2E               	goto	l3178
  1543  020D                     u4100:	
  1544  020D                     l3172:	
  1545                           
  1546                           ;LCD.c: 105:             adc2 = ADRESH;
  1547  020D  081E               	movf	30,w	;volatile
  1548  020E  00E8               	movwf	??_main
  1549  020F  01E9               	clrf	??_main+1
  1550  0210  01EA               	clrf	??_main+2
  1551  0211  01EB               	clrf	??_main+3
  1552  0212  086B               	movf	??_main+3,w
  1553  0213  00F5               	movwf	___xxtofl@val+3
  1554  0214  086A               	movf	??_main+2,w
  1555  0215  00F4               	movwf	___xxtofl@val+2
  1556  0216  0869               	movf	??_main+1,w
  1557  0217  00F3               	movwf	___xxtofl@val+1
  1558  0218  0868               	movf	??_main,w
  1559  0219  00F2               	movwf	___xxtofl@val
  1560  021A  3000               	movlw	0
  1561  021B  120A  158A  22DF  120A  118A  	fcall	___xxtofl
  1562  0220  0875               	movf	?___xxtofl+3,w
  1563  0221  1683               	bsf	3,5	;RP0=1, select bank1
  1564  0222  1303               	bcf	3,6	;RP1=0, select bank1
  1565  0223  00AB               	movwf	(_adc2+3)^(0+128)
  1566  0224  0874               	movf	?___xxtofl+2,w
  1567  0225  00AA               	movwf	(_adc2+2)^(0+128)
  1568  0226  0873               	movf	?___xxtofl+1,w
  1569  0227  00A9               	movwf	(_adc2+1)^(0+128)
  1570  0228  0872               	movf	?___xxtofl,w
  1571  0229  00A8               	movwf	_adc2^(0+128)
  1572  022A                     l3174:	
  1573                           
  1574                           ;LCD.c: 106:             ready = 0;
  1575  022A  1283               	bcf	3,5	;RP0=0, select bank0
  1576  022B  1303               	bcf	3,6	;RP1=0, select bank0
  1577  022C  01EF               	clrf	_ready
  1578  022D                     l3176:	
  1579                           
  1580                           ;LCD.c: 107:             ADCON0bits.GO_DONE = 1;
  1581  022D  149F               	bsf	31,1	;volatile
  1582  022E                     l3178:	
  1583                           
  1584                           ;LCD.c: 109:         adc2 = adc2 * 5/255;
  1585  022E  3043               	movlw	67
  1586  022F  00D1               	movwf	___fldiv@a+3
  1587  0230  307F               	movlw	127
  1588  0231  00D0               	movwf	___fldiv@a+2
  1589  0232  3000               	movlw	0
  1590  0233  00CF               	movwf	___fldiv@a+1
  1591  0234  3000               	movlw	0
  1592  0235  00CE               	movwf	___fldiv@a
  1593  0236  3040               	movlw	64
  1594  0237  00B7               	movwf	___flmul@b+3
  1595  0238  30A0               	movlw	160
  1596  0239  00B6               	movwf	___flmul@b+2
  1597  023A  3000               	movlw	0
  1598  023B  00B5               	movwf	___flmul@b+1
  1599  023C  3000               	movlw	0
  1600  023D  00B4               	movwf	___flmul@b
  1601  023E  1683               	bsf	3,5	;RP0=1, select bank1
  1602  023F  1303               	bcf	3,6	;RP1=0, select bank1
  1603  0240  082B               	movf	(_adc2+3)^(0+128),w
  1604  0241  1283               	bcf	3,5	;RP0=0, select bank0
  1605  0242  1303               	bcf	3,6	;RP1=0, select bank0
  1606  0243  00BB               	movwf	___flmul@a+3
  1607  0244  1683               	bsf	3,5	;RP0=1, select bank1
  1608  0245  1303               	bcf	3,6	;RP1=0, select bank1
  1609  0246  082A               	movf	(_adc2+2)^(0+128),w
  1610  0247  1283               	bcf	3,5	;RP0=0, select bank0
  1611  0248  1303               	bcf	3,6	;RP1=0, select bank0
  1612  0249  00BA               	movwf	___flmul@a+2
  1613  024A  1683               	bsf	3,5	;RP0=1, select bank1
  1614  024B  1303               	bcf	3,6	;RP1=0, select bank1
  1615  024C  0829               	movf	(_adc2+1)^(0+128),w
  1616  024D  1283               	bcf	3,5	;RP0=0, select bank0
  1617  024E  1303               	bcf	3,6	;RP1=0, select bank0
  1618  024F  00B9               	movwf	___flmul@a+1
  1619  0250  1683               	bsf	3,5	;RP0=1, select bank1
  1620  0251  1303               	bcf	3,6	;RP1=0, select bank1
  1621  0252  0828               	movf	_adc2^(0+128),w
  1622  0253  1283               	bcf	3,5	;RP0=0, select bank0
  1623  0254  1303               	bcf	3,6	;RP1=0, select bank0
  1624  0255  00B8               	movwf	___flmul@a
  1625  0256  120A  118A  2387  120A  118A  	fcall	___flmul
  1626  025B  1283               	bcf	3,5	;RP0=0, select bank0
  1627  025C  1303               	bcf	3,6	;RP1=0, select bank0
  1628  025D  0837               	movf	?___flmul+3,w
  1629  025E  00D5               	movwf	___fldiv@b+3
  1630  025F  0836               	movf	?___flmul+2,w
  1631  0260  00D4               	movwf	___fldiv@b+2
  1632  0261  0835               	movf	?___flmul+1,w
  1633  0262  00D3               	movwf	___fldiv@b+1
  1634  0263  0834               	movf	?___flmul,w
  1635  0264  00D2               	movwf	___fldiv@b
  1636  0265  120A  158A  239B  120A  118A  	fcall	___fldiv
  1637  026A  1283               	bcf	3,5	;RP0=0, select bank0
  1638  026B  1303               	bcf	3,6	;RP1=0, select bank0
  1639  026C  0851               	movf	?___fldiv+3,w
  1640  026D  1683               	bsf	3,5	;RP0=1, select bank1
  1641  026E  1303               	bcf	3,6	;RP1=0, select bank1
  1642  026F  00AB               	movwf	(_adc2+3)^(0+128)
  1643  0270  1283               	bcf	3,5	;RP0=0, select bank0
  1644  0271  1303               	bcf	3,6	;RP1=0, select bank0
  1645  0272  0850               	movf	?___fldiv+2,w
  1646  0273  1683               	bsf	3,5	;RP0=1, select bank1
  1647  0274  1303               	bcf	3,6	;RP1=0, select bank1
  1648  0275  00AA               	movwf	(_adc2+2)^(0+128)
  1649  0276  1283               	bcf	3,5	;RP0=0, select bank0
  1650  0277  1303               	bcf	3,6	;RP1=0, select bank0
  1651  0278  084F               	movf	?___fldiv+1,w
  1652  0279  1683               	bsf	3,5	;RP0=1, select bank1
  1653  027A  1303               	bcf	3,6	;RP1=0, select bank1
  1654  027B  00A9               	movwf	(_adc2+1)^(0+128)
  1655  027C  1283               	bcf	3,5	;RP0=0, select bank0
  1656  027D  1303               	bcf	3,6	;RP1=0, select bank0
  1657  027E  084E               	movf	?___fldiv,w
  1658  027F  1683               	bsf	3,5	;RP0=1, select bank1
  1659  0280  1303               	bcf	3,6	;RP1=0, select bank1
  1660  0281  00A8               	movwf	_adc2^(0+128)
  1661  0282                     l3180:	
  1662                           
  1663                           ;LCD.c: 110:         entero2 = adc2;
  1664  0282  082B               	movf	(_adc2+3)^(0+128),w
  1665  0283  00F5               	movwf	___fltol@f1+3
  1666  0284  082A               	movf	(_adc2+2)^(0+128),w
  1667  0285  00F4               	movwf	___fltol@f1+2
  1668  0286  0829               	movf	(_adc2+1)^(0+128),w
  1669  0287  00F3               	movwf	___fltol@f1+1
  1670  0288  0828               	movf	_adc2^(0+128),w
  1671  0289  00F2               	movwf	___fltol@f1
  1672  028A  120A  158A  21C5  120A  118A  	fcall	___fltol
  1673  028F  0872               	movf	?___fltol,w
  1674  0290  1283               	bcf	3,5	;RP0=0, select bank0
  1675  0291  1303               	bcf	3,6	;RP1=0, select bank0
  1676  0292  00E8               	movwf	??_main
  1677  0293  0868               	movf	??_main,w
  1678  0294  00FB               	movwf	_entero2
  1679  0295                     l3182:	
  1680                           
  1681                           ;LCD.c: 111:         decimal2 = (adc2 - entero2)*100;
  1682  0295  3042               	movlw	66
  1683  0296  00B7               	movwf	___flmul@b+3
  1684  0297  30C8               	movlw	200
  1685  0298  00B6               	movwf	___flmul@b+2
  1686  0299  3000               	movlw	0
  1687  029A  00B5               	movwf	___flmul@b+1
  1688  029B  3000               	movlw	0
  1689  029C  00B4               	movwf	___flmul@b
  1690  029D  087B               	movf	_entero2,w
  1691  029E  00E8               	movwf	??_main
  1692  029F  01E9               	clrf	??_main+1
  1693  02A0  01EA               	clrf	??_main+2
  1694  02A1  01EB               	clrf	??_main+3
  1695  02A2  086B               	movf	??_main+3,w
  1696  02A3  00F5               	movwf	___xxtofl@val+3
  1697  02A4  086A               	movf	??_main+2,w
  1698  02A5  00F4               	movwf	___xxtofl@val+2
  1699  02A6  0869               	movf	??_main+1,w
  1700  02A7  00F3               	movwf	___xxtofl@val+1
  1701  02A8  0868               	movf	??_main,w
  1702  02A9  00F2               	movwf	___xxtofl@val
  1703  02AA  3001               	movlw	1
  1704  02AB  120A  158A  22DF  120A  118A  	fcall	___xxtofl
  1705  02B0  0875               	movf	?___xxtofl+3,w
  1706  02B1  1283               	bcf	3,5	;RP0=0, select bank0
  1707  02B2  1303               	bcf	3,6	;RP1=0, select bank0
  1708  02B3  00AF               	movwf	___flsub@a+3
  1709  02B4  0874               	movf	?___xxtofl+2,w
  1710  02B5  00AE               	movwf	___flsub@a+2
  1711  02B6  0873               	movf	?___xxtofl+1,w
  1712  02B7  00AD               	movwf	___flsub@a+1
  1713  02B8  0872               	movf	?___xxtofl,w
  1714  02B9  00AC               	movwf	___flsub@a
  1715  02BA  1683               	bsf	3,5	;RP0=1, select bank1
  1716  02BB  1303               	bcf	3,6	;RP1=0, select bank1
  1717  02BC  082B               	movf	(_adc2+3)^(0+128),w
  1718  02BD  1283               	bcf	3,5	;RP0=0, select bank0
  1719  02BE  1303               	bcf	3,6	;RP1=0, select bank0
  1720  02BF  00B3               	movwf	___flsub@b+3
  1721  02C0  1683               	bsf	3,5	;RP0=1, select bank1
  1722  02C1  1303               	bcf	3,6	;RP1=0, select bank1
  1723  02C2  082A               	movf	(_adc2+2)^(0+128),w
  1724  02C3  1283               	bcf	3,5	;RP0=0, select bank0
  1725  02C4  1303               	bcf	3,6	;RP1=0, select bank0
  1726  02C5  00B2               	movwf	___flsub@b+2
  1727  02C6  1683               	bsf	3,5	;RP0=1, select bank1
  1728  02C7  1303               	bcf	3,6	;RP1=0, select bank1
  1729  02C8  0829               	movf	(_adc2+1)^(0+128),w
  1730  02C9  1283               	bcf	3,5	;RP0=0, select bank0
  1731  02CA  1303               	bcf	3,6	;RP1=0, select bank0
  1732  02CB  00B1               	movwf	___flsub@b+1
  1733  02CC  1683               	bsf	3,5	;RP0=1, select bank1
  1734  02CD  1303               	bcf	3,6	;RP1=0, select bank1
  1735  02CE  0828               	movf	_adc2^(0+128),w
  1736  02CF  1283               	bcf	3,5	;RP0=0, select bank0
  1737  02D0  1303               	bcf	3,6	;RP1=0, select bank0
  1738  02D1  00B0               	movwf	___flsub@b
  1739  02D2  120A  158A  204D  120A  118A  	fcall	___flsub
  1740  02D7  1283               	bcf	3,5	;RP0=0, select bank0
  1741  02D8  1303               	bcf	3,6	;RP1=0, select bank0
  1742  02D9  082F               	movf	?___flsub+3,w
  1743  02DA  00BB               	movwf	___flmul@a+3
  1744  02DB  082E               	movf	?___flsub+2,w
  1745  02DC  00BA               	movwf	___flmul@a+2
  1746  02DD  082D               	movf	?___flsub+1,w
  1747  02DE  00B9               	movwf	___flmul@a+1
  1748  02DF  082C               	movf	?___flsub,w
  1749  02E0  00B8               	movwf	___flmul@a
  1750  02E1  120A  118A  2387  120A  118A  	fcall	___flmul
  1751  02E6  1283               	bcf	3,5	;RP0=0, select bank0
  1752  02E7  1303               	bcf	3,6	;RP1=0, select bank0
  1753  02E8  0837               	movf	?___flmul+3,w
  1754  02E9  1683               	bsf	3,5	;RP0=1, select bank1
  1755  02EA  1303               	bcf	3,6	;RP1=0, select bank1
  1756  02EB  00A3               	movwf	(_decimal2+3)^(0+128)
  1757  02EC  1283               	bcf	3,5	;RP0=0, select bank0
  1758  02ED  1303               	bcf	3,6	;RP1=0, select bank0
  1759  02EE  0836               	movf	?___flmul+2,w
  1760  02EF  1683               	bsf	3,5	;RP0=1, select bank1
  1761  02F0  1303               	bcf	3,6	;RP1=0, select bank1
  1762  02F1  00A2               	movwf	(_decimal2+2)^(0+128)
  1763  02F2  1283               	bcf	3,5	;RP0=0, select bank0
  1764  02F3  1303               	bcf	3,6	;RP1=0, select bank0
  1765  02F4  0835               	movf	?___flmul+1,w
  1766  02F5  1683               	bsf	3,5	;RP0=1, select bank1
  1767  02F6  1303               	bcf	3,6	;RP1=0, select bank1
  1768  02F7  00A1               	movwf	(_decimal2+1)^(0+128)
  1769  02F8  1283               	bcf	3,5	;RP0=0, select bank0
  1770  02F9  1303               	bcf	3,6	;RP1=0, select bank0
  1771  02FA  0834               	movf	?___flmul,w
  1772  02FB  1683               	bsf	3,5	;RP0=1, select bank1
  1773  02FC  1303               	bcf	3,6	;RP1=0, select bank1
  1774  02FD  00A0               	movwf	_decimal2^(0+128)
  1775  02FE                     l3184:	
  1776                           
  1777                           ;LCD.c: 112:         decimale2 = decimal2;
  1778  02FE  0823               	movf	(_decimal2+3)^(0+128),w
  1779  02FF  00F5               	movwf	___fltol@f1+3
  1780  0300  0822               	movf	(_decimal2+2)^(0+128),w
  1781  0301  00F4               	movwf	___fltol@f1+2
  1782  0302  0821               	movf	(_decimal2+1)^(0+128),w
  1783  0303  00F3               	movwf	___fltol@f1+1
  1784  0304  0820               	movf	_decimal2^(0+128),w
  1785  0305  00F2               	movwf	___fltol@f1
  1786  0306  120A  158A  21C5  120A  118A  	fcall	___fltol
  1787  030B  0872               	movf	?___fltol,w
  1788  030C  1283               	bcf	3,5	;RP0=0, select bank0
  1789  030D  1303               	bcf	3,6	;RP1=0, select bank0
  1790  030E  00E8               	movwf	??_main
  1791  030F  0868               	movf	??_main,w
  1792  0310  00EC               	movwf	_decimale2
  1793  0311                     l3186:	
  1794                           
  1795                           ;LCD.c: 113:         send_float(adc2);
  1796  0311  1683               	bsf	3,5	;RP0=1, select bank1
  1797  0312  1303               	bcf	3,6	;RP1=0, select bank1
  1798  0313  082B               	movf	(_adc2+3)^(0+128),w
  1799  0314  1283               	bcf	3,5	;RP0=0, select bank0
  1800  0315  1303               	bcf	3,6	;RP1=0, select bank0
  1801  0316  00A8               	movwf	send_float@msg+3
  1802  0317  1683               	bsf	3,5	;RP0=1, select bank1
  1803  0318  1303               	bcf	3,6	;RP1=0, select bank1
  1804  0319  082A               	movf	(_adc2+2)^(0+128),w
  1805  031A  1283               	bcf	3,5	;RP0=0, select bank0
  1806  031B  1303               	bcf	3,6	;RP1=0, select bank0
  1807  031C  00A7               	movwf	send_float@msg+2
  1808  031D  1683               	bsf	3,5	;RP0=1, select bank1
  1809  031E  1303               	bcf	3,6	;RP1=0, select bank1
  1810  031F  0829               	movf	(_adc2+1)^(0+128),w
  1811  0320  1283               	bcf	3,5	;RP0=0, select bank0
  1812  0321  1303               	bcf	3,6	;RP1=0, select bank0
  1813  0322  00A6               	movwf	send_float@msg+1
  1814  0323  1683               	bsf	3,5	;RP0=1, select bank1
  1815  0324  1303               	bcf	3,6	;RP1=0, select bank1
  1816  0325  0828               	movf	_adc2^(0+128),w
  1817  0326  1283               	bcf	3,5	;RP0=0, select bank0
  1818  0327  1303               	bcf	3,6	;RP1=0, select bank0
  1819  0328  00A5               	movwf	send_float@msg
  1820  0329  160A  118A  27C8  120A  118A  	fcall	_send_float
  1821  032E                     l3188:	
  1822                           
  1823                           ;LCD.c: 114:         lcd_set_cursor(7,2);
  1824  032E  3002               	movlw	2
  1825  032F  1283               	bcf	3,5	;RP0=0, select bank0
  1826  0330  1303               	bcf	3,6	;RP1=0, select bank0
  1827  0331  00E8               	movwf	??_main
  1828  0332  0868               	movf	??_main,w
  1829  0333  00F5               	movwf	lcd_set_cursor@posy
  1830  0334  3007               	movlw	7
  1831  0335  120A  158A  2032  120A  118A  	fcall	_lcd_set_cursor
  1832  033A                     l3190:	
  1833                           
  1834                           ;LCD.c: 115:         lcd_write_int(entero2);
  1835  033A  087B               	movf	_entero2,w
  1836  033B  160A  118A  27E2  120A  118A  	fcall	_lcd_write_int
  1837  0340                     l3192:	
  1838                           
  1839                           ;LCD.c: 116:         lcd_write_char('.');
  1840  0340  302E               	movlw	46
  1841  0341  160A  118A  27B4  120A  118A  	fcall	_lcd_write_char
  1842  0346                     l3194:	
  1843                           
  1844                           ;LCD.c: 117:         if(decimale2 >= 10){
  1845  0346  300A               	movlw	10
  1846  0347  1283               	bcf	3,5	;RP0=0, select bank0
  1847  0348  1303               	bcf	3,6	;RP1=0, select bank0
  1848  0349  026C               	subwf	_decimale2,w
  1849  034A  1C03               	skipc
  1850  034B  2B4D               	goto	u4111
  1851  034C  2B4E               	goto	u4110
  1852  034D                     u4111:	
  1853  034D  2B5E               	goto	l3198
  1854  034E                     u4110:	
  1855  034E                     l3196:	
  1856                           
  1857                           ;LCD.c: 118:             lcd_write_int(decimale2);
  1858  034E  086C               	movf	_decimale2,w
  1859  034F  160A  118A  27E2  120A  118A  	fcall	_lcd_write_int
  1860                           
  1861                           ;LCD.c: 119:             lcd_write_string("V");
  1862  0354  3020               	movlw	(low ((STR_4-__stringbase)| (0+32768)))& (0+255)
  1863  0355  00F5               	movwf	lcd_write_string@var
  1864  0356  3080               	movlw	128
  1865  0357  00F6               	movwf	lcd_write_string@var+1
  1866  0358  120A  158A  2130  120A  118A  	fcall	_lcd_write_string
  1867                           
  1868                           ;LCD.c: 120:         }else{
  1869  035D  2B78               	goto	l3200
  1870  035E                     l3198:	
  1871                           
  1872                           ;LCD.c: 121:             lcd_write_string("0");
  1873  035E  301E               	movlw	(low ((STR_5-__stringbase)| (0+32768)))& (0+255)
  1874  035F  00F5               	movwf	lcd_write_string@var
  1875  0360  3080               	movlw	128
  1876  0361  00F6               	movwf	lcd_write_string@var+1
  1877  0362  120A  158A  2130  120A  118A  	fcall	_lcd_write_string
  1878                           
  1879                           ;LCD.c: 122:             lcd_write_int(decimale2);
  1880  0367  1283               	bcf	3,5	;RP0=0, select bank0
  1881  0368  1303               	bcf	3,6	;RP1=0, select bank0
  1882  0369  086C               	movf	_decimale2,w
  1883  036A  160A  118A  27E2  120A  118A  	fcall	_lcd_write_int
  1884                           
  1885                           ;LCD.c: 123:             lcd_write_string("V");
  1886  036F  3020               	movlw	(low ((STR_4-__stringbase)| (0+32768)))& (0+255)
  1887  0370  00F5               	movwf	lcd_write_string@var
  1888  0371  3080               	movlw	128
  1889  0372  00F6               	movwf	lcd_write_string@var+1
  1890  0373  120A  158A  2130  120A  118A  	fcall	_lcd_write_string
  1891  0378                     l3200:	
  1892                           
  1893                           ;LCD.c: 125:         _delay((unsigned long)((20)*(4000000/4000.0)));
  1894  0378  301A               	movlw	26
  1895  0379  1283               	bcf	3,5	;RP0=0, select bank0
  1896  037A  1303               	bcf	3,6	;RP1=0, select bank0
  1897  037B  00E9               	movwf	??_main+1
  1898  037C  30F7               	movlw	247
  1899  037D  00E8               	movwf	??_main
  1900  037E                     u4137:	
  1901  037E  0BE8               	decfsz	??_main,f
  1902  037F  2B7E               	goto	u4137
  1903  0380  0BE9               	decfsz	??_main+1,f
  1904  0381  2B7E               	goto	u4137
  1905  0382  2B83               	nop2
  1906  0383  287B               	goto	l3134
  1907  0384  120A  118A  280C   	ljmp	start
  1908  0387                     __end_of_main:	
  1909                           
  1910                           	psect	text1
  1911  17C8                     __ptext1:	
  1912 ;; *************** function _send_float *****************
  1913 ;; Defined at:
  1914 ;;		line 40 in file "Serial_Init.c"
  1915 ;; Parameters:    Size  Location     Type
  1916 ;;  msg             4    5[BANK0 ] float 
  1917 ;; Auto vars:     Size  Location     Type
  1918 ;;		None
  1919 ;; Return value:  Size  Location     Type
  1920 ;;                  1    wreg      void 
  1921 ;; Registers used:
  1922 ;;		wreg, status,2, status,0, pclath, cstack
  1923 ;; Tracked objects:
  1924 ;;		On entry : 0/0
  1925 ;;		On exit  : 0/0
  1926 ;;		Unchanged: 0/0
  1927 ;; Data sizes:     COMMON   BANK0   BANK1   BANK3   BANK2
  1928 ;;      Params:         0       4       0       0       0
  1929 ;;      Locals:         0       0       0       0       0
  1930 ;;      Temps:          0       0       0       0       0
  1931 ;;      Totals:         0       4       0       0       0
  1932 ;;Total ram usage:        4 bytes
  1933 ;; Hardware stack levels used:    1
  1934 ;; Hardware stack levels required when called:    2
  1935 ;; This function calls:
  1936 ;;		___fltol
  1937 ;; This function is called by:
  1938 ;;		_main
  1939 ;; This function uses a non-reentrant model
  1940 ;;
  1941                           
  1942                           
  1943                           ;psect for function _send_float
  1944  17C8                     _send_float:	
  1945  17C8                     l2960:	
  1946                           ;incstack = 0
  1947                           ; Regs used in _send_float: [wreg+status,2+status,0+pclath+cstack]
  1948                           
  1949  17C8                     l179:	
  1950                           ;Serial_Init.c: 42:     }
  1951                           
  1952                           
  1953                           ;Serial_Init.c: 41:     while (TXSTAbits.TRMT == 0){
  1954  17C8  1683               	bsf	3,5	;RP0=1, select bank1
  1955  17C9  1303               	bcf	3,6	;RP1=0, select bank1
  1956  17CA  1C98               	btfss	24,1	;volatile
  1957  17CB  2FCD               	goto	u3701
  1958  17CC  2FCE               	goto	u3700
  1959  17CD                     u3701:	
  1960  17CD  2FC8               	goto	l179
  1961  17CE                     u3700:	
  1962  17CE                     l2962:	
  1963                           
  1964                           ;Serial_Init.c: 43:     TXREG = msg;
  1965  17CE  1283               	bcf	3,5	;RP0=0, select bank0
  1966  17CF  1303               	bcf	3,6	;RP1=0, select bank0
  1967  17D0  0828               	movf	send_float@msg+3,w
  1968  17D1  00F5               	movwf	___fltol@f1+3
  1969  17D2  0827               	movf	send_float@msg+2,w
  1970  17D3  00F4               	movwf	___fltol@f1+2
  1971  17D4  0826               	movf	send_float@msg+1,w
  1972  17D5  00F3               	movwf	___fltol@f1+1
  1973  17D6  0825               	movf	send_float@msg,w
  1974  17D7  00F2               	movwf	___fltol@f1
  1975  17D8  120A  158A  21C5  160A  118A  	fcall	___fltol
  1976  17DD  0872               	movf	?___fltol,w
  1977  17DE  1283               	bcf	3,5	;RP0=0, select bank0
  1978  17DF  1303               	bcf	3,6	;RP1=0, select bank0
  1979  17E0  0099               	movwf	25	;volatile
  1980  17E1                     l182:	
  1981  17E1  0008               	return
  1982  17E2                     __end_of_send_float:	
  1983                           
  1984                           	psect	text2
  1985  09C5                     __ptext2:	
  1986 ;; *************** function ___fltol *****************
  1987 ;; Defined at:
  1988 ;;		line 43 in file "C:\Program Files (x86)\Microchip\xc8\v2.10\pic\sources\c90\common\fltol.c"
  1989 ;; Parameters:    Size  Location     Type
  1990 ;;  f1              4    2[COMMON] void 
  1991 ;; Auto vars:     Size  Location     Type
  1992 ;;  exp1            1    7[COMMON] unsigned char 
  1993 ;;  sign1           1    6[COMMON] unsigned char 
  1994 ;; Return value:  Size  Location     Type
  1995 ;;                  4    2[COMMON] long 
  1996 ;; Registers used:
  1997 ;;		wreg, status,2, status,0
  1998 ;; Tracked objects:
  1999 ;;		On entry : 0/0
  2000 ;;		On exit  : 0/0
  2001 ;;		Unchanged: 0/0
  2002 ;; Data sizes:     COMMON   BANK0   BANK1   BANK3   BANK2
  2003 ;;      Params:         4       0       0       0       0
  2004 ;;      Locals:         2       0       0       0       0
  2005 ;;      Temps:          0       5       0       0       0
  2006 ;;      Totals:         6       5       0       0       0
  2007 ;;Total ram usage:       11 bytes
  2008 ;; Hardware stack levels used:    1
  2009 ;; Hardware stack levels required when called:    1
  2010 ;; This function calls:
  2011 ;;		Nothing
  2012 ;; This function is called by:
  2013 ;;		_main
  2014 ;;		_send_float
  2015 ;; This function uses a non-reentrant model
  2016 ;;
  2017                           
  2018                           
  2019                           ;psect for function ___fltol
  2020  09C5                     ___fltol:	
  2021  09C5                     l2910:	
  2022                           ;incstack = 0
  2023                           ; Regs used in ___fltol: [wreg+status,2+status,0]
  2024                           
  2025  09C5  1003               	clrc
  2026  09C6  0D74               	rlf	___fltol@f1+2,w
  2027  09C7  0D75               	rlf	___fltol@f1+3,w
  2028  09C8  1283               	bcf	3,5	;RP0=0, select bank0
  2029  09C9  1303               	bcf	3,6	;RP1=0, select bank0
  2030  09CA  00A0               	movwf	??___fltol
  2031  09CB  0820               	movf	??___fltol,w
  2032  09CC  00F7               	movwf	___fltol@exp1
  2033  09CD  0877               	movf	___fltol@exp1,w
  2034  09CE  1D03               	btfss	3,2
  2035  09CF  29D1               	goto	u3571
  2036  09D0  29D2               	goto	u3570
  2037  09D1                     u3571:	
  2038  09D1  29DB               	goto	l2916
  2039  09D2                     u3570:	
  2040  09D2                     l2912:	
  2041  09D2  3000               	movlw	0
  2042  09D3  00F5               	movwf	?___fltol+3
  2043  09D4  3000               	movlw	0
  2044  09D5  00F4               	movwf	?___fltol+2
  2045  09D6  3000               	movlw	0
  2046  09D7  00F3               	movwf	?___fltol+1
  2047  09D8  3000               	movlw	0
  2048  09D9  00F2               	movwf	?___fltol
  2049  09DA  2A40               	goto	l482
  2050  09DB                     l2916:	
  2051  09DB  0872               	movf	___fltol@f1,w
  2052  09DC  00A0               	movwf	??___fltol
  2053  09DD  0873               	movf	___fltol@f1+1,w
  2054  09DE  00A1               	movwf	??___fltol+1
  2055  09DF  0874               	movf	___fltol@f1+2,w
  2056  09E0  00A2               	movwf	??___fltol+2
  2057  09E1  0875               	movf	___fltol@f1+3,w
  2058  09E2  00A3               	movwf	??___fltol+3
  2059  09E3  301F               	movlw	31
  2060  09E4                     u3585:	
  2061  09E4  1003               	clrc
  2062  09E5  0CA3               	rrf	??___fltol+3,f
  2063  09E6  0CA2               	rrf	??___fltol+2,f
  2064  09E7  0CA1               	rrf	??___fltol+1,f
  2065  09E8  0CA0               	rrf	??___fltol,f
  2066  09E9                     u3580:	
  2067  09E9  3EFF               	addlw	-1
  2068  09EA  1D03               	skipz
  2069  09EB  29E4               	goto	u3585
  2070  09EC  0820               	movf	??___fltol,w
  2071  09ED  00A4               	movwf	??___fltol+4
  2072  09EE  0824               	movf	??___fltol+4,w
  2073  09EF  00F6               	movwf	___fltol@sign1
  2074  09F0                     l2918:	
  2075  09F0  17F4               	bsf	___fltol@f1+2,7
  2076  09F1                     l2920:	
  2077  09F1  30FF               	movlw	255
  2078  09F2  05F2               	andwf	___fltol@f1,f
  2079  09F3  30FF               	movlw	255
  2080  09F4  05F3               	andwf	___fltol@f1+1,f
  2081  09F5  30FF               	movlw	255
  2082  09F6  05F4               	andwf	___fltol@f1+2,f
  2083  09F7  3000               	movlw	0
  2084  09F8  05F5               	andwf	___fltol@f1+3,f
  2085  09F9                     l2922:	
  2086  09F9  3096               	movlw	150
  2087  09FA  02F7               	subwf	___fltol@exp1,f
  2088  09FB                     l2924:	
  2089  09FB  1FF7               	btfss	___fltol@exp1,7
  2090  09FC  29FE               	goto	u3591
  2091  09FD  29FF               	goto	u3590
  2092  09FE                     u3591:	
  2093  09FE  2A19               	goto	l2934
  2094  09FF                     u3590:	
  2095  09FF                     l2926:	
  2096  09FF  0877               	movf	___fltol@exp1,w
  2097  0A00  3A80               	xorlw	128
  2098  0A01  3E97               	addlw	151
  2099  0A02  1803               	skipnc
  2100  0A03  2A05               	goto	u3601
  2101  0A04  2A06               	goto	u3600
  2102  0A05                     u3601:	
  2103  0A05  2A07               	goto	l2932
  2104  0A06                     u3600:	
  2105  0A06  29D2               	goto	l2912
  2106  0A07                     l2932:	
  2107  0A07  3001               	movlw	1
  2108  0A08                     u3615:	
  2109  0A08  1003               	clrc
  2110  0A09  0CF5               	rrf	___fltol@f1+3,f
  2111  0A0A  0CF4               	rrf	___fltol@f1+2,f
  2112  0A0B  0CF3               	rrf	___fltol@f1+1,f
  2113  0A0C  0CF2               	rrf	___fltol@f1,f
  2114  0A0D  3EFF               	addlw	-1
  2115  0A0E  1D03               	skipz
  2116  0A0F  2A08               	goto	u3615
  2117  0A10  3001               	movlw	1
  2118  0A11  00A0               	movwf	??___fltol
  2119  0A12  0820               	movf	??___fltol,w
  2120  0A13  07F7               	addwf	___fltol@exp1,f
  2121  0A14  1D03               	btfss	3,2
  2122  0A15  2A17               	goto	u3621
  2123  0A16  2A18               	goto	u3620
  2124  0A17                     u3621:	
  2125  0A17  2A07               	goto	l2932
  2126  0A18                     u3620:	
  2127  0A18  2A30               	goto	l2942
  2128  0A19                     l2934:	
  2129  0A19  3020               	movlw	32
  2130  0A1A  0277               	subwf	___fltol@exp1,w
  2131  0A1B  1C03               	skipc
  2132  0A1C  2A1E               	goto	u3631
  2133  0A1D  2A1F               	goto	u3630
  2134  0A1E                     u3631:	
  2135  0A1E  2A2B               	goto	l489
  2136  0A1F                     u3630:	
  2137  0A1F  29D2               	goto	l2912
  2138  0A20                     l2940:	
  2139  0A20  3001               	movlw	1
  2140  0A21  00A0               	movwf	??___fltol
  2141  0A22                     u3645:	
  2142  0A22  1003               	clrc
  2143  0A23  0DF2               	rlf	___fltol@f1,f
  2144  0A24  0DF3               	rlf	___fltol@f1+1,f
  2145  0A25  0DF4               	rlf	___fltol@f1+2,f
  2146  0A26  0DF5               	rlf	___fltol@f1+3,f
  2147  0A27  0BA0               	decfsz	??___fltol,f
  2148  0A28  2A22               	goto	u3645
  2149  0A29  3001               	movlw	1
  2150  0A2A  02F7               	subwf	___fltol@exp1,f
  2151  0A2B                     l489:	
  2152  0A2B  0877               	movf	___fltol@exp1,w
  2153  0A2C  1D03               	btfss	3,2
  2154  0A2D  2A2F               	goto	u3651
  2155  0A2E  2A30               	goto	u3650
  2156  0A2F                     u3651:	
  2157  0A2F  2A20               	goto	l2940
  2158  0A30                     u3650:	
  2159  0A30                     l2942:	
  2160  0A30  0876               	movf	___fltol@sign1,w
  2161  0A31  1903               	btfsc	3,2
  2162  0A32  2A34               	goto	u3661
  2163  0A33  2A35               	goto	u3660
  2164  0A34                     u3661:	
  2165  0A34  2A40               	goto	l492
  2166  0A35                     u3660:	
  2167  0A35                     l2944:	
  2168  0A35  09F2               	comf	___fltol@f1,f
  2169  0A36  09F3               	comf	___fltol@f1+1,f
  2170  0A37  09F4               	comf	___fltol@f1+2,f
  2171  0A38  09F5               	comf	___fltol@f1+3,f
  2172  0A39  0AF2               	incf	___fltol@f1,f
  2173  0A3A  1903               	skipnz
  2174  0A3B  0AF3               	incf	___fltol@f1+1,f
  2175  0A3C  1903               	skipnz
  2176  0A3D  0AF4               	incf	___fltol@f1+2,f
  2177  0A3E  1903               	skipnz
  2178  0A3F  0AF5               	incf	___fltol@f1+3,f
  2179  0A40                     l492:	
  2180  0A40                     l482:	
  2181  0A40  0008               	return
  2182  0A41                     __end_of___fltol:	
  2183                           
  2184                           	psect	text3
  2185  17E2                     __ptext3:	
  2186 ;; *************** function _lcd_write_int *****************
  2187 ;; Defined at:
  2188 ;;		line 65 in file "LCD_Init.c"
  2189 ;; Parameters:    Size  Location     Type
  2190 ;;  numero          1    wreg     unsigned char 
  2191 ;; Auto vars:     Size  Location     Type
  2192 ;;  numero          1   26[BANK0 ] unsigned char 
  2193 ;;  buffer          4   22[BANK0 ] unsigned char [4]
  2194 ;; Return value:  Size  Location     Type
  2195 ;;                  1    wreg      void 
  2196 ;; Registers used:
  2197 ;;		wreg, fsr0l, fsr0h, status,2, status,0, btemp+1, pclath, cstack
  2198 ;; Tracked objects:
  2199 ;;		On entry : 0/0
  2200 ;;		On exit  : 0/0
  2201 ;;		Unchanged: 0/0
  2202 ;; Data sizes:     COMMON   BANK0   BANK1   BANK3   BANK2
  2203 ;;      Params:         0       0       0       0       0
  2204 ;;      Locals:         0       5       0       0       0
  2205 ;;      Temps:          0       3       0       0       0
  2206 ;;      Totals:         0       8       0       0       0
  2207 ;;Total ram usage:        8 bytes
  2208 ;; Hardware stack levels used:    1
  2209 ;; Hardware stack levels required when called:    3
  2210 ;; This function calls:
  2211 ;;		_lcd_write_string
  2212 ;;		_sprintf
  2213 ;; This function is called by:
  2214 ;;		_main
  2215 ;; This function uses a non-reentrant model
  2216 ;;
  2217                           
  2218                           
  2219                           ;psect for function _lcd_write_int
  2220  17E2                     _lcd_write_int:	
  2221                           
  2222                           ;incstack = 0
  2223                           ; Regs used in _lcd_write_int: [wreg-fsr0h+status,2+status,0+btemp+1+pclath+cstack]
  2224                           ;lcd_write_int@numero stored from wreg
  2225  17E2  1283               	bcf	3,5	;RP0=0, select bank0
  2226  17E3  1303               	bcf	3,6	;RP1=0, select bank0
  2227  17E4  00BA               	movwf	lcd_write_int@numero
  2228  17E5                     l2964:	
  2229                           
  2230                           ;LCD_Init.c: 66:     char buffer [4];;LCD_Init.c: 67:     sprintf (buffer, "%d", numero)
      +                          ;
  2231  17E5  301B               	movlw	(low ((STR_10-__stringbase)| (0+32768)))& (0+255)
  2232  17E6  00B3               	movwf	??_lcd_write_int
  2233  17E7  0833               	movf	??_lcd_write_int,w
  2234  17E8  00A6               	movwf	sprintf@f
  2235  17E9  083A               	movf	lcd_write_int@numero,w
  2236  17EA  00B4               	movwf	??_lcd_write_int+1
  2237  17EB  01B5               	clrf	??_lcd_write_int+2
  2238  17EC  0834               	movf	??_lcd_write_int+1,w
  2239  17ED  00A7               	movwf	?_sprintf+1
  2240  17EE  0835               	movf	??_lcd_write_int+2,w
  2241  17EF  00A8               	movwf	?_sprintf+2
  2242  17F0  3036               	movlw	(low (lcd_write_int@buffer| 0))& (0+255)
  2243  17F1  120A  118A  26E8  160A  118A  	fcall	_sprintf
  2244                           
  2245                           ;LCD_Init.c: 68:     lcd_write_string(buffer);
  2246  17F6  3036               	movlw	(low (lcd_write_int@buffer| 0))& (0+255)
  2247  17F7  00F5               	movwf	lcd_write_string@var
  2248  17F8  3000               	movlw	0
  2249  17F9  00F6               	movwf	lcd_write_string@var+1
  2250  17FA  120A  158A  2130  160A  118A  	fcall	_lcd_write_string
  2251  17FF                     l122:	
  2252  17FF  0008               	return
  2253  1800                     __end_of_lcd_write_int:	
  2254                           
  2255                           	psect	text4
  2256  06E8                     __ptext4:	
  2257 ;; *************** function _sprintf *****************
  2258 ;; Defined at:
  2259 ;;		line 505 in file "C:\Program Files (x86)\Microchip\xc8\v2.10\pic\sources\c90\common\doprnt.c"
  2260 ;; Parameters:    Size  Location     Type
  2261 ;;  sp              1    wreg     PTR unsigned char 
  2262 ;;		 -> lcd_write_int@buffer(4), 
  2263 ;;  f               1    6[BANK0 ] PTR const unsigned char 
  2264 ;;		 -> STR_10(3), 
  2265 ;; Auto vars:     Size  Location     Type
  2266 ;;  sp              1   17[BANK0 ] PTR unsigned char 
  2267 ;;		 -> lcd_write_int@buffer(4), 
  2268 ;;  tmpval          4    0        struct .
  2269 ;;  val             2   15[BANK0 ] unsigned int 
  2270 ;;  cp              2    0        PTR const unsigned char 
  2271 ;;  len             2    0        unsigned int 
  2272 ;;  c               1   18[BANK0 ] unsigned char 
  2273 ;;  prec            1   14[BANK0 ] char 
  2274 ;;  flag            1   13[BANK0 ] unsigned char 
  2275 ;;  ap              1   12[BANK0 ] PTR void [1]
  2276 ;;		 -> ?_sprintf(2), 
  2277 ;; Return value:  Size  Location     Type
  2278 ;;                  2    6[BANK0 ] int 
  2279 ;; Registers used:
  2280 ;;		wreg, fsr0l, fsr0h, status,2, status,0, btemp+1, pclath, cstack
  2281 ;; Tracked objects:
  2282 ;;		On entry : 0/0
  2283 ;;		On exit  : 0/0
  2284 ;;		Unchanged: 0/0
  2285 ;; Data sizes:     COMMON   BANK0   BANK1   BANK3   BANK2
  2286 ;;      Params:         0       3       0       0       0
  2287 ;;      Locals:         0       7       0       0       0
  2288 ;;      Temps:          0       3       0       0       0
  2289 ;;      Totals:         0      13       0       0       0
  2290 ;;Total ram usage:       13 bytes
  2291 ;; Hardware stack levels used:    1
  2292 ;; Hardware stack levels required when called:    2
  2293 ;; This function calls:
  2294 ;;		___lwdiv
  2295 ;;		___lwmod
  2296 ;; This function is called by:
  2297 ;;		_lcd_write_int
  2298 ;; This function uses a non-reentrant model
  2299 ;;
  2300                           
  2301                           
  2302                           ;psect for function _sprintf
  2303  06E8                     _sprintf:	
  2304                           
  2305                           ;incstack = 0
  2306                           ; Regs used in _sprintf: [wreg-fsr0h+status,2+status,0+btemp+1+pclath+cstack]
  2307                           ;sprintf@sp stored from wreg
  2308  06E8  1283               	bcf	3,5	;RP0=0, select bank0
  2309  06E9  1303               	bcf	3,6	;RP1=0, select bank0
  2310  06EA  00B1               	movwf	sprintf@sp
  2311  06EB                     l2848:	
  2312                           
  2313                           ;C:\Program Files (x86)\Microchip\xc8\v2.10\pic\sources\c90\common\doprnt.c: 505: sprint
      +                          f(char * sp, const char * f, ...);C:\Program Files (x86)\Microchip\xc8\v2.10\pic\sources
      +                          \c90\common\doprnt.c: 506: {;C:\Program Files (x86)\Microchip\xc8\v2.10\pic\sources\c90\
      +                          common\doprnt.c: 507:  va_list ap;;C:\Program Files (x86)\Microchip\xc8\v2.10\pic\source
      +                          s\c90\common\doprnt.c: 512:  char c;;C:\Program Files (x86)\Microchip\xc8\v2.10\pic\sour
      +                          ces\c90\common\doprnt.c: 521:  signed char prec;;C:\Program Files (x86)\Microchip\xc8\v2
      +                          .10\pic\sources\c90\common\doprnt.c: 525:  unsigned char flag;
  2314  06EB  3027               	movlw	(low ((?_sprintf| 0+1)))& (0+255)
  2315  06EC  00A9               	movwf	??_sprintf
  2316  06ED  0829               	movf	??_sprintf,w
  2317  06EE  00AC               	movwf	sprintf@ap
  2318                           
  2319                           ;C:\Program Files (x86)\Microchip\xc8\v2.10\pic\sources\c90\common\doprnt.c: 553:  while
      +                          ((c = *f++)) {
  2320  06EF  2FBB               	goto	l2900
  2321  06F0                     l2850:	
  2322                           
  2323                           ;C:\Program Files (x86)\Microchip\xc8\v2.10\pic\sources\c90\common\doprnt.c: 555:   if(c
      +                           != '%')
  2324  06F0  3025               	movlw	37
  2325  06F1  0632               	xorwf	sprintf@c,w
  2326  06F2  1903               	btfsc	3,2
  2327  06F3  2EF5               	goto	u3501
  2328  06F4  2EF6               	goto	u3500
  2329  06F5                     u3501:	
  2330  06F5  2F02               	goto	l2856
  2331  06F6                     u3500:	
  2332  06F6                     l2852:	
  2333                           
  2334                           ;C:\Program Files (x86)\Microchip\xc8\v2.10\pic\sources\c90\common\doprnt.c: 557:   {;C:
      +                          \Program Files (x86)\Microchip\xc8\v2.10\pic\sources\c90\common\doprnt.c: 558:    ((*sp+
      +                          + = (c)));
  2335  06F6  0832               	movf	sprintf@c,w
  2336  06F7  00A9               	movwf	??_sprintf
  2337  06F8  0831               	movf	sprintf@sp,w
  2338  06F9  0084               	movwf	4
  2339  06FA  0829               	movf	??_sprintf,w
  2340  06FB  1383               	bcf	3,7	;select IRP bank0
  2341  06FC  0080               	movwf	0
  2342  06FD                     l2854:	
  2343  06FD  3001               	movlw	1
  2344  06FE  00A9               	movwf	??_sprintf
  2345  06FF  0829               	movf	??_sprintf,w
  2346  0700  07B1               	addwf	sprintf@sp,f
  2347                           
  2348                           ;C:\Program Files (x86)\Microchip\xc8\v2.10\pic\sources\c90\common\doprnt.c: 559:    con
      +                          tinue;
  2349  0701  2FBB               	goto	l2900
  2350  0702                     l2856:	
  2351                           
  2352                           ;C:\Program Files (x86)\Microchip\xc8\v2.10\pic\sources\c90\common\doprnt.c: 565:   flag
      +                           = 0;
  2353  0702  01AD               	clrf	sprintf@flag
  2354  0703                     l2860:	
  2355                           ;C:\Program Files (x86)\Microchip\xc8\v2.10\pic\sources\c90\common\doprnt.c: 661:   swit
      +                          ch(c = *f++) {
  2356                           
  2357  0703  3001               	movlw	1
  2358  0704  07A6               	addwf	sprintf@f,f
  2359  0705  30FF               	movlw	-1
  2360  0706  0726               	addwf	sprintf@f,w
  2361  0707  0084               	movwf	4
  2362  0708  120A  158A  200A  120A  118A  	fcall	stringdir
  2363  070D  00B2               	movwf	sprintf@c
  2364  070E  00A9               	movwf	??_sprintf
  2365  070F  01AA               	clrf	??_sprintf+1
  2366                           
  2367                           ; Switch on 2 bytes has been partitioned into a top level switch of size 1, and 1 sub-sw
      +                          itches
  2368                           ; Switch size 1, requested type "simple"
  2369                           ; Number of cases is 1, Range of values is 0 to 0
  2370                           ; switch strategies available:
  2371                           ; Name         Instructions Cycles
  2372                           ; simple_byte            4     3 (average)
  2373                           ; direct_byte           11     8 (fixed)
  2374                           ; jumptable            260     6 (fixed)
  2375                           ;	Chosen strategy is simple_byte
  2376  0710  082A               	movf	??_sprintf+1,w
  2377  0711  3A00               	xorlw	0	; case 0
  2378  0712  1903               	skipnz
  2379  0713  2F15               	goto	l3322
  2380  0714  2FBB               	goto	l2900
  2381  0715                     l3322:	
  2382                           
  2383                           ; Switch size 1, requested type "simple"
  2384                           ; Number of cases is 3, Range of values is 0 to 105
  2385                           ; switch strategies available:
  2386                           ; Name         Instructions Cycles
  2387                           ; simple_byte           10     6 (average)
  2388                           ; jumptable            260     6 (fixed)
  2389                           ;	Chosen strategy is simple_byte
  2390  0715  0829               	movf	??_sprintf,w
  2391  0716  3A00               	xorlw	0	; case 0
  2392  0717  1903               	skipnz
  2393  0718  2FCD               	goto	l2902
  2394  0719  3A64               	xorlw	100	; case 100
  2395  071A  1903               	skipnz
  2396  071B  2F20               	goto	l2862
  2397  071C  3A0D               	xorlw	13	; case 105
  2398  071D  1903               	skipnz
  2399  071E  2F20               	goto	l2862
  2400  071F  2FBB               	goto	l2900
  2401  0720                     l2862:	
  2402                           
  2403                           ;C:\Program Files (x86)\Microchip\xc8\v2.10\pic\sources\c90\common\doprnt.c: 1279:   {;C
      +                          :\Program Files (x86)\Microchip\xc8\v2.10\pic\sources\c90\common\doprnt.c: 1285:     val
      +                           = (unsigned int)(*(int *)__va_arg((*(int **)ap), (int)0));
  2404  0720  082C               	movf	sprintf@ap,w
  2405  0721  0084               	movwf	4
  2406  0722  1383               	bcf	3,7	;select IRP bank0
  2407  0723  0800               	movf	0,w
  2408  0724  00AF               	movwf	sprintf@val
  2409  0725  0A84               	incf	4,f
  2410  0726  0800               	movf	0,w
  2411  0727  00B0               	movwf	sprintf@val+1
  2412  0728                     l2864:	
  2413  0728  3002               	movlw	2
  2414  0729  00A9               	movwf	??_sprintf
  2415  072A  0829               	movf	??_sprintf,w
  2416  072B  07AC               	addwf	sprintf@ap,f
  2417  072C                     l2866:	
  2418                           
  2419                           ;C:\Program Files (x86)\Microchip\xc8\v2.10\pic\sources\c90\common\doprnt.c: 1287:    if
      +                          ((int)val < 0) {
  2420  072C  1FB0               	btfss	sprintf@val+1,7
  2421  072D  2F2F               	goto	u3511
  2422  072E  2F30               	goto	u3510
  2423  072F                     u3511:	
  2424  072F  2F39               	goto	l2872
  2425  0730                     u3510:	
  2426  0730                     l2868:	
  2427                           
  2428                           ;C:\Program Files (x86)\Microchip\xc8\v2.10\pic\sources\c90\common\doprnt.c: 1288:     f
      +                          lag |= 0x03;
  2429  0730  3003               	movlw	3
  2430  0731  00A9               	movwf	??_sprintf
  2431  0732  0829               	movf	??_sprintf,w
  2432  0733  04AD               	iorwf	sprintf@flag,f
  2433  0734                     l2870:	
  2434                           
  2435                           ;C:\Program Files (x86)\Microchip\xc8\v2.10\pic\sources\c90\common\doprnt.c: 1289:     v
      +                          al = -val;
  2436  0734  09AF               	comf	sprintf@val,f
  2437  0735  09B0               	comf	sprintf@val+1,f
  2438  0736  0AAF               	incf	sprintf@val,f
  2439  0737  1903               	skipnz
  2440  0738  0AB0               	incf	sprintf@val+1,f
  2441  0739                     l2872:	
  2442                           
  2443                           ;C:\Program Files (x86)\Microchip\xc8\v2.10\pic\sources\c90\common\doprnt.c: 1292:   };C
      +                          :\Program Files (x86)\Microchip\xc8\v2.10\pic\sources\c90\common\doprnt.c: 1331:    for(
      +                          c = 1 ; c != sizeof dpowers/sizeof dpowers[0] ; c++)
  2444  0739  01B2               	clrf	sprintf@c
  2445  073A  0AB2               	incf	sprintf@c,f
  2446  073B                     l2878:	
  2447                           
  2448                           ;C:\Program Files (x86)\Microchip\xc8\v2.10\pic\sources\c90\common\doprnt.c: 1332:     i
      +                          f(val < dpowers[c])
  2449  073B  0832               	movf	sprintf@c,w
  2450  073C  00A9               	movwf	??_sprintf
  2451  073D  0729               	addwf	??_sprintf,w
  2452  073E  3E01               	addlw	low ((_dpowers-__stringbase)| (0+32768))
  2453  073F  0084               	movwf	4
  2454  0740  120A  158A  200A  120A  118A  	fcall	stringdir
  2455  0745  00AA               	movwf	??_sprintf+1
  2456  0746  120A  158A  200A  120A  118A  	fcall	stringdir
  2457  074B  00AB               	movwf	??_sprintf+2
  2458  074C  082B               	movf	??_sprintf+2,w
  2459  074D  0230               	subwf	sprintf@val+1,w
  2460  074E  1D03               	skipz
  2461  074F  2F52               	goto	u3525
  2462  0750  082A               	movf	??_sprintf+1,w
  2463  0751  022F               	subwf	sprintf@val,w
  2464  0752                     u3525:	
  2465  0752  1803               	skipnc
  2466  0753  2F55               	goto	u3521
  2467  0754  2F56               	goto	u3520
  2468  0755                     u3521:	
  2469  0755  2F57               	goto	l2882
  2470  0756                     u3520:	
  2471  0756  2F61               	goto	l2884
  2472  0757                     l2882:	
  2473  0757  3001               	movlw	1
  2474  0758  00A9               	movwf	??_sprintf
  2475  0759  0829               	movf	??_sprintf,w
  2476  075A  07B2               	addwf	sprintf@c,f
  2477  075B  3005               	movlw	5
  2478  075C  0632               	xorwf	sprintf@c,w
  2479  075D  1D03               	btfss	3,2
  2480  075E  2F60               	goto	u3531
  2481  075F  2F61               	goto	u3530
  2482  0760                     u3531:	
  2483  0760  2F3B               	goto	l2878
  2484  0761                     u3530:	
  2485  0761                     l2884:	
  2486                           
  2487                           ;C:\Program Files (x86)\Microchip\xc8\v2.10\pic\sources\c90\common\doprnt.c: 1448:   {;C
      +                          :\Program Files (x86)\Microchip\xc8\v2.10\pic\sources\c90\common\doprnt.c: 1464:    if(f
      +                          lag & 0x03)
  2488  0761  082D               	movf	sprintf@flag,w
  2489  0762  3903               	andlw	3
  2490  0763  1903               	btfsc	3,2
  2491  0764  2F66               	goto	u3541
  2492  0765  2F67               	goto	u3540
  2493  0766                     u3541:	
  2494  0766  2F72               	goto	l2890
  2495  0767                     u3540:	
  2496  0767                     l2886:	
  2497                           
  2498                           ;C:\Program Files (x86)\Microchip\xc8\v2.10\pic\sources\c90\common\doprnt.c: 1465:     (
      +                          (*sp++ = ('-')));
  2499  0767  302D               	movlw	45
  2500  0768  00A9               	movwf	??_sprintf
  2501  0769  0831               	movf	sprintf@sp,w
  2502  076A  0084               	movwf	4
  2503  076B  0829               	movf	??_sprintf,w
  2504  076C  1383               	bcf	3,7	;select IRP bank0
  2505  076D  0080               	movwf	0
  2506  076E                     l2888:	
  2507  076E  3001               	movlw	1
  2508  076F  00A9               	movwf	??_sprintf
  2509  0770  0829               	movf	??_sprintf,w
  2510  0771  07B1               	addwf	sprintf@sp,f
  2511  0772                     l2890:	
  2512                           
  2513                           ;C:\Program Files (x86)\Microchip\xc8\v2.10\pic\sources\c90\common\doprnt.c: 1495:   };C
      +                          :\Program Files (x86)\Microchip\xc8\v2.10\pic\sources\c90\common\doprnt.c: 1498:   prec 
      +                          = c;
  2514  0772  0832               	movf	sprintf@c,w
  2515  0773  00A9               	movwf	??_sprintf
  2516  0774  0829               	movf	??_sprintf,w
  2517  0775  00AE               	movwf	sprintf@prec
  2518                           
  2519                           ;C:\Program Files (x86)\Microchip\xc8\v2.10\pic\sources\c90\common\doprnt.c: 1500:   whi
      +                          le(prec--) {
  2520  0776  2FB2               	goto	l2898
  2521  0777                     l2892:	
  2522                           
  2523                           ;C:\Program Files (x86)\Microchip\xc8\v2.10\pic\sources\c90\common\doprnt.c: 1504:    {;
      +                          C:\Program Files (x86)\Microchip\xc8\v2.10\pic\sources\c90\common\doprnt.c: 1515:     c 
      +                          = (val / dpowers[(unsigned char)prec]) % 10 + '0';
  2524  0777  300A               	movlw	10
  2525  0778  00A0               	movwf	___lwmod@divisor
  2526  0779  3000               	movlw	0
  2527  077A  00A1               	movwf	___lwmod@divisor+1
  2528  077B  082E               	movf	sprintf@prec,w
  2529  077C  00A9               	movwf	??_sprintf
  2530  077D  0729               	addwf	??_sprintf,w
  2531  077E  3E01               	addlw	low ((_dpowers-__stringbase)| (0+32768))
  2532  077F  0084               	movwf	4
  2533  0780  120A  158A  200A  120A  118A  	fcall	stringdir
  2534  0785  00F2               	movwf	___lwdiv@divisor
  2535  0786  120A  158A  200A  120A  118A  	fcall	stringdir
  2536  078B  00F3               	movwf	___lwdiv@divisor+1
  2537  078C  0830               	movf	sprintf@val+1,w
  2538  078D  00F5               	movwf	___lwdiv@dividend+1
  2539  078E  082F               	movf	sprintf@val,w
  2540  078F  00F4               	movwf	___lwdiv@dividend
  2541  0790  120A  158A  20EC  120A  118A  	fcall	___lwdiv
  2542  0795  0873               	movf	?___lwdiv+1,w
  2543  0796  1283               	bcf	3,5	;RP0=0, select bank0
  2544  0797  1303               	bcf	3,6	;RP1=0, select bank0
  2545  0798  00A3               	movwf	___lwmod@dividend+1
  2546  0799  0872               	movf	?___lwdiv,w
  2547  079A  00A2               	movwf	___lwmod@dividend
  2548  079B  120A  158A  2071  120A  118A  	fcall	___lwmod
  2549  07A0  1283               	bcf	3,5	;RP0=0, select bank0
  2550  07A1  1303               	bcf	3,6	;RP1=0, select bank0
  2551  07A2  0820               	movf	?___lwmod,w
  2552  07A3  3E30               	addlw	48
  2553  07A4  00AA               	movwf	??_sprintf+1
  2554  07A5  082A               	movf	??_sprintf+1,w
  2555  07A6  00B2               	movwf	sprintf@c
  2556  07A7                     l2894:	
  2557                           
  2558                           ;C:\Program Files (x86)\Microchip\xc8\v2.10\pic\sources\c90\common\doprnt.c: 1549:    };
      +                          C:\Program Files (x86)\Microchip\xc8\v2.10\pic\sources\c90\common\doprnt.c: 1550:    ((*
      +                          sp++ = (c)));
  2559  07A7  0832               	movf	sprintf@c,w
  2560  07A8  00A9               	movwf	??_sprintf
  2561  07A9  0831               	movf	sprintf@sp,w
  2562  07AA  0084               	movwf	4
  2563  07AB  0829               	movf	??_sprintf,w
  2564  07AC  1383               	bcf	3,7	;select IRP bank0
  2565  07AD  0080               	movwf	0
  2566  07AE                     l2896:	
  2567  07AE  3001               	movlw	1
  2568  07AF  00A9               	movwf	??_sprintf
  2569  07B0  0829               	movf	??_sprintf,w
  2570  07B1  07B1               	addwf	sprintf@sp,f
  2571  07B2                     l2898:	
  2572                           
  2573                           ;C:\Program Files (x86)\Microchip\xc8\v2.10\pic\sources\c90\common\doprnt.c: 1500:   whi
      +                          le(prec--) {
  2574  07B2  30FF               	movlw	255
  2575  07B3  00A9               	movwf	??_sprintf
  2576  07B4  0829               	movf	??_sprintf,w
  2577  07B5  07AE               	addwf	sprintf@prec,f
  2578  07B6  0A2E               	incf	sprintf@prec,w
  2579  07B7  1D03               	btfss	3,2
  2580  07B8  2FBA               	goto	u3551
  2581  07B9  2FBB               	goto	u3550
  2582  07BA                     u3551:	
  2583  07BA  2F77               	goto	l2892
  2584  07BB                     u3550:	
  2585  07BB                     l2900:	
  2586                           
  2587                           ;C:\Program Files (x86)\Microchip\xc8\v2.10\pic\sources\c90\common\doprnt.c: 553:  while
      +                          ((c = *f++)) {
  2588  07BB  3001               	movlw	1
  2589  07BC  07A6               	addwf	sprintf@f,f
  2590  07BD  30FF               	movlw	-1
  2591  07BE  0726               	addwf	sprintf@f,w
  2592  07BF  0084               	movwf	4
  2593  07C0  120A  158A  200A  120A  118A  	fcall	stringdir
  2594  07C5  00A9               	movwf	??_sprintf
  2595  07C6  0829               	movf	??_sprintf,w
  2596  07C7  00B2               	movwf	sprintf@c
  2597  07C8  0832               	movf	sprintf@c,w
  2598  07C9  1D03               	btfss	3,2
  2599  07CA  2FCC               	goto	u3561
  2600  07CB  2FCD               	goto	u3560
  2601  07CC                     u3561:	
  2602  07CC  2EF0               	goto	l2850
  2603  07CD                     u3560:	
  2604  07CD                     l2902:	
  2605                           
  2606                           ;C:\Program Files (x86)\Microchip\xc8\v2.10\pic\sources\c90\common\doprnt.c: 1564:  *sp 
      +                          = 0;
  2607  07CD  0831               	movf	sprintf@sp,w
  2608  07CE  0084               	movwf	4
  2609  07CF  1383               	bcf	3,7	;select IRP bank0
  2610  07D0  0180               	clrf	0
  2611  07D1                     l292:	
  2612  07D1  0008               	return
  2613  07D2                     __end_of_sprintf:	
  2614                           
  2615                           	psect	text5
  2616  0871                     __ptext5:	
  2617 ;; *************** function ___lwmod *****************
  2618 ;; Defined at:
  2619 ;;		line 5 in file "C:\Program Files (x86)\Microchip\xc8\v2.10\pic\sources\c90\common\lwmod.c"
  2620 ;; Parameters:    Size  Location     Type
  2621 ;;  divisor         2    0[BANK0 ] unsigned int 
  2622 ;;  dividend        2    2[BANK0 ] unsigned int 
  2623 ;; Auto vars:     Size  Location     Type
  2624 ;;  counter         1    5[BANK0 ] unsigned char 
  2625 ;; Return value:  Size  Location     Type
  2626 ;;                  2    0[BANK0 ] unsigned int 
  2627 ;; Registers used:
  2628 ;;		wreg, status,2, status,0
  2629 ;; Tracked objects:
  2630 ;;		On entry : 0/0
  2631 ;;		On exit  : 0/0
  2632 ;;		Unchanged: 0/0
  2633 ;; Data sizes:     COMMON   BANK0   BANK1   BANK3   BANK2
  2634 ;;      Params:         0       4       0       0       0
  2635 ;;      Locals:         0       1       0       0       0
  2636 ;;      Temps:          0       1       0       0       0
  2637 ;;      Totals:         0       6       0       0       0
  2638 ;;Total ram usage:        6 bytes
  2639 ;; Hardware stack levels used:    1
  2640 ;; Hardware stack levels required when called:    1
  2641 ;; This function calls:
  2642 ;;		Nothing
  2643 ;; This function is called by:
  2644 ;;		_sprintf
  2645 ;; This function uses a non-reentrant model
  2646 ;;
  2647                           
  2648                           
  2649                           ;psect for function ___lwmod
  2650  0871                     ___lwmod:	
  2651  0871                     l2818:	
  2652                           ;incstack = 0
  2653                           ; Regs used in ___lwmod: [wreg+status,2+status,0]
  2654                           
  2655  0871  1283               	bcf	3,5	;RP0=0, select bank0
  2656  0872  1303               	bcf	3,6	;RP1=0, select bank0
  2657  0873  0820               	movf	___lwmod@divisor,w
  2658  0874  0421               	iorwf	___lwmod@divisor+1,w
  2659  0875  1903               	btfsc	3,2
  2660  0876  2878               	goto	u3411
  2661  0877  2879               	goto	u3410
  2662  0878                     u3411:	
  2663  0878  28A8               	goto	l2836
  2664  0879                     u3410:	
  2665  0879                     l2820:	
  2666  0879  01A5               	clrf	___lwmod@counter
  2667  087A  0AA5               	incf	___lwmod@counter,f
  2668  087B  2887               	goto	l2826
  2669  087C                     l2822:	
  2670  087C  3001               	movlw	1
  2671  087D                     u3425:	
  2672  087D  1003               	clrc
  2673  087E  0DA0               	rlf	___lwmod@divisor,f
  2674  087F  0DA1               	rlf	___lwmod@divisor+1,f
  2675  0880  3EFF               	addlw	-1
  2676  0881  1D03               	skipz
  2677  0882  287D               	goto	u3425
  2678  0883                     l2824:	
  2679  0883  3001               	movlw	1
  2680  0884  00A4               	movwf	??___lwmod
  2681  0885  0824               	movf	??___lwmod,w
  2682  0886  07A5               	addwf	___lwmod@counter,f
  2683  0887                     l2826:	
  2684  0887  1FA1               	btfss	___lwmod@divisor+1,7
  2685  0888  288A               	goto	u3431
  2686  0889  288B               	goto	u3430
  2687  088A                     u3431:	
  2688  088A  287C               	goto	l2822
  2689  088B                     u3430:	
  2690  088B                     l2828:	
  2691  088B  0821               	movf	___lwmod@divisor+1,w
  2692  088C  0223               	subwf	___lwmod@dividend+1,w
  2693  088D  1D03               	skipz
  2694  088E  2891               	goto	u3445
  2695  088F  0820               	movf	___lwmod@divisor,w
  2696  0890  0222               	subwf	___lwmod@dividend,w
  2697  0891                     u3445:	
  2698  0891  1C03               	skipc
  2699  0892  2894               	goto	u3441
  2700  0893  2895               	goto	u3440
  2701  0894                     u3441:	
  2702  0894  289B               	goto	l2832
  2703  0895                     u3440:	
  2704  0895                     l2830:	
  2705  0895  0820               	movf	___lwmod@divisor,w
  2706  0896  02A2               	subwf	___lwmod@dividend,f
  2707  0897  0821               	movf	___lwmod@divisor+1,w
  2708  0898  1C03               	skipc
  2709  0899  03A3               	decf	___lwmod@dividend+1,f
  2710  089A  02A3               	subwf	___lwmod@dividend+1,f
  2711  089B                     l2832:	
  2712  089B  3001               	movlw	1
  2713  089C                     u3455:	
  2714  089C  1003               	clrc
  2715  089D  0CA1               	rrf	___lwmod@divisor+1,f
  2716  089E  0CA0               	rrf	___lwmod@divisor,f
  2717  089F  3EFF               	addlw	-1
  2718  08A0  1D03               	skipz
  2719  08A1  289C               	goto	u3455
  2720  08A2                     l2834:	
  2721  08A2  3001               	movlw	1
  2722  08A3  02A5               	subwf	___lwmod@counter,f
  2723  08A4  1D03               	btfss	3,2
  2724  08A5  28A7               	goto	u3461
  2725  08A6  28A8               	goto	u3460
  2726  08A7                     u3461:	
  2727  08A7  288B               	goto	l2828
  2728  08A8                     u3460:	
  2729  08A8                     l2836:	
  2730  08A8  0823               	movf	___lwmod@dividend+1,w
  2731  08A9  00A1               	movwf	?___lwmod+1
  2732  08AA  0822               	movf	___lwmod@dividend,w
  2733  08AB  00A0               	movwf	?___lwmod
  2734  08AC                     l578:	
  2735  08AC  0008               	return
  2736  08AD                     __end_of___lwmod:	
  2737                           
  2738                           	psect	text6
  2739  08EC                     __ptext6:	
  2740 ;; *************** function ___lwdiv *****************
  2741 ;; Defined at:
  2742 ;;		line 5 in file "C:\Program Files (x86)\Microchip\xc8\v2.10\pic\sources\c90\common\lwdiv.c"
  2743 ;; Parameters:    Size  Location     Type
  2744 ;;  divisor         2    2[COMMON] unsigned int 
  2745 ;;  dividend        2    4[COMMON] unsigned int 
  2746 ;; Auto vars:     Size  Location     Type
  2747 ;;  quotient        2    7[COMMON] unsigned int 
  2748 ;;  counter         1    9[COMMON] unsigned char 
  2749 ;; Return value:  Size  Location     Type
  2750 ;;                  2    2[COMMON] unsigned int 
  2751 ;; Registers used:
  2752 ;;		wreg, status,2, status,0
  2753 ;; Tracked objects:
  2754 ;;		On entry : 0/0
  2755 ;;		On exit  : 0/0
  2756 ;;		Unchanged: 0/0
  2757 ;; Data sizes:     COMMON   BANK0   BANK1   BANK3   BANK2
  2758 ;;      Params:         4       0       0       0       0
  2759 ;;      Locals:         3       0       0       0       0
  2760 ;;      Temps:          1       0       0       0       0
  2761 ;;      Totals:         8       0       0       0       0
  2762 ;;Total ram usage:        8 bytes
  2763 ;; Hardware stack levels used:    1
  2764 ;; Hardware stack levels required when called:    1
  2765 ;; This function calls:
  2766 ;;		Nothing
  2767 ;; This function is called by:
  2768 ;;		_sprintf
  2769 ;; This function uses a non-reentrant model
  2770 ;;
  2771                           
  2772                           
  2773                           ;psect for function ___lwdiv
  2774  08EC                     ___lwdiv:	
  2775  08EC                     l1814:	
  2776                           ;incstack = 0
  2777                           ; Regs used in ___lwdiv: [wreg+status,2+status,0]
  2778                           
  2779  08EC  01F7               	clrf	___lwdiv@quotient
  2780  08ED  01F8               	clrf	___lwdiv@quotient+1
  2781  08EE                     l1816:	
  2782  08EE  0872               	movf	___lwdiv@divisor,w
  2783  08EF  0473               	iorwf	___lwdiv@divisor+1,w
  2784  08F0  1903               	btfsc	3,2
  2785  08F1  28F3               	goto	u1711
  2786  08F2  28F4               	goto	u1710
  2787  08F3                     u1711:	
  2788  08F3  292B               	goto	l1836
  2789  08F4                     u1710:	
  2790  08F4                     l1818:	
  2791  08F4  01F9               	clrf	___lwdiv@counter
  2792  08F5  0AF9               	incf	___lwdiv@counter,f
  2793  08F6  2902               	goto	l1824
  2794  08F7                     l1820:	
  2795  08F7  3001               	movlw	1
  2796  08F8                     u1725:	
  2797  08F8  1003               	clrc
  2798  08F9  0DF2               	rlf	___lwdiv@divisor,f
  2799  08FA  0DF3               	rlf	___lwdiv@divisor+1,f
  2800  08FB  3EFF               	addlw	-1
  2801  08FC  1D03               	skipz
  2802  08FD  28F8               	goto	u1725
  2803  08FE                     l1822:	
  2804  08FE  3001               	movlw	1
  2805  08FF  00F6               	movwf	??___lwdiv
  2806  0900  0876               	movf	??___lwdiv,w
  2807  0901  07F9               	addwf	___lwdiv@counter,f
  2808  0902                     l1824:	
  2809  0902  1FF3               	btfss	___lwdiv@divisor+1,7
  2810  0903  2905               	goto	u1731
  2811  0904  2906               	goto	u1730
  2812  0905                     u1731:	
  2813  0905  28F7               	goto	l1820
  2814  0906                     u1730:	
  2815  0906                     l1826:	
  2816  0906  3001               	movlw	1
  2817  0907                     u1745:	
  2818  0907  1003               	clrc
  2819  0908  0DF7               	rlf	___lwdiv@quotient,f
  2820  0909  0DF8               	rlf	___lwdiv@quotient+1,f
  2821  090A  3EFF               	addlw	-1
  2822  090B  1D03               	skipz
  2823  090C  2907               	goto	u1745
  2824  090D  0873               	movf	___lwdiv@divisor+1,w
  2825  090E  0275               	subwf	___lwdiv@dividend+1,w
  2826  090F  1D03               	skipz
  2827  0910  2913               	goto	u1755
  2828  0911  0872               	movf	___lwdiv@divisor,w
  2829  0912  0274               	subwf	___lwdiv@dividend,w
  2830  0913                     u1755:	
  2831  0913  1C03               	skipc
  2832  0914  2916               	goto	u1751
  2833  0915  2917               	goto	u1750
  2834  0916                     u1751:	
  2835  0916  291E               	goto	l1832
  2836  0917                     u1750:	
  2837  0917                     l1828:	
  2838  0917  0872               	movf	___lwdiv@divisor,w
  2839  0918  02F4               	subwf	___lwdiv@dividend,f
  2840  0919  0873               	movf	___lwdiv@divisor+1,w
  2841  091A  1C03               	skipc
  2842  091B  03F5               	decf	___lwdiv@dividend+1,f
  2843  091C  02F5               	subwf	___lwdiv@dividend+1,f
  2844  091D                     l1830:	
  2845  091D  1477               	bsf	___lwdiv@quotient,0
  2846  091E                     l1832:	
  2847  091E  3001               	movlw	1
  2848  091F                     u1765:	
  2849  091F  1003               	clrc
  2850  0920  0CF3               	rrf	___lwdiv@divisor+1,f
  2851  0921  0CF2               	rrf	___lwdiv@divisor,f
  2852  0922  3EFF               	addlw	-1
  2853  0923  1D03               	skipz
  2854  0924  291F               	goto	u1765
  2855  0925                     l1834:	
  2856  0925  3001               	movlw	1
  2857  0926  02F9               	subwf	___lwdiv@counter,f
  2858  0927  1D03               	btfss	3,2
  2859  0928  292A               	goto	u1771
  2860  0929  292B               	goto	u1770
  2861  092A                     u1771:	
  2862  092A  2906               	goto	l1826
  2863  092B                     u1770:	
  2864  092B                     l1836:	
  2865  092B  0878               	movf	___lwdiv@quotient+1,w
  2866  092C  00F3               	movwf	?___lwdiv+1
  2867  092D  0877               	movf	___lwdiv@quotient,w
  2868  092E  00F2               	movwf	?___lwdiv
  2869  092F                     l568:	
  2870  092F  0008               	return
  2871  0930                     __end_of___lwdiv:	
  2872                           
  2873                           	psect	text7
  2874  0930                     __ptext7:	
  2875 ;; *************** function _lcd_write_string *****************
  2876 ;; Defined at:
  2877 ;;		line 59 in file "LCD_Init.c"
  2878 ;; Parameters:    Size  Location     Type
  2879 ;;  var             2    5[COMMON] PTR unsigned char 
  2880 ;;		 -> lcd_write_int@buffer(4), STR_9(2), STR_8(2), STR_7(2), 
  2881 ;;		 -> STR_6(2), STR_5(2), STR_4(2), STR_3(4), 
  2882 ;;		 -> STR_2(6), STR_1(6), 
  2883 ;; Auto vars:     Size  Location     Type
  2884 ;;  i               2    0[BANK0 ] int 
  2885 ;; Return value:  Size  Location     Type
  2886 ;;                  1    wreg      void 
  2887 ;; Registers used:
  2888 ;;		wreg, fsr0l, fsr0h, status,2, status,0, btemp+1, pclath, cstack
  2889 ;; Tracked objects:
  2890 ;;		On entry : 0/0
  2891 ;;		On exit  : 0/0
  2892 ;;		Unchanged: 0/0
  2893 ;; Data sizes:     COMMON   BANK0   BANK1   BANK3   BANK2
  2894 ;;      Params:         2       0       0       0       0
  2895 ;;      Locals:         0       2       0       0       0
  2896 ;;      Temps:          3       0       0       0       0
  2897 ;;      Totals:         5       2       0       0       0
  2898 ;;Total ram usage:        7 bytes
  2899 ;; Hardware stack levels used:    1
  2900 ;; Hardware stack levels required when called:    2
  2901 ;; This function calls:
  2902 ;;		_lcd_write_char
  2903 ;; This function is called by:
  2904 ;;		_main
  2905 ;;		_lcd_write_int
  2906 ;; This function uses a non-reentrant model
  2907 ;;
  2908                           
  2909                           
  2910                           ;psect for function _lcd_write_string
  2911  0930                     _lcd_write_string:	
  2912  0930                     l2840:	
  2913                           ;incstack = 0
  2914                           ; Regs used in _lcd_write_string: [wreg-fsr0h+status,2+status,0+btemp+1+pclath+cstack]
  2915                           
  2916                           
  2917                           ;LCD_Init.c: 60:     int i;;LCD_Init.c: 61:  for(i=0;var[i]!='\0';i++)
  2918  0930  1283               	bcf	3,5	;RP0=0, select bank0
  2919  0931  1303               	bcf	3,6	;RP1=0, select bank0
  2920  0932  01A0               	clrf	lcd_write_string@i
  2921  0933  01A1               	clrf	lcd_write_string@i+1
  2922  0934  2959               	goto	l2846
  2923  0935                     l2842:	
  2924                           
  2925                           ;LCD_Init.c: 62:     lcd_write_char(var[i]);
  2926  0935  0820               	movf	lcd_write_string@i,w
  2927  0936  0775               	addwf	lcd_write_string@var,w
  2928  0937  00F8               	movwf	??_lcd_write_string+1
  2929  0938  0876               	movf	lcd_write_string@var+1,w
  2930  0939  00F7               	movwf	??_lcd_write_string
  2931  093A  1803               	skipnc
  2932  093B  0AF7               	incf	??_lcd_write_string,f
  2933  093C  1FA0               	btfss	lcd_write_string@i,7
  2934  093D  293F               	goto	u3470
  2935  093E  03F7               	decf	??_lcd_write_string,f
  2936  093F                     u3470:	
  2937  093F  0877               	movf	??_lcd_write_string,w
  2938  0940  00F9               	movwf	??_lcd_write_string+2
  2939  0941  0879               	movf	??_lcd_write_string+2,w
  2940  0942  1283               	bcf	3,5	;RP0=0, select bank0
  2941  0943  1303               	bcf	3,6	;RP1=0, select bank0
  2942  0944  00FF               	movwf	btemp+1
  2943  0945  0878               	movf	??_lcd_write_string+1,w
  2944  0946  0084               	movwf	4
  2945  0947  120A  158A  2000  120A  158A  	fcall	stringtab
  2946  094C  160A  118A  27B4  120A  158A  	fcall	_lcd_write_char
  2947  0951                     l2844:	
  2948  0951  3001               	movlw	1
  2949  0952  1283               	bcf	3,5	;RP0=0, select bank0
  2950  0953  1303               	bcf	3,6	;RP1=0, select bank0
  2951  0954  07A0               	addwf	lcd_write_string@i,f
  2952  0955  1803               	skipnc
  2953  0956  0AA1               	incf	lcd_write_string@i+1,f
  2954  0957  3000               	movlw	0
  2955  0958  07A1               	addwf	lcd_write_string@i+1,f
  2956  0959                     l2846:	
  2957  0959  0820               	movf	lcd_write_string@i,w
  2958  095A  0775               	addwf	lcd_write_string@var,w
  2959  095B  00F8               	movwf	??_lcd_write_string+1
  2960  095C  0876               	movf	lcd_write_string@var+1,w
  2961  095D  00F7               	movwf	??_lcd_write_string
  2962  095E  1803               	skipnc
  2963  095F  0AF7               	incf	??_lcd_write_string,f
  2964  0960  1FA0               	btfss	lcd_write_string@i,7
  2965  0961  2963               	goto	u3480
  2966  0962  03F7               	decf	??_lcd_write_string,f
  2967  0963                     u3480:	
  2968  0963  0877               	movf	??_lcd_write_string,w
  2969  0964  00F9               	movwf	??_lcd_write_string+2
  2970  0965  0879               	movf	??_lcd_write_string+2,w
  2971  0966  1283               	bcf	3,5	;RP0=0, select bank0
  2972  0967  1303               	bcf	3,6	;RP1=0, select bank0
  2973  0968  00FF               	movwf	btemp+1
  2974  0969  0878               	movf	??_lcd_write_string+1,w
  2975  096A  0084               	movwf	4
  2976  096B  120A  158A  2000  120A  158A  	fcall	stringtab
  2977  0970  3A00               	xorlw	0
  2978  0971  1D03               	skipz
  2979  0972  2974               	goto	u3491
  2980  0973  2975               	goto	u3490
  2981  0974                     u3491:	
  2982  0974  2935               	goto	l2842
  2983  0975                     u3490:	
  2984  0975                     l119:	
  2985  0975  0008               	return
  2986  0976                     __end_of_lcd_write_string:	
  2987                           
  2988                           	psect	text8
  2989  17B4                     __ptext8:	
  2990 ;; *************** function _lcd_write_char *****************
  2991 ;; Defined at:
  2992 ;;		line 51 in file "LCD_Init.c"
  2993 ;; Parameters:    Size  Location     Type
  2994 ;;  var             1    wreg     unsigned char 
  2995 ;; Auto vars:     Size  Location     Type
  2996 ;;  var             1    4[COMMON] unsigned char 
  2997 ;; Return value:  Size  Location     Type
  2998 ;;                  1    wreg      void 
  2999 ;; Registers used:
  3000 ;;		wreg
  3001 ;; Tracked objects:
  3002 ;;		On entry : 0/0
  3003 ;;		On exit  : 0/0
  3004 ;;		Unchanged: 0/0
  3005 ;; Data sizes:     COMMON   BANK0   BANK1   BANK3   BANK2
  3006 ;;      Params:         0       0       0       0       0
  3007 ;;      Locals:         1       0       0       0       0
  3008 ;;      Temps:          2       0       0       0       0
  3009 ;;      Totals:         3       0       0       0       0
  3010 ;;Total ram usage:        3 bytes
  3011 ;; Hardware stack levels used:    1
  3012 ;; Hardware stack levels required when called:    1
  3013 ;; This function calls:
  3014 ;;		Nothing
  3015 ;; This function is called by:
  3016 ;;		_main
  3017 ;;		_lcd_write_string
  3018 ;; This function uses a non-reentrant model
  3019 ;;
  3020                           
  3021                           
  3022                           ;psect for function _lcd_write_char
  3023  17B4                     _lcd_write_char:	
  3024                           
  3025                           ;incstack = 0
  3026                           ; Regs used in _lcd_write_char: [wreg]
  3027                           ;lcd_write_char@var stored from wreg
  3028  17B4  00F4               	movwf	lcd_write_char@var
  3029  17B5                     l2810:	
  3030                           
  3031                           ;LCD_Init.c: 52:     PORTBbits.RB6 = 1;
  3032  17B5  1283               	bcf	3,5	;RP0=0, select bank0
  3033  17B6  1303               	bcf	3,6	;RP1=0, select bank0
  3034  17B7  1706               	bsf	6,6	;volatile
  3035  17B8                     l2812:	
  3036                           
  3037                           ;LCD_Init.c: 53:     PORTD = var;
  3038  17B8  0874               	movf	lcd_write_char@var,w
  3039  17B9  0088               	movwf	8	;volatile
  3040  17BA                     l2814:	
  3041                           
  3042                           ;LCD_Init.c: 54:     PORTBbits.RB7 = 1;
  3043  17BA  1786               	bsf	6,7	;volatile
  3044                           
  3045                           ;LCD_Init.c: 55:     _delay((unsigned long)((4)*(4000000/4000.0)));
  3046  17BB  3006               	movlw	6
  3047  17BC  00F3               	movwf	??_lcd_write_char+1
  3048  17BD  3030               	movlw	48
  3049  17BE  00F2               	movwf	??_lcd_write_char
  3050  17BF                     u4147:	
  3051  17BF  0BF2               	decfsz	??_lcd_write_char,f
  3052  17C0  2FBF               	goto	u4147
  3053  17C1  0BF3               	decfsz	??_lcd_write_char+1,f
  3054  17C2  2FBF               	goto	u4147
  3055  17C3  0000               	nop
  3056  17C4                     l2816:	
  3057                           
  3058                           ;LCD_Init.c: 56:     PORTBbits.RB7 = 0;
  3059  17C4  1283               	bcf	3,5	;RP0=0, select bank0
  3060  17C5  1303               	bcf	3,6	;RP1=0, select bank0
  3061  17C6  1386               	bcf	6,7	;volatile
  3062  17C7                     l113:	
  3063  17C7  0008               	return
  3064  17C8                     __end_of_lcd_write_char:	
  3065                           
  3066                           	psect	text9
  3067  0832                     __ptext9:	
  3068 ;; *************** function _lcd_set_cursor *****************
  3069 ;; Defined at:
  3070 ;;		line 42 in file "LCD_Init.c"
  3071 ;; Parameters:    Size  Location     Type
  3072 ;;  posx            1    wreg     unsigned char 
  3073 ;;  posy            1    5[COMMON] unsigned char 
  3074 ;; Auto vars:     Size  Location     Type
  3075 ;;  posx            1    6[COMMON] unsigned char 
  3076 ;; Return value:  Size  Location     Type
  3077 ;;                  1    wreg      void 
  3078 ;; Registers used:
  3079 ;;		wreg, status,2, status,0, pclath, cstack
  3080 ;; Tracked objects:
  3081 ;;		On entry : 0/0
  3082 ;;		On exit  : 0/0
  3083 ;;		Unchanged: 0/0
  3084 ;; Data sizes:     COMMON   BANK0   BANK1   BANK3   BANK2
  3085 ;;      Params:         1       0       0       0       0
  3086 ;;      Locals:         1       0       0       0       0
  3087 ;;      Temps:          0       0       0       0       0
  3088 ;;      Totals:         2       0       0       0       0
  3089 ;;Total ram usage:        2 bytes
  3090 ;; Hardware stack levels used:    1
  3091 ;; Hardware stack levels required when called:    2
  3092 ;; This function calls:
  3093 ;;		_lcd_cmd
  3094 ;; This function is called by:
  3095 ;;		_main
  3096 ;; This function uses a non-reentrant model
  3097 ;;
  3098                           
  3099                           
  3100                           ;psect for function _lcd_set_cursor
  3101  0832                     _lcd_set_cursor:	
  3102                           
  3103                           ;incstack = 0
  3104                           ; Regs used in _lcd_set_cursor: [wreg+status,2+status,0+pclath+cstack]
  3105                           ;lcd_set_cursor@posx stored from wreg
  3106  0832  00F6               	movwf	lcd_set_cursor@posx
  3107  0833                     l2230:	
  3108                           
  3109                           ;LCD_Init.c: 43:     if(posy == 1){
  3110  0833  0375               	decf	lcd_set_cursor@posy,w
  3111  0834  1D03               	btfss	3,2
  3112  0835  2837               	goto	u2531
  3113  0836  2838               	goto	u2530
  3114  0837                     u2531:	
  3115  0837  283F               	goto	l2234
  3116  0838                     u2530:	
  3117  0838                     l2232:	
  3118                           
  3119                           ;LCD_Init.c: 44:         lcd_cmd (0x80 + posx - 1);
  3120  0838  0876               	movf	lcd_set_cursor@posx,w
  3121  0839  3E7F               	addlw	127
  3122  083A  160A  118A  27A0  120A  158A  	fcall	_lcd_cmd
  3123  083F                     l2234:	
  3124                           
  3125                           ;LCD_Init.c: 46:     if(posy == 2){
  3126  083F  3002               	movlw	2
  3127  0840  0675               	xorwf	lcd_set_cursor@posy,w
  3128  0841  1D03               	btfss	3,2
  3129  0842  2844               	goto	u2541
  3130  0843  2845               	goto	u2540
  3131  0844                     u2541:	
  3132  0844  284C               	goto	l110
  3133  0845                     u2540:	
  3134  0845                     l2236:	
  3135                           
  3136                           ;LCD_Init.c: 47:         lcd_cmd (0xC0 + posx - 1);
  3137  0845  0876               	movf	lcd_set_cursor@posx,w
  3138  0846  3EBF               	addlw	191
  3139  0847  160A  118A  27A0  120A  158A  	fcall	_lcd_cmd
  3140  084C                     l110:	
  3141  084C  0008               	return
  3142  084D                     __end_of_lcd_set_cursor:	
  3143                           
  3144                           	psect	text10
  3145  177D                     __ptext10:	
  3146 ;; *************** function _lcd_clr *****************
  3147 ;; Defined at:
  3148 ;;		line 38 in file "LCD_Init.c"
  3149 ;; Parameters:    Size  Location     Type
  3150 ;;		None
  3151 ;; Auto vars:     Size  Location     Type
  3152 ;;		None
  3153 ;; Return value:  Size  Location     Type
  3154 ;;                  1    wreg      void 
  3155 ;; Registers used:
  3156 ;;		wreg, status,2, status,0, pclath, cstack
  3157 ;; Tracked objects:
  3158 ;;		On entry : 0/0
  3159 ;;		On exit  : 0/0
  3160 ;;		Unchanged: 0/0
  3161 ;; Data sizes:     COMMON   BANK0   BANK1   BANK3   BANK2
  3162 ;;      Params:         0       0       0       0       0
  3163 ;;      Locals:         0       0       0       0       0
  3164 ;;      Temps:          0       0       0       0       0
  3165 ;;      Totals:         0       0       0       0       0
  3166 ;;Total ram usage:        0 bytes
  3167 ;; Hardware stack levels used:    1
  3168 ;; Hardware stack levels required when called:    2
  3169 ;; This function calls:
  3170 ;;		_lcd_cmd
  3171 ;; This function is called by:
  3172 ;;		_main
  3173 ;; This function uses a non-reentrant model
  3174 ;;
  3175                           
  3176                           
  3177                           ;psect for function _lcd_clr
  3178  177D                     _lcd_clr:	
  3179  177D                     l2228:	
  3180                           ;incstack = 0
  3181                           ; Regs used in _lcd_clr: [wreg+status,2+status,0+pclath+cstack]
  3182                           
  3183                           
  3184                           ;LCD_Init.c: 39:     lcd_cmd(0x01);
  3185  177D  3001               	movlw	1
  3186  177E  160A  118A  27A0  160A  118A  	fcall	_lcd_cmd
  3187  1783                     l105:	
  3188  1783  0008               	return
  3189  1784                     __end_of_lcd_clr:	
  3190                           
  3191                           	psect	text11
  3192  08AD                     __ptext11:	
  3193 ;; *************** function _initSerial *****************
  3194 ;; Defined at:
  3195 ;;		line 7 in file "Serial_Init.c"
  3196 ;; Parameters:    Size  Location     Type
  3197 ;;  baudrate        2    2[COMMON] unsigned int 
  3198 ;; Auto vars:     Size  Location     Type
  3199 ;;		None
  3200 ;; Return value:  Size  Location     Type
  3201 ;;                  1    wreg      void 
  3202 ;; Registers used:
  3203 ;;		wreg, fsr0l, fsr0h, status,2, status,0
  3204 ;; Tracked objects:
  3205 ;;		On entry : 0/0
  3206 ;;		On exit  : 0/0
  3207 ;;		Unchanged: 0/0
  3208 ;; Data sizes:     COMMON   BANK0   BANK1   BANK3   BANK2
  3209 ;;      Params:         2       0       0       0       0
  3210 ;;      Locals:         0       0       0       0       0
  3211 ;;      Temps:          0       0       0       0       0
  3212 ;;      Totals:         2       0       0       0       0
  3213 ;;Total ram usage:        2 bytes
  3214 ;; Hardware stack levels used:    1
  3215 ;; Hardware stack levels required when called:    1
  3216 ;; This function calls:
  3217 ;;		Nothing
  3218 ;; This function is called by:
  3219 ;;		_main
  3220 ;; This function uses a non-reentrant model
  3221 ;;
  3222                           
  3223                           
  3224                           ;psect for function _initSerial
  3225  08AD                     _initSerial:	
  3226  08AD                     l2204:	
  3227                           ;incstack = 0
  3228                           ; Regs used in _initSerial: [wreg-fsr0h+status,2+status,0]
  3229                           
  3230                           
  3231                           ;Serial_Init.c: 8:     TRISC = 0x80;
  3232  08AD  3080               	movlw	128
  3233  08AE  1683               	bsf	3,5	;RP0=1, select bank1
  3234  08AF  1303               	bcf	3,6	;RP1=0, select bank1
  3235  08B0  0087               	movwf	7	;volatile
  3236                           
  3237                           ;Serial_Init.c: 19:     TXSTA=0b00100110;
  3238  08B1  3026               	movlw	38
  3239  08B2  0098               	movwf	24	;volatile
  3240                           
  3241                           ;Serial_Init.c: 21:     RCSTA=0b10010000;
  3242  08B3  3090               	movlw	144
  3243  08B4  1283               	bcf	3,5	;RP0=0, select bank0
  3244  08B5  1303               	bcf	3,6	;RP1=0, select bank0
  3245  08B6  0098               	movwf	24	;volatile
  3246  08B7                     l2206:	
  3247                           
  3248                           ;Serial_Init.c: 23:     BAUDCTLbits.BRG16 = 1;
  3249  08B7  1683               	bsf	3,5	;RP0=1, select bank3
  3250  08B8  1703               	bsf	3,6	;RP1=1, select bank3
  3251  08B9  1587               	bsf	7,3	;volatile
  3252                           
  3253                           ;Serial_Init.c: 25:     switch (baudrate){
  3254  08BA  28C9               	goto	l2210
  3255  08BB                     l2208:	
  3256                           
  3257                           ;Serial_Init.c: 27:             SPBRG = 103;
  3258  08BB  3067               	movlw	103
  3259  08BC  1683               	bsf	3,5	;RP0=1, select bank1
  3260  08BD  1303               	bcf	3,6	;RP1=0, select bank1
  3261  08BE  0099               	movwf	25	;volatile
  3262  08BF                     l172:	
  3263                           ;Serial_Init.c: 29:         case 10417:
  3264                           
  3265                           
  3266                           ;Serial_Init.c: 30:             SPBRG = 95;
  3267  08BF  305F               	movlw	95
  3268  08C0  1303               	bcf	3,6	;RP1=0, select bank1
  3269  08C1  0099               	movwf	25	;volatile
  3270  08C2                     l173:	
  3271                           ;Serial_Init.c: 32:         case 19200:
  3272                           
  3273                           
  3274                           ;Serial_Init.c: 33:             SPBRG = 51;
  3275  08C2  3033               	movlw	51
  3276  08C3  1303               	bcf	3,6	;RP1=0, select bank1
  3277  08C4  0099               	movwf	25	;volatile
  3278  08C5                     l174:	
  3279                           ;Serial_Init.c: 35:         case 57600:
  3280                           
  3281                           
  3282                           ;Serial_Init.c: 36:             SPBRG = 16;
  3283  08C5  3010               	movlw	16
  3284  08C6  1303               	bcf	3,6	;RP1=0, select bank1
  3285  08C7  0099               	movwf	25	;volatile
  3286                           
  3287                           ;Serial_Init.c: 37:     }
  3288  08C8  28EB               	goto	l176
  3289  08C9                     l2210:	
  3290                           
  3291                           ; Switch on 2 bytes has been partitioned into a top level switch of size 1, and 4 sub-sw
      +                          itches
  3292                           ; Switch size 1, requested type "simple"
  3293                           ; Number of cases is 4, Range of values is 37 to 225
  3294                           ; switch strategies available:
  3295                           ; Name         Instructions Cycles
  3296                           ; simple_byte           13     7 (average)
  3297                           ; jumptable            263     9 (fixed)
  3298                           ;	Chosen strategy is simple_byte
  3299  08C9  0873               	movf	initSerial@baudrate+1,w
  3300  08CA  3A25               	xorlw	37	; case 37
  3301  08CB  1903               	skipnz
  3302  08CC  28D7               	goto	l3324
  3303  08CD  3A0D               	xorlw	13	; case 40
  3304  08CE  1903               	skipnz
  3305  08CF  28DC               	goto	l3326
  3306  08D0  3A63               	xorlw	99	; case 75
  3307  08D1  1903               	skipnz
  3308  08D2  28E1               	goto	l3328
  3309  08D3  3AAA               	xorlw	170	; case 225
  3310  08D4  1903               	skipnz
  3311  08D5  28E6               	goto	l3330
  3312  08D6  28EB               	goto	l176
  3313  08D7                     l3324:	
  3314                           
  3315                           ; Switch size 1, requested type "simple"
  3316                           ; Number of cases is 1, Range of values is 128 to 128
  3317                           ; switch strategies available:
  3318                           ; Name         Instructions Cycles
  3319                           ; simple_byte            4     3 (average)
  3320                           ; direct_byte           14    11 (fixed)
  3321                           ; jumptable            263     9 (fixed)
  3322                           ;	Chosen strategy is simple_byte
  3323  08D7  0872               	movf	initSerial@baudrate,w
  3324  08D8  3A80               	xorlw	128	; case 128
  3325  08D9  1903               	skipnz
  3326  08DA  28BB               	goto	l2208
  3327  08DB  28EB               	goto	l176
  3328  08DC                     l3326:	
  3329                           
  3330                           ; Switch size 1, requested type "simple"
  3331                           ; Number of cases is 1, Range of values is 177 to 177
  3332                           ; switch strategies available:
  3333                           ; Name         Instructions Cycles
  3334                           ; simple_byte            4     3 (average)
  3335                           ; direct_byte           14    11 (fixed)
  3336                           ; jumptable            263     9 (fixed)
  3337                           ;	Chosen strategy is simple_byte
  3338  08DC  0872               	movf	initSerial@baudrate,w
  3339  08DD  3AB1               	xorlw	177	; case 177
  3340  08DE  1903               	skipnz
  3341  08DF  28BF               	goto	l172
  3342  08E0  28EB               	goto	l176
  3343  08E1                     l3328:	
  3344                           
  3345                           ; Switch size 1, requested type "simple"
  3346                           ; Number of cases is 1, Range of values is 0 to 0
  3347                           ; switch strategies available:
  3348                           ; Name         Instructions Cycles
  3349                           ; simple_byte            4     3 (average)
  3350                           ; direct_byte           11     8 (fixed)
  3351                           ; jumptable            260     6 (fixed)
  3352                           ;	Chosen strategy is simple_byte
  3353  08E1  0872               	movf	initSerial@baudrate,w
  3354  08E2  3A00               	xorlw	0	; case 0
  3355  08E3  1903               	skipnz
  3356  08E4  28C2               	goto	l173
  3357  08E5  28EB               	goto	l176
  3358  08E6                     l3330:	
  3359                           
  3360                           ; Switch size 1, requested type "simple"
  3361                           ; Number of cases is 1, Range of values is 0 to 0
  3362                           ; switch strategies available:
  3363                           ; Name         Instructions Cycles
  3364                           ; simple_byte            4     3 (average)
  3365                           ; direct_byte           11     8 (fixed)
  3366                           ; jumptable            260     6 (fixed)
  3367                           ;	Chosen strategy is simple_byte
  3368  08E6  0872               	movf	initSerial@baudrate,w
  3369  08E7  3A00               	xorlw	0	; case 0
  3370  08E8  1903               	skipnz
  3371  08E9  28C5               	goto	l174
  3372  08EA  28EB               	goto	l176
  3373  08EB                     l176:	
  3374  08EB  0008               	return
  3375  08EC                     __end_of_initSerial:	
  3376                           
  3377                           	psect	text12
  3378  0976                     __ptext12:	
  3379 ;; *************** function _initLCD *****************
  3380 ;; Defined at:
  3381 ;;		line 9 in file "LCD_Init.c"
  3382 ;; Parameters:    Size  Location     Type
  3383 ;;		None
  3384 ;; Auto vars:     Size  Location     Type
  3385 ;;		None
  3386 ;; Return value:  Size  Location     Type
  3387 ;;                  1    wreg      void 
  3388 ;; Registers used:
  3389 ;;		wreg, status,2, status,0, pclath, cstack
  3390 ;; Tracked objects:
  3391 ;;		On entry : 0/0
  3392 ;;		On exit  : 0/0
  3393 ;;		Unchanged: 0/0
  3394 ;; Data sizes:     COMMON   BANK0   BANK1   BANK3   BANK2
  3395 ;;      Params:         0       0       0       0       0
  3396 ;;      Locals:         0       0       0       0       0
  3397 ;;      Temps:          2       0       0       0       0
  3398 ;;      Totals:         2       0       0       0       0
  3399 ;;Total ram usage:        2 bytes
  3400 ;; Hardware stack levels used:    1
  3401 ;; Hardware stack levels required when called:    2
  3402 ;; This function calls:
  3403 ;;		_lcd_cmd
  3404 ;; This function is called by:
  3405 ;;		_main
  3406 ;; This function uses a non-reentrant model
  3407 ;;
  3408                           
  3409                           
  3410                           ;psect for function _initLCD
  3411  0976                     _initLCD:	
  3412  0976                     l2184:	
  3413                           ;incstack = 0
  3414                           ; Regs used in _initLCD: [wreg+status,2+status,0+pclath+cstack]
  3415                           
  3416                           
  3417                           ;LCD_Init.c: 10: _delay((unsigned long)((15)*(4000000/4000.0)));
  3418  0976  3014               	movlw	20
  3419  0977  00F6               	movwf	??_initLCD+1
  3420  0978  3079               	movlw	121
  3421  0979  00F5               	movwf	??_initLCD
  3422  097A                     u4157:	
  3423  097A  0BF5               	decfsz	??_initLCD,f
  3424  097B  297A               	goto	u4157
  3425  097C  0BF6               	decfsz	??_initLCD+1,f
  3426  097D  297A               	goto	u4157
  3427  097E  297F               	nop2
  3428  097F                     l2186:	
  3429                           
  3430                           ;LCD_Init.c: 12: lcd_cmd(0x030);
  3431  097F  3030               	movlw	48
  3432  0980  160A  118A  27A0  120A  158A  	fcall	_lcd_cmd
  3433  0985                     l2188:	
  3434                           
  3435                           ;LCD_Init.c: 13: _delay((unsigned long)((5)*(4000000/4000.0)));
  3436  0985  3007               	movlw	7
  3437  0986  00F6               	movwf	??_initLCD+1
  3438  0987  307D               	movlw	125
  3439  0988  00F5               	movwf	??_initLCD
  3440  0989                     u4167:	
  3441  0989  0BF5               	decfsz	??_initLCD,f
  3442  098A  2989               	goto	u4167
  3443  098B  0BF6               	decfsz	??_initLCD+1,f
  3444  098C  2989               	goto	u4167
  3445                           
  3446                           ;LCD_Init.c: 15: lcd_cmd(0x030);
  3447  098D  3030               	movlw	48
  3448  098E  160A  118A  27A0  120A  158A  	fcall	_lcd_cmd
  3449  0993                     l2190:	
  3450                           
  3451                           ;LCD_Init.c: 16: _delay((unsigned long)((11)*(4000000/4000.0)));
  3452  0993  300F               	movlw	15
  3453  0994  00F6               	movwf	??_initLCD+1
  3454  0995  3047               	movlw	71
  3455  0996  00F5               	movwf	??_initLCD
  3456  0997                     u4177:	
  3457  0997  0BF5               	decfsz	??_initLCD,f
  3458  0998  2997               	goto	u4177
  3459  0999  0BF6               	decfsz	??_initLCD+1,f
  3460  099A  2997               	goto	u4177
  3461  099B  299C               	nop2
  3462  099C                     l2192:	
  3463                           
  3464                           ;LCD_Init.c: 18: lcd_cmd(0x030);
  3465  099C  3030               	movlw	48
  3466  099D  160A  118A  27A0  120A  158A  	fcall	_lcd_cmd
  3467                           
  3468                           ;LCD_Init.c: 19: _delay((unsigned long)((160)*(4000000/4000000.0)));
  3469  09A2  3035               	movlw	53
  3470  09A3  00F5               	movwf	??_initLCD
  3471  09A4                     u4187:	
  3472  09A4  0BF5               	decfsz	??_initLCD,f
  3473  09A5  29A4               	goto	u4187
  3474  09A6                     l2194:	
  3475                           
  3476                           ;LCD_Init.c: 21: lcd_cmd(0x38);
  3477  09A6  3038               	movlw	56
  3478  09A7  160A  118A  27A0  120A  158A  	fcall	_lcd_cmd
  3479  09AC                     l2196:	
  3480                           
  3481                           ;LCD_Init.c: 22: lcd_cmd(0x10);
  3482  09AC  3010               	movlw	16
  3483  09AD  160A  118A  27A0  120A  158A  	fcall	_lcd_cmd
  3484  09B2                     l2198:	
  3485                           
  3486                           ;LCD_Init.c: 23: lcd_cmd(0x01);
  3487  09B2  3001               	movlw	1
  3488  09B3  160A  118A  27A0  120A  158A  	fcall	_lcd_cmd
  3489  09B8                     l2200:	
  3490                           
  3491                           ;LCD_Init.c: 24: lcd_cmd(0x06);
  3492  09B8  3006               	movlw	6
  3493  09B9  160A  118A  27A0  120A  158A  	fcall	_lcd_cmd
  3494  09BE                     l2202:	
  3495                           
  3496                           ;LCD_Init.c: 25: lcd_cmd(0x0C);
  3497  09BE  300C               	movlw	12
  3498  09BF  160A  118A  27A0  120A  158A  	fcall	_lcd_cmd
  3499  09C4                     l99:	
  3500  09C4  0008               	return
  3501  09C5                     __end_of_initLCD:	
  3502                           
  3503                           	psect	text13
  3504  17A0                     __ptext13:	
  3505 ;; *************** function _lcd_cmd *****************
  3506 ;; Defined at:
  3507 ;;		line 30 in file "LCD_Init.c"
  3508 ;; Parameters:    Size  Location     Type
  3509 ;;  command         1    wreg     unsigned char 
  3510 ;; Auto vars:     Size  Location     Type
  3511 ;;  command         1    4[COMMON] unsigned char 
  3512 ;; Return value:  Size  Location     Type
  3513 ;;                  1    wreg      void 
  3514 ;; Registers used:
  3515 ;;		wreg
  3516 ;; Tracked objects:
  3517 ;;		On entry : 0/0
  3518 ;;		On exit  : 0/0
  3519 ;;		Unchanged: 0/0
  3520 ;; Data sizes:     COMMON   BANK0   BANK1   BANK3   BANK2
  3521 ;;      Params:         0       0       0       0       0
  3522 ;;      Locals:         1       0       0       0       0
  3523 ;;      Temps:          2       0       0       0       0
  3524 ;;      Totals:         3       0       0       0       0
  3525 ;;Total ram usage:        3 bytes
  3526 ;; Hardware stack levels used:    1
  3527 ;; Hardware stack levels required when called:    1
  3528 ;; This function calls:
  3529 ;;		Nothing
  3530 ;; This function is called by:
  3531 ;;		_initLCD
  3532 ;;		_lcd_clr
  3533 ;;		_lcd_set_cursor
  3534 ;; This function uses a non-reentrant model
  3535 ;;
  3536                           
  3537                           
  3538                           ;psect for function _lcd_cmd
  3539  17A0                     _lcd_cmd:	
  3540                           
  3541                           ;incstack = 0
  3542                           ; Regs used in _lcd_cmd: [wreg]
  3543                           ;lcd_cmd@command stored from wreg
  3544  17A0  00F4               	movwf	lcd_cmd@command
  3545  17A1                     l1870:	
  3546                           
  3547                           ;LCD_Init.c: 31:     PORTBbits.RB6 = 0;
  3548  17A1  1283               	bcf	3,5	;RP0=0, select bank0
  3549  17A2  1303               	bcf	3,6	;RP1=0, select bank0
  3550  17A3  1306               	bcf	6,6	;volatile
  3551  17A4                     l1872:	
  3552                           
  3553                           ;LCD_Init.c: 32:     PORTD = command;
  3554  17A4  0874               	movf	lcd_cmd@command,w
  3555  17A5  0088               	movwf	8	;volatile
  3556  17A6                     l1874:	
  3557                           
  3558                           ;LCD_Init.c: 33:     PORTBbits.RB7 = 1;
  3559  17A6  1786               	bsf	6,7	;volatile
  3560                           
  3561                           ;LCD_Init.c: 34:     _delay((unsigned long)((4)*(4000000/4000.0)));
  3562  17A7  3006               	movlw	6
  3563  17A8  00F3               	movwf	??_lcd_cmd+1
  3564  17A9  3030               	movlw	48
  3565  17AA  00F2               	movwf	??_lcd_cmd
  3566  17AB                     u4197:	
  3567  17AB  0BF2               	decfsz	??_lcd_cmd,f
  3568  17AC  2FAB               	goto	u4197
  3569  17AD  0BF3               	decfsz	??_lcd_cmd+1,f
  3570  17AE  2FAB               	goto	u4197
  3571  17AF  0000               	nop
  3572  17B0                     l1876:	
  3573                           
  3574                           ;LCD_Init.c: 35:     PORTBbits.RB7 = 0;
  3575  17B0  1283               	bcf	3,5	;RP0=0, select bank0
  3576  17B1  1303               	bcf	3,6	;RP1=0, select bank0
  3577  17B2  1386               	bcf	6,7	;volatile
  3578  17B3                     l102:	
  3579  17B3  0008               	return
  3580  17B4                     __end_of_lcd_cmd:	
  3581                           
  3582                           	psect	text14
  3583  0A41                     __ptext14:	
  3584 ;; *************** function _initADC *****************
  3585 ;; Defined at:
  3586 ;;		line 5 in file "ADC_Init.c"
  3587 ;; Parameters:    Size  Location     Type
  3588 ;;  analog          1    wreg     unsigned char 
  3589 ;; Auto vars:     Size  Location     Type
  3590 ;;  analog          1    4[COMMON] unsigned char 
  3591 ;; Return value:  Size  Location     Type
  3592 ;;                  1    wreg      void 
  3593 ;; Registers used:
  3594 ;;		wreg, fsr0l, fsr0h, status,2, status,0
  3595 ;; Tracked objects:
  3596 ;;		On entry : 0/0
  3597 ;;		On exit  : 0/0
  3598 ;;		Unchanged: 0/0
  3599 ;; Data sizes:     COMMON   BANK0   BANK1   BANK3   BANK2
  3600 ;;      Params:         0       0       0       0       0
  3601 ;;      Locals:         1       0       0       0       0
  3602 ;;      Temps:          2       0       0       0       0
  3603 ;;      Totals:         3       0       0       0       0
  3604 ;;Total ram usage:        3 bytes
  3605 ;; Hardware stack levels used:    1
  3606 ;; Hardware stack levels required when called:    1
  3607 ;; This function calls:
  3608 ;;		Nothing
  3609 ;; This function is called by:
  3610 ;;		_main
  3611 ;; This function uses a non-reentrant model
  3612 ;;
  3613                           
  3614                           
  3615                           ;psect for function _initADC
  3616  0A41                     _initADC:	
  3617                           
  3618                           ;incstack = 0
  3619                           ; Regs used in _initADC: [wreg-fsr0h+status,2+status,0]
  3620                           ;initADC@analog stored from wreg
  3621  0A41  00F4               	movwf	initADC@analog
  3622  0A42                     l2238:	
  3623                           
  3624                           ;ADC_Init.c: 6:     INTCONbits.GIE = 1;
  3625  0A42  178B               	bsf	11,7	;volatile
  3626                           
  3627                           ;ADC_Init.c: 7:     INTCONbits.PEIE = 1;
  3628  0A43  170B               	bsf	11,6	;volatile
  3629                           
  3630                           ;ADC_Init.c: 9:     PIE1bits.ADIE = 1;
  3631  0A44  1683               	bsf	3,5	;RP0=1, select bank1
  3632  0A45  1303               	bcf	3,6	;RP1=0, select bank1
  3633  0A46  170C               	bsf	12,6	;volatile
  3634                           
  3635                           ;ADC_Init.c: 11:     PIR1bits.ADIF = 0;
  3636  0A47  1283               	bcf	3,5	;RP0=0, select bank0
  3637  0A48  1303               	bcf	3,6	;RP1=0, select bank0
  3638  0A49  130C               	bcf	12,6	;volatile
  3639                           
  3640                           ;ADC_Init.c: 13:     ADCON0bits.ADCS1 = 0;
  3641  0A4A  139F               	bcf	31,7	;volatile
  3642                           
  3643                           ;ADC_Init.c: 14:     ADCON0bits.ADCS0 = 1;
  3644  0A4B  171F               	bsf	31,6	;volatile
  3645                           
  3646                           ;ADC_Init.c: 15:     ADCON0bits.ADON = 1;
  3647  0A4C  141F               	bsf	31,0	;volatile
  3648                           
  3649                           ;ADC_Init.c: 17:     switch(analog){
  3650  0A4D  2A9E               	goto	l2242
  3651  0A4E                     l136:	
  3652                           ;ADC_Init.c: 18:         case 0:
  3653                           
  3654                           
  3655                           ;ADC_Init.c: 19:             ADCON0bits.CHS3 = 0;
  3656  0A4E  129F               	bcf	31,5	;volatile
  3657                           
  3658                           ;ADC_Init.c: 20:             ADCON0bits.CHS2 = 0;
  3659  0A4F  121F               	bcf	31,4	;volatile
  3660                           
  3661                           ;ADC_Init.c: 21:             ADCON0bits.CHS1 = 0;
  3662  0A50  119F               	bcf	31,3	;volatile
  3663                           
  3664                           ;ADC_Init.c: 22:             ADCON0bits.CHS0 = 0;
  3665  0A51  111F               	bcf	31,2	;volatile
  3666                           
  3667                           ;ADC_Init.c: 23:             break;
  3668  0A52  2AD8               	goto	l2244
  3669  0A53                     l138:	
  3670                           ;ADC_Init.c: 25:         case 1:
  3671                           
  3672                           
  3673                           ;ADC_Init.c: 26:             ADCON0bits.CHS3 = 0;
  3674  0A53  129F               	bcf	31,5	;volatile
  3675                           
  3676                           ;ADC_Init.c: 27:             ADCON0bits.CHS2 = 0;
  3677  0A54  121F               	bcf	31,4	;volatile
  3678                           
  3679                           ;ADC_Init.c: 28:             ADCON0bits.CHS1 = 0;
  3680  0A55  119F               	bcf	31,3	;volatile
  3681                           
  3682                           ;ADC_Init.c: 29:             ADCON0bits.CHS0 = 1;
  3683  0A56  151F               	bsf	31,2	;volatile
  3684                           
  3685                           ;ADC_Init.c: 30:             break;
  3686  0A57  2AD8               	goto	l2244
  3687  0A58                     l139:	
  3688                           ;ADC_Init.c: 32:         case 2:
  3689                           
  3690                           
  3691                           ;ADC_Init.c: 33:             ADCON0bits.CHS3 = 0;
  3692  0A58  129F               	bcf	31,5	;volatile
  3693                           
  3694                           ;ADC_Init.c: 34:             ADCON0bits.CHS2 = 0;
  3695  0A59  121F               	bcf	31,4	;volatile
  3696                           
  3697                           ;ADC_Init.c: 35:             ADCON0bits.CHS1 = 1;
  3698  0A5A  159F               	bsf	31,3	;volatile
  3699                           
  3700                           ;ADC_Init.c: 36:             ADCON0bits.CHS0 = 0;
  3701  0A5B  111F               	bcf	31,2	;volatile
  3702                           
  3703                           ;ADC_Init.c: 37:             break;
  3704  0A5C  2AD8               	goto	l2244
  3705  0A5D                     l140:	
  3706                           ;ADC_Init.c: 39:         case 3:
  3707                           
  3708                           
  3709                           ;ADC_Init.c: 40:             ADCON0bits.CHS3 = 0;
  3710  0A5D  129F               	bcf	31,5	;volatile
  3711                           
  3712                           ;ADC_Init.c: 41:             ADCON0bits.CHS2 = 0;
  3713  0A5E  121F               	bcf	31,4	;volatile
  3714                           
  3715                           ;ADC_Init.c: 42:             ADCON0bits.CHS1 = 1;
  3716  0A5F  159F               	bsf	31,3	;volatile
  3717                           
  3718                           ;ADC_Init.c: 43:             ADCON0bits.CHS0 = 1;
  3719  0A60  151F               	bsf	31,2	;volatile
  3720                           
  3721                           ;ADC_Init.c: 44:             break;
  3722  0A61  2AD8               	goto	l2244
  3723  0A62                     l141:	
  3724                           ;ADC_Init.c: 46:         case 4:
  3725                           
  3726                           
  3727                           ;ADC_Init.c: 47:             ADCON0bits.CHS3 = 0;
  3728  0A62  129F               	bcf	31,5	;volatile
  3729                           
  3730                           ;ADC_Init.c: 48:             ADCON0bits.CHS2 = 1;
  3731  0A63  161F               	bsf	31,4	;volatile
  3732                           
  3733                           ;ADC_Init.c: 49:             ADCON0bits.CHS1 = 0;
  3734  0A64  119F               	bcf	31,3	;volatile
  3735                           
  3736                           ;ADC_Init.c: 50:             ADCON0bits.CHS0 = 0;
  3737  0A65  111F               	bcf	31,2	;volatile
  3738                           
  3739                           ;ADC_Init.c: 51:             break;
  3740  0A66  2AD8               	goto	l2244
  3741  0A67                     l142:	
  3742                           ;ADC_Init.c: 53:         case 5:
  3743                           
  3744                           
  3745                           ;ADC_Init.c: 54:             ADCON0bits.CHS3 = 0;
  3746  0A67  129F               	bcf	31,5	;volatile
  3747                           
  3748                           ;ADC_Init.c: 55:             ADCON0bits.CHS2 = 1;
  3749  0A68  161F               	bsf	31,4	;volatile
  3750                           
  3751                           ;ADC_Init.c: 56:             ADCON0bits.CHS1 = 0;
  3752  0A69  119F               	bcf	31,3	;volatile
  3753                           
  3754                           ;ADC_Init.c: 57:             ADCON0bits.CHS0 = 1;
  3755  0A6A  151F               	bsf	31,2	;volatile
  3756                           
  3757                           ;ADC_Init.c: 58:             break;
  3758  0A6B  2AD8               	goto	l2244
  3759  0A6C                     l143:	
  3760                           ;ADC_Init.c: 60:         case 6:
  3761                           
  3762                           
  3763                           ;ADC_Init.c: 61:             ADCON0bits.CHS3 = 0;
  3764  0A6C  129F               	bcf	31,5	;volatile
  3765                           
  3766                           ;ADC_Init.c: 62:             ADCON0bits.CHS2 = 1;
  3767  0A6D  161F               	bsf	31,4	;volatile
  3768                           
  3769                           ;ADC_Init.c: 63:             ADCON0bits.CHS1 = 1;
  3770  0A6E  159F               	bsf	31,3	;volatile
  3771                           
  3772                           ;ADC_Init.c: 64:             ADCON0bits.CHS0 = 0;
  3773  0A6F  111F               	bcf	31,2	;volatile
  3774                           
  3775                           ;ADC_Init.c: 65:             break;
  3776  0A70  2AD8               	goto	l2244
  3777  0A71                     l144:	
  3778                           ;ADC_Init.c: 67:         case 7:
  3779                           
  3780                           
  3781                           ;ADC_Init.c: 68:             ADCON0bits.CHS3 = 0;
  3782  0A71  129F               	bcf	31,5	;volatile
  3783                           
  3784                           ;ADC_Init.c: 69:             ADCON0bits.CHS2 = 1;
  3785  0A72  161F               	bsf	31,4	;volatile
  3786                           
  3787                           ;ADC_Init.c: 70:             ADCON0bits.CHS1 = 1;
  3788  0A73  159F               	bsf	31,3	;volatile
  3789                           
  3790                           ;ADC_Init.c: 71:             ADCON0bits.CHS0 = 1;
  3791  0A74  151F               	bsf	31,2	;volatile
  3792                           
  3793                           ;ADC_Init.c: 72:             break;
  3794  0A75  2AD8               	goto	l2244
  3795  0A76                     l145:	
  3796                           ;ADC_Init.c: 74:         case 8:
  3797                           
  3798                           
  3799                           ;ADC_Init.c: 75:             ADCON0bits.CHS3 = 1;
  3800  0A76  169F               	bsf	31,5	;volatile
  3801                           
  3802                           ;ADC_Init.c: 76:             ADCON0bits.CHS2 = 0;
  3803  0A77  121F               	bcf	31,4	;volatile
  3804                           
  3805                           ;ADC_Init.c: 77:             ADCON0bits.CHS1 = 0;
  3806  0A78  119F               	bcf	31,3	;volatile
  3807                           
  3808                           ;ADC_Init.c: 78:             ADCON0bits.CHS0 = 0;
  3809  0A79  111F               	bcf	31,2	;volatile
  3810                           
  3811                           ;ADC_Init.c: 79:             break;
  3812  0A7A  2AD8               	goto	l2244
  3813  0A7B                     l146:	
  3814                           ;ADC_Init.c: 81:         case 9:
  3815                           
  3816                           
  3817                           ;ADC_Init.c: 82:             ADCON0bits.CHS3 = 1;
  3818  0A7B  169F               	bsf	31,5	;volatile
  3819                           
  3820                           ;ADC_Init.c: 83:             ADCON0bits.CHS2 = 0;
  3821  0A7C  121F               	bcf	31,4	;volatile
  3822                           
  3823                           ;ADC_Init.c: 84:             ADCON0bits.CHS1 = 0;
  3824  0A7D  119F               	bcf	31,3	;volatile
  3825                           
  3826                           ;ADC_Init.c: 85:             ADCON0bits.CHS0 = 1;
  3827  0A7E  151F               	bsf	31,2	;volatile
  3828                           
  3829                           ;ADC_Init.c: 86:             break;
  3830  0A7F  2AD8               	goto	l2244
  3831  0A80                     l147:	
  3832                           ;ADC_Init.c: 88:         case 10:
  3833                           
  3834                           
  3835                           ;ADC_Init.c: 89:             ADCON0bits.CHS3 = 1;
  3836  0A80  169F               	bsf	31,5	;volatile
  3837                           
  3838                           ;ADC_Init.c: 90:             ADCON0bits.CHS2 = 0;
  3839  0A81  121F               	bcf	31,4	;volatile
  3840                           
  3841                           ;ADC_Init.c: 91:             ADCON0bits.CHS1 = 1;
  3842  0A82  159F               	bsf	31,3	;volatile
  3843                           
  3844                           ;ADC_Init.c: 92:             ADCON0bits.CHS0 = 0;
  3845  0A83  111F               	bcf	31,2	;volatile
  3846                           
  3847                           ;ADC_Init.c: 93:             break;
  3848  0A84  2AD8               	goto	l2244
  3849  0A85                     l148:	
  3850                           ;ADC_Init.c: 95:         case 11:
  3851                           
  3852                           
  3853                           ;ADC_Init.c: 96:             ADCON0bits.CHS3 = 1;
  3854  0A85  169F               	bsf	31,5	;volatile
  3855                           
  3856                           ;ADC_Init.c: 97:             ADCON0bits.CHS2 = 0;
  3857  0A86  121F               	bcf	31,4	;volatile
  3858                           
  3859                           ;ADC_Init.c: 98:             ADCON0bits.CHS1 = 1;
  3860  0A87  159F               	bsf	31,3	;volatile
  3861                           
  3862                           ;ADC_Init.c: 99:             ADCON0bits.CHS0 = 1;
  3863  0A88  151F               	bsf	31,2	;volatile
  3864                           
  3865                           ;ADC_Init.c: 100:             break;
  3866  0A89  2AD8               	goto	l2244
  3867  0A8A                     l149:	
  3868                           ;ADC_Init.c: 102:         case 12:
  3869                           
  3870                           
  3871                           ;ADC_Init.c: 103:             ADCON0bits.CHS3 = 1;
  3872  0A8A  169F               	bsf	31,5	;volatile
  3873                           
  3874                           ;ADC_Init.c: 104:             ADCON0bits.CHS2 = 1;
  3875  0A8B  161F               	bsf	31,4	;volatile
  3876                           
  3877                           ;ADC_Init.c: 105:             ADCON0bits.CHS1 = 0;
  3878  0A8C  119F               	bcf	31,3	;volatile
  3879                           
  3880                           ;ADC_Init.c: 106:             ADCON0bits.CHS0 = 0;
  3881  0A8D  111F               	bcf	31,2	;volatile
  3882                           
  3883                           ;ADC_Init.c: 107:             break;
  3884  0A8E  2AD8               	goto	l2244
  3885  0A8F                     l150:	
  3886                           ;ADC_Init.c: 109:         case 13:
  3887                           
  3888                           
  3889                           ;ADC_Init.c: 110:             ADCON0bits.CHS3 = 1;
  3890  0A8F  169F               	bsf	31,5	;volatile
  3891                           
  3892                           ;ADC_Init.c: 111:             ADCON0bits.CHS2 = 1;
  3893  0A90  161F               	bsf	31,4	;volatile
  3894                           
  3895                           ;ADC_Init.c: 112:             ADCON0bits.CHS1 = 0;
  3896  0A91  119F               	bcf	31,3	;volatile
  3897                           
  3898                           ;ADC_Init.c: 113:             ADCON0bits.CHS0 = 1;
  3899  0A92  151F               	bsf	31,2	;volatile
  3900                           
  3901                           ;ADC_Init.c: 114:             break;
  3902  0A93  2AD8               	goto	l2244
  3903  0A94                     l151:	
  3904                           ;ADC_Init.c: 116:         case 14:
  3905                           
  3906                           
  3907                           ;ADC_Init.c: 117:             ADCON0bits.CHS3 = 1;
  3908  0A94  169F               	bsf	31,5	;volatile
  3909                           
  3910                           ;ADC_Init.c: 118:             ADCON0bits.CHS2 = 1;
  3911  0A95  161F               	bsf	31,4	;volatile
  3912                           
  3913                           ;ADC_Init.c: 119:             ADCON0bits.CHS1 = 1;
  3914  0A96  159F               	bsf	31,3	;volatile
  3915                           
  3916                           ;ADC_Init.c: 120:             ADCON0bits.CHS0 = 0;
  3917  0A97  111F               	bcf	31,2	;volatile
  3918                           
  3919                           ;ADC_Init.c: 121:             break;
  3920  0A98  2AD8               	goto	l2244
  3921  0A99                     l152:	
  3922                           ;ADC_Init.c: 123:         case 15:
  3923                           
  3924                           
  3925                           ;ADC_Init.c: 124:             ADCON0bits.CHS3 = 1;
  3926  0A99  169F               	bsf	31,5	;volatile
  3927                           
  3928                           ;ADC_Init.c: 125:             ADCON0bits.CHS2 = 1;
  3929  0A9A  161F               	bsf	31,4	;volatile
  3930                           
  3931                           ;ADC_Init.c: 126:             ADCON0bits.CHS1 = 1;
  3932  0A9B  159F               	bsf	31,3	;volatile
  3933                           
  3934                           ;ADC_Init.c: 127:             ADCON0bits.CHS0 = 1;
  3935  0A9C  151F               	bsf	31,2	;volatile
  3936                           
  3937                           ;ADC_Init.c: 128:             break;
  3938  0A9D  2AD8               	goto	l2244
  3939  0A9E                     l2242:	
  3940  0A9E  0874               	movf	initADC@analog,w
  3941  0A9F  00F2               	movwf	??_initADC
  3942  0AA0  01F3               	clrf	??_initADC+1
  3943                           
  3944                           ; Switch on 2 bytes has been partitioned into a top level switch of size 1, and 1 sub-sw
      +                          itches
  3945                           ; Switch size 1, requested type "simple"
  3946                           ; Number of cases is 1, Range of values is 0 to 0
  3947                           ; switch strategies available:
  3948                           ; Name         Instructions Cycles
  3949                           ; simple_byte            4     3 (average)
  3950                           ; direct_byte           11     8 (fixed)
  3951                           ; jumptable            260     6 (fixed)
  3952                           ;	Chosen strategy is simple_byte
  3953  0AA1  0873               	movf	??_initADC+1,w
  3954  0AA2  3A00               	xorlw	0	; case 0
  3955  0AA3  1903               	skipnz
  3956  0AA4  2AA6               	goto	l3332
  3957  0AA5  2AD8               	goto	l2244
  3958  0AA6                     l3332:	
  3959                           
  3960                           ; Switch size 1, requested type "simple"
  3961                           ; Number of cases is 16, Range of values is 0 to 15
  3962                           ; switch strategies available:
  3963                           ; Name         Instructions Cycles
  3964                           ; simple_byte           49    25 (average)
  3965                           ; direct_byte           56     8 (fixed)
  3966                           ; jumptable            260     6 (fixed)
  3967                           ;	Chosen strategy is simple_byte
  3968  0AA6  0872               	movf	??_initADC,w
  3969  0AA7  3A00               	xorlw	0	; case 0
  3970  0AA8  1903               	skipnz
  3971  0AA9  2A4E               	goto	l136
  3972  0AAA  3A01               	xorlw	1	; case 1
  3973  0AAB  1903               	skipnz
  3974  0AAC  2A53               	goto	l138
  3975  0AAD  3A03               	xorlw	3	; case 2
  3976  0AAE  1903               	skipnz
  3977  0AAF  2A58               	goto	l139
  3978  0AB0  3A01               	xorlw	1	; case 3
  3979  0AB1  1903               	skipnz
  3980  0AB2  2A5D               	goto	l140
  3981  0AB3  3A07               	xorlw	7	; case 4
  3982  0AB4  1903               	skipnz
  3983  0AB5  2A62               	goto	l141
  3984  0AB6  3A01               	xorlw	1	; case 5
  3985  0AB7  1903               	skipnz
  3986  0AB8  2A67               	goto	l142
  3987  0AB9  3A03               	xorlw	3	; case 6
  3988  0ABA  1903               	skipnz
  3989  0ABB  2A6C               	goto	l143
  3990  0ABC  3A01               	xorlw	1	; case 7
  3991  0ABD  1903               	skipnz
  3992  0ABE  2A71               	goto	l144
  3993  0ABF  3A0F               	xorlw	15	; case 8
  3994  0AC0  1903               	skipnz
  3995  0AC1  2A76               	goto	l145
  3996  0AC2  3A01               	xorlw	1	; case 9
  3997  0AC3  1903               	skipnz
  3998  0AC4  2A7B               	goto	l146
  3999  0AC5  3A03               	xorlw	3	; case 10
  4000  0AC6  1903               	skipnz
  4001  0AC7  2A80               	goto	l147
  4002  0AC8  3A01               	xorlw	1	; case 11
  4003  0AC9  1903               	skipnz
  4004  0ACA  2A85               	goto	l148
  4005  0ACB  3A07               	xorlw	7	; case 12
  4006  0ACC  1903               	skipnz
  4007  0ACD  2A8A               	goto	l149
  4008  0ACE  3A01               	xorlw	1	; case 13
  4009  0ACF  1903               	skipnz
  4010  0AD0  2A8F               	goto	l150
  4011  0AD1  3A03               	xorlw	3	; case 14
  4012  0AD2  1903               	skipnz
  4013  0AD3  2A94               	goto	l151
  4014  0AD4  3A01               	xorlw	1	; case 15
  4015  0AD5  1903               	skipnz
  4016  0AD6  2A99               	goto	l152
  4017  0AD7  2AD8               	goto	l2244
  4018  0AD8                     l2244:	
  4019                           
  4020                           ;ADC_Init.c: 130:     ADCON1 = 0;
  4021  0AD8  1683               	bsf	3,5	;RP0=1, select bank1
  4022  0AD9  1303               	bcf	3,6	;RP1=0, select bank1
  4023  0ADA  019F               	clrf	31	;volatile
  4024  0ADB                     l2246:	
  4025                           
  4026                           ;ADC_Init.c: 132:     ADCON0bits.GO_DONE = 1;
  4027  0ADB  1283               	bcf	3,5	;RP0=0, select bank0
  4028  0ADC  1303               	bcf	3,6	;RP1=0, select bank0
  4029  0ADD  149F               	bsf	31,1	;volatile
  4030  0ADE                     l153:	
  4031  0ADE  0008               	return
  4032  0ADF                     __end_of_initADC:	
  4033                           
  4034                           	psect	text15
  4035  0ADF                     __ptext15:	
  4036 ;; *************** function ___xxtofl *****************
  4037 ;; Defined at:
  4038 ;;		line 10 in file "C:\Program Files (x86)\Microchip\xc8\v2.10\pic\sources\c90\common\xxtofl.c"
  4039 ;; Parameters:    Size  Location     Type
  4040 ;;  sign            1    wreg     unsigned char 
  4041 ;;  val             4    2[COMMON] long 
  4042 ;; Auto vars:     Size  Location     Type
  4043 ;;  sign            1    0[BANK0 ] unsigned char 
  4044 ;;  arg             4    2[BANK0 ] unsigned long 
  4045 ;;  exp             1    1[BANK0 ] unsigned char 
  4046 ;; Return value:  Size  Location     Type
  4047 ;;                  4    2[COMMON] unsigned char 
  4048 ;; Registers used:
  4049 ;;		wreg, status,2, status,0
  4050 ;; Tracked objects:
  4051 ;;		On entry : 0/0
  4052 ;;		On exit  : 0/0
  4053 ;;		Unchanged: 0/0
  4054 ;; Data sizes:     COMMON   BANK0   BANK1   BANK3   BANK2
  4055 ;;      Params:         4       0       0       0       0
  4056 ;;      Locals:         0       6       0       0       0
  4057 ;;      Temps:          4       0       0       0       0
  4058 ;;      Totals:         8       6       0       0       0
  4059 ;;Total ram usage:       14 bytes
  4060 ;; Hardware stack levels used:    1
  4061 ;; Hardware stack levels required when called:    1
  4062 ;; This function calls:
  4063 ;;		Nothing
  4064 ;; This function is called by:
  4065 ;;		_main
  4066 ;; This function uses a non-reentrant model
  4067 ;;
  4068                           
  4069                           
  4070                           ;psect for function ___xxtofl
  4071  0ADF                     ___xxtofl:	
  4072                           
  4073                           ;incstack = 0
  4074                           ; Regs used in ___xxtofl: [wreg+status,2+status,0]
  4075                           ;___xxtofl@sign stored from wreg
  4076  0ADF  1283               	bcf	3,5	;RP0=0, select bank0
  4077  0AE0  1303               	bcf	3,6	;RP1=0, select bank0
  4078  0AE1  00A0               	movwf	___xxtofl@sign
  4079  0AE2                     l2546:	
  4080  0AE2  0820               	movf	___xxtofl@sign,w
  4081  0AE3  1903               	btfsc	3,2
  4082  0AE4  2AE6               	goto	u3221
  4083  0AE5  2AE7               	goto	u3220
  4084  0AE6                     u3221:	
  4085  0AE6  2AFB               	goto	l2552
  4086  0AE7                     u3220:	
  4087  0AE7                     l2548:	
  4088  0AE7  1FF5               	btfss	___xxtofl@val+3,7
  4089  0AE8  2AEA               	goto	u3231
  4090  0AE9  2AEB               	goto	u3230
  4091  0AEA                     u3231:	
  4092  0AEA  2AFB               	goto	l2552
  4093  0AEB                     u3230:	
  4094  0AEB                     l2550:	
  4095  0AEB  0972               	comf	___xxtofl@val,w
  4096  0AEC  00A2               	movwf	___xxtofl@arg
  4097  0AED  0973               	comf	___xxtofl@val+1,w
  4098  0AEE  00A3               	movwf	___xxtofl@arg+1
  4099  0AEF  0974               	comf	___xxtofl@val+2,w
  4100  0AF0  00A4               	movwf	___xxtofl@arg+2
  4101  0AF1  0975               	comf	___xxtofl@val+3,w
  4102  0AF2  00A5               	movwf	___xxtofl@arg+3
  4103  0AF3  0AA2               	incf	___xxtofl@arg,f
  4104  0AF4  1903               	skipnz
  4105  0AF5  0AA3               	incf	___xxtofl@arg+1,f
  4106  0AF6  1903               	skipnz
  4107  0AF7  0AA4               	incf	___xxtofl@arg+2,f
  4108  0AF8  1903               	skipnz
  4109  0AF9  0AA5               	incf	___xxtofl@arg+3,f
  4110  0AFA  2B03               	goto	l723
  4111  0AFB                     l2552:	
  4112  0AFB  0875               	movf	___xxtofl@val+3,w
  4113  0AFC  00A5               	movwf	___xxtofl@arg+3
  4114  0AFD  0874               	movf	___xxtofl@val+2,w
  4115  0AFE  00A4               	movwf	___xxtofl@arg+2
  4116  0AFF  0873               	movf	___xxtofl@val+1,w
  4117  0B00  00A3               	movwf	___xxtofl@arg+1
  4118  0B01  0872               	movf	___xxtofl@val,w
  4119  0B02  00A2               	movwf	___xxtofl@arg
  4120  0B03                     l723:	
  4121  0B03  0875               	movf	___xxtofl@val+3,w
  4122  0B04  0474               	iorwf	___xxtofl@val+2,w
  4123  0B05  0473               	iorwf	___xxtofl@val+1,w
  4124  0B06  0472               	iorwf	___xxtofl@val,w
  4125  0B07  1D03               	skipz
  4126  0B08  2B0A               	goto	u3241
  4127  0B09  2B0B               	goto	u3240
  4128  0B0A                     u3241:	
  4129  0B0A  2B14               	goto	l2558
  4130  0B0B                     u3240:	
  4131  0B0B                     l2554:	
  4132  0B0B  3000               	movlw	0
  4133  0B0C  00F5               	movwf	?___xxtofl+3
  4134  0B0D  3000               	movlw	0
  4135  0B0E  00F4               	movwf	?___xxtofl+2
  4136  0B0F  3000               	movlw	0
  4137  0B10  00F3               	movwf	?___xxtofl+1
  4138  0B11  3000               	movlw	0
  4139  0B12  00F2               	movwf	?___xxtofl
  4140  0B13  2B9A               	goto	l725
  4141  0B14                     l2558:	
  4142  0B14  3096               	movlw	150
  4143  0B15  00F6               	movwf	??___xxtofl
  4144  0B16  0876               	movf	??___xxtofl,w
  4145  0B17  00A1               	movwf	___xxtofl@exp
  4146  0B18  2B26               	goto	l2562
  4147  0B19                     l2560:	
  4148  0B19  3001               	movlw	1
  4149  0B1A  00F6               	movwf	??___xxtofl
  4150  0B1B  0876               	movf	??___xxtofl,w
  4151  0B1C  07A1               	addwf	___xxtofl@exp,f
  4152  0B1D  3001               	movlw	1
  4153  0B1E                     u3255:	
  4154  0B1E  1003               	clrc
  4155  0B1F  0CA5               	rrf	___xxtofl@arg+3,f
  4156  0B20  0CA4               	rrf	___xxtofl@arg+2,f
  4157  0B21  0CA3               	rrf	___xxtofl@arg+1,f
  4158  0B22  0CA2               	rrf	___xxtofl@arg,f
  4159  0B23  3EFF               	addlw	-1
  4160  0B24  1D03               	skipz
  4161  0B25  2B1E               	goto	u3255
  4162  0B26                     l2562:	
  4163  0B26  30FE               	movlw	254
  4164  0B27  0525               	andwf	___xxtofl@arg+3,w
  4165  0B28  1D03               	btfss	3,2
  4166  0B29  2B2B               	goto	u3261
  4167  0B2A  2B2C               	goto	u3260
  4168  0B2B                     u3261:	
  4169  0B2B  2B19               	goto	l2560
  4170  0B2C                     u3260:	
  4171  0B2C  2B48               	goto	l729
  4172  0B2D                     l2564:	
  4173  0B2D  3001               	movlw	1
  4174  0B2E  00F6               	movwf	??___xxtofl
  4175  0B2F  0876               	movf	??___xxtofl,w
  4176  0B30  07A1               	addwf	___xxtofl@exp,f
  4177  0B31                     l2566:	
  4178  0B31  3001               	movlw	1
  4179  0B32  07A2               	addwf	___xxtofl@arg,f
  4180  0B33  3000               	movlw	0
  4181  0B34  1803               	skipnc
  4182  0B35  3001               	movlw	1
  4183  0B36  07A3               	addwf	___xxtofl@arg+1,f
  4184  0B37  3000               	movlw	0
  4185  0B38  1803               	skipnc
  4186  0B39  3001               	movlw	1
  4187  0B3A  07A4               	addwf	___xxtofl@arg+2,f
  4188  0B3B  3000               	movlw	0
  4189  0B3C  1803               	skipnc
  4190  0B3D  3001               	movlw	1
  4191  0B3E  07A5               	addwf	___xxtofl@arg+3,f
  4192  0B3F                     l2568:	
  4193  0B3F  3001               	movlw	1
  4194  0B40                     u3275:	
  4195  0B40  1003               	clrc
  4196  0B41  0CA5               	rrf	___xxtofl@arg+3,f
  4197  0B42  0CA4               	rrf	___xxtofl@arg+2,f
  4198  0B43  0CA3               	rrf	___xxtofl@arg+1,f
  4199  0B44  0CA2               	rrf	___xxtofl@arg,f
  4200  0B45  3EFF               	addlw	-1
  4201  0B46  1D03               	skipz
  4202  0B47  2B40               	goto	u3275
  4203  0B48                     l729:	
  4204  0B48  30FF               	movlw	255
  4205  0B49  0525               	andwf	___xxtofl@arg+3,w
  4206  0B4A  1D03               	btfss	3,2
  4207  0B4B  2B4D               	goto	u3281
  4208  0B4C  2B4E               	goto	u3280
  4209  0B4D                     u3281:	
  4210  0B4D  2B2D               	goto	l2564
  4211  0B4E                     u3280:	
  4212  0B4E  2B5A               	goto	l2572
  4213  0B4F                     l2570:	
  4214  0B4F  3001               	movlw	1
  4215  0B50  02A1               	subwf	___xxtofl@exp,f
  4216  0B51  3001               	movlw	1
  4217  0B52  00F6               	movwf	??___xxtofl
  4218  0B53                     u3295:	
  4219  0B53  1003               	clrc
  4220  0B54  0DA2               	rlf	___xxtofl@arg,f
  4221  0B55  0DA3               	rlf	___xxtofl@arg+1,f
  4222  0B56  0DA4               	rlf	___xxtofl@arg+2,f
  4223  0B57  0DA5               	rlf	___xxtofl@arg+3,f
  4224  0B58  0BF6               	decfsz	??___xxtofl,f
  4225  0B59  2B53               	goto	u3295
  4226  0B5A                     l2572:	
  4227  0B5A  1BA4               	btfsc	___xxtofl@arg+2,7
  4228  0B5B  2B5D               	goto	u3301
  4229  0B5C  2B5E               	goto	u3300
  4230  0B5D                     u3301:	
  4231  0B5D  2B64               	goto	l736
  4232  0B5E                     u3300:	
  4233  0B5E                     l2574:	
  4234  0B5E  3002               	movlw	2
  4235  0B5F  0221               	subwf	___xxtofl@exp,w
  4236  0B60  1803               	skipnc
  4237  0B61  2B63               	goto	u3311
  4238  0B62  2B64               	goto	u3310
  4239  0B63                     u3311:	
  4240  0B63  2B4F               	goto	l2570
  4241  0B64                     u3310:	
  4242  0B64                     l736:	
  4243  0B64  1821               	btfsc	___xxtofl@exp,0
  4244  0B65  2B67               	goto	u3321
  4245  0B66  2B68               	goto	u3320
  4246  0B67                     u3321:	
  4247  0B67  2B70               	goto	l737
  4248  0B68                     u3320:	
  4249  0B68                     l2576:	
  4250  0B68  30FF               	movlw	255
  4251  0B69  05A2               	andwf	___xxtofl@arg,f
  4252  0B6A  30FF               	movlw	255
  4253  0B6B  05A3               	andwf	___xxtofl@arg+1,f
  4254  0B6C  307F               	movlw	127
  4255  0B6D  05A4               	andwf	___xxtofl@arg+2,f
  4256  0B6E  30FF               	movlw	255
  4257  0B6F  05A5               	andwf	___xxtofl@arg+3,f
  4258  0B70                     l737:	
  4259  0B70  1003               	clrc
  4260  0B71  0CA1               	rrf	___xxtofl@exp,f
  4261  0B72                     l2578:	
  4262  0B72  0821               	movf	___xxtofl@exp,w
  4263  0B73  00F6               	movwf	??___xxtofl
  4264  0B74  01F7               	clrf	??___xxtofl+1
  4265  0B75  01F8               	clrf	??___xxtofl+2
  4266  0B76  01F9               	clrf	??___xxtofl+3
  4267  0B77  3018               	movlw	24
  4268  0B78                     u3335:	
  4269  0B78  1003               	clrc
  4270  0B79  0DF6               	rlf	??___xxtofl,f
  4271  0B7A  0DF7               	rlf	??___xxtofl+1,f
  4272  0B7B  0DF8               	rlf	??___xxtofl+2,f
  4273  0B7C  0DF9               	rlf	??___xxtofl+3,f
  4274  0B7D                     u3330:	
  4275  0B7D  3EFF               	addlw	-1
  4276  0B7E  1D03               	skipz
  4277  0B7F  2B78               	goto	u3335
  4278  0B80  0876               	movf	??___xxtofl,w
  4279  0B81  04A2               	iorwf	___xxtofl@arg,f
  4280  0B82  0877               	movf	??___xxtofl+1,w
  4281  0B83  04A3               	iorwf	___xxtofl@arg+1,f
  4282  0B84  0878               	movf	??___xxtofl+2,w
  4283  0B85  04A4               	iorwf	___xxtofl@arg+2,f
  4284  0B86  0879               	movf	??___xxtofl+3,w
  4285  0B87  04A5               	iorwf	___xxtofl@arg+3,f
  4286  0B88                     l2580:	
  4287  0B88  0820               	movf	___xxtofl@sign,w
  4288  0B89  1903               	btfsc	3,2
  4289  0B8A  2B8C               	goto	u3341
  4290  0B8B  2B8D               	goto	u3340
  4291  0B8C                     u3341:	
  4292  0B8C  2B92               	goto	l2586
  4293  0B8D                     u3340:	
  4294  0B8D                     l2582:	
  4295  0B8D  1FF5               	btfss	___xxtofl@val+3,7
  4296  0B8E  2B90               	goto	u3351
  4297  0B8F  2B91               	goto	u3350
  4298  0B90                     u3351:	
  4299  0B90  2B92               	goto	l2586
  4300  0B91                     u3350:	
  4301  0B91                     l2584:	
  4302  0B91  17A5               	bsf	___xxtofl@arg+3,7
  4303  0B92                     l2586:	
  4304  0B92  0825               	movf	___xxtofl@arg+3,w
  4305  0B93  00F5               	movwf	?___xxtofl+3
  4306  0B94  0824               	movf	___xxtofl@arg+2,w
  4307  0B95  00F4               	movwf	?___xxtofl+2
  4308  0B96  0823               	movf	___xxtofl@arg+1,w
  4309  0B97  00F3               	movwf	?___xxtofl+1
  4310  0B98  0822               	movf	___xxtofl@arg,w
  4311  0B99  00F2               	movwf	?___xxtofl
  4312  0B9A                     l725:	
  4313  0B9A  0008               	return
  4314  0B9B                     __end_of___xxtofl:	
  4315                           
  4316                           	psect	text16
  4317  084D                     __ptext16:	
  4318 ;; *************** function ___flsub *****************
  4319 ;; Defined at:
  4320 ;;		line 242 in file "C:\Program Files (x86)\Microchip\xc8\v2.10\pic\sources\c90\common\sprcadd.c"
  4321 ;; Parameters:    Size  Location     Type
  4322 ;;  a               4   12[BANK0 ] unsigned char 
  4323 ;;  b               4   16[BANK0 ] unsigned char 
  4324 ;; Auto vars:     Size  Location     Type
  4325 ;;		None
  4326 ;; Return value:  Size  Location     Type
  4327 ;;                  4   12[BANK0 ] unsigned char 
  4328 ;; Registers used:
  4329 ;;		wreg, status,2, status,0, btemp+1, pclath, cstack
  4330 ;; Tracked objects:
  4331 ;;		On entry : 0/0
  4332 ;;		On exit  : 0/0
  4333 ;;		Unchanged: 0/0
  4334 ;; Data sizes:     COMMON   BANK0   BANK1   BANK3   BANK2
  4335 ;;      Params:         0       8       0       0       0
  4336 ;;      Locals:         0       0       0       0       0
  4337 ;;      Temps:          0       0       0       0       0
  4338 ;;      Totals:         0       8       0       0       0
  4339 ;;Total ram usage:        8 bytes
  4340 ;; Hardware stack levels used:    1
  4341 ;; Hardware stack levels required when called:    2
  4342 ;; This function calls:
  4343 ;;		___fladd
  4344 ;; This function is called by:
  4345 ;;		_main
  4346 ;; This function uses a non-reentrant model
  4347 ;;
  4348                           
  4349                           
  4350                           ;psect for function ___flsub
  4351  084D                     ___flsub:	
  4352  084D                     l2258:	
  4353                           ;incstack = 0
  4354                           ; Regs used in ___flsub: [wreg+status,2+status,0+btemp+1+pclath+cstack]
  4355                           
  4356  084D  3080               	movlw	128
  4357  084E  1283               	bcf	3,5	;RP0=0, select bank0
  4358  084F  1303               	bcf	3,6	;RP1=0, select bank0
  4359  0850  06AF               	xorwf	___flsub@a+3,f
  4360  0851                     l2260:	
  4361  0851  0833               	movf	___flsub@b+3,w
  4362  0852  00F5               	movwf	___fladd@b+3
  4363  0853  0832               	movf	___flsub@b+2,w
  4364  0854  00F4               	movwf	___fladd@b+2
  4365  0855  0831               	movf	___flsub@b+1,w
  4366  0856  00F3               	movwf	___fladd@b+1
  4367  0857  0830               	movf	___flsub@b,w
  4368  0858  00F2               	movwf	___fladd@b
  4369  0859  082F               	movf	___flsub@a+3,w
  4370  085A  00F9               	movwf	___fladd@a+3
  4371  085B  082E               	movf	___flsub@a+2,w
  4372  085C  00F8               	movwf	___fladd@a+2
  4373  085D  082D               	movf	___flsub@a+1,w
  4374  085E  00F7               	movwf	___fladd@a+1
  4375  085F  082C               	movf	___flsub@a,w
  4376  0860  00F6               	movwf	___fladd@a
  4377  0861  120A  158A  2578  120A  158A  	fcall	___fladd
  4378  0866  0875               	movf	?___fladd+3,w
  4379  0867  1283               	bcf	3,5	;RP0=0, select bank0
  4380  0868  1303               	bcf	3,6	;RP1=0, select bank0
  4381  0869  00AF               	movwf	?___flsub+3
  4382  086A  0874               	movf	?___fladd+2,w
  4383  086B  00AE               	movwf	?___flsub+2
  4384  086C  0873               	movf	?___fladd+1,w
  4385  086D  00AD               	movwf	?___flsub+1
  4386  086E  0872               	movf	?___fladd,w
  4387  086F  00AC               	movwf	?___flsub
  4388  0870                     l635:	
  4389  0870  0008               	return
  4390  0871                     __end_of___flsub:	
  4391                           
  4392                           	psect	text17
  4393  0D78                     __ptext17:	
  4394 ;; *************** function ___fladd *****************
  4395 ;; Defined at:
  4396 ;;		line 10 in file "C:\Program Files (x86)\Microchip\xc8\v2.10\pic\sources\c90\common\sprcadd.c"
  4397 ;; Parameters:    Size  Location     Type
  4398 ;;  b               4    2[COMMON] unsigned char 
  4399 ;;  a               4    6[COMMON] unsigned char 
  4400 ;; Auto vars:     Size  Location     Type
  4401 ;;  grs             1   11[BANK0 ] unsigned char 
  4402 ;;  bexp            1   10[BANK0 ] unsigned char 
  4403 ;;  aexp            1    9[BANK0 ] unsigned char 
  4404 ;;  signs           1    8[BANK0 ] unsigned char 
  4405 ;; Return value:  Size  Location     Type
  4406 ;;                  4    2[COMMON] unsigned char 
  4407 ;; Registers used:
  4408 ;;		wreg, status,2, status,0, btemp+1
  4409 ;; Tracked objects:
  4410 ;;		On entry : 0/0
  4411 ;;		On exit  : 0/0
  4412 ;;		Unchanged: 0/0
  4413 ;; Data sizes:     COMMON   BANK0   BANK1   BANK3   BANK2
  4414 ;;      Params:         8       0       0       0       0
  4415 ;;      Locals:         0       4       0       0       0
  4416 ;;      Temps:          0       8       0       0       0
  4417 ;;      Totals:         8      12       0       0       0
  4418 ;;Total ram usage:       20 bytes
  4419 ;; Hardware stack levels used:    1
  4420 ;; Hardware stack levels required when called:    1
  4421 ;; This function calls:
  4422 ;;		Nothing
  4423 ;; This function is called by:
  4424 ;;		___flsub
  4425 ;; This function uses a non-reentrant model
  4426 ;;
  4427                           
  4428                           
  4429                           ;psect for function ___fladd
  4430  0D78                     ___fladd:	
  4431  0D78                     l1976:	
  4432                           ;incstack = 0
  4433                           ; Regs used in ___fladd: [wreg+status,2+status,0+btemp+1]
  4434                           
  4435  0D78  0875               	movf	___fladd@b+3,w
  4436  0D79  3980               	andlw	128
  4437  0D7A  1283               	bcf	3,5	;RP0=0, select bank0
  4438  0D7B  1303               	bcf	3,6	;RP1=0, select bank0
  4439  0D7C  00A0               	movwf	??___fladd
  4440  0D7D  0820               	movf	??___fladd,w
  4441  0D7E  00A8               	movwf	___fladd@signs
  4442  0D7F                     l1978:	
  4443  0D7F  0875               	movf	___fladd@b+3,w
  4444  0D80  00A0               	movwf	??___fladd
  4445  0D81  0720               	addwf	??___fladd,w
  4446  0D82  00A1               	movwf	??___fladd+1
  4447  0D83  0821               	movf	??___fladd+1,w
  4448  0D84  00AA               	movwf	___fladd@bexp
  4449  0D85                     l1980:	
  4450  0D85  1FF4               	btfss	___fladd@b+2,7
  4451  0D86  2D88               	goto	u2041
  4452  0D87  2D89               	goto	u2040
  4453  0D88                     u2041:	
  4454  0D88  2D8A               	goto	l1984
  4455  0D89                     u2040:	
  4456  0D89                     l1982:	
  4457  0D89  142A               	bsf	___fladd@bexp,0
  4458  0D8A                     l1984:	
  4459  0D8A  082A               	movf	___fladd@bexp,w
  4460  0D8B  1903               	btfsc	3,2
  4461  0D8C  2D8E               	goto	u2051
  4462  0D8D  2D8F               	goto	u2050
  4463  0D8E                     u2051:	
  4464  0D8E  2D9F               	goto	l1994
  4465  0D8F                     u2050:	
  4466  0D8F                     l1986:	
  4467  0D8F  0A2A               	incf	___fladd@bexp,w
  4468  0D90  1D03               	btfss	3,2
  4469  0D91  2D93               	goto	u2061
  4470  0D92  2D94               	goto	u2060
  4471  0D93                     u2061:	
  4472  0D93  2D9C               	goto	l1990
  4473  0D94                     u2060:	
  4474  0D94                     l1988:	
  4475  0D94  3000               	movlw	0
  4476  0D95  00F5               	movwf	___fladd@b+3
  4477  0D96  3000               	movlw	0
  4478  0D97  00F4               	movwf	___fladd@b+2
  4479  0D98  3000               	movlw	0
  4480  0D99  00F3               	movwf	___fladd@b+1
  4481  0D9A  3000               	movlw	0
  4482  0D9B  00F2               	movwf	___fladd@b
  4483  0D9C                     l1990:	
  4484  0D9C  17F4               	bsf	___fladd@b+2,7
  4485  0D9D                     l1992:	
  4486  0D9D  01F5               	clrf	___fladd@b+3
  4487  0D9E  2DA7               	goto	l1996
  4488  0D9F                     l1994:	
  4489  0D9F  3000               	movlw	0
  4490  0DA0  00F5               	movwf	___fladd@b+3
  4491  0DA1  3000               	movlw	0
  4492  0DA2  00F4               	movwf	___fladd@b+2
  4493  0DA3  3000               	movlw	0
  4494  0DA4  00F3               	movwf	___fladd@b+1
  4495  0DA5  3000               	movlw	0
  4496  0DA6  00F2               	movwf	___fladd@b
  4497  0DA7                     l1996:	
  4498  0DA7  0879               	movf	___fladd@a+3,w
  4499  0DA8  3980               	andlw	128
  4500  0DA9  00A0               	movwf	??___fladd
  4501  0DAA  0820               	movf	??___fladd,w
  4502  0DAB  00A9               	movwf	___fladd@aexp
  4503  0DAC                     l1998:	
  4504  0DAC  0829               	movf	___fladd@aexp,w
  4505  0DAD  0628               	xorwf	___fladd@signs,w
  4506  0DAE  1903               	skipnz
  4507  0DAF  2DB1               	goto	u2071
  4508  0DB0  2DB2               	goto	u2070
  4509  0DB1                     u2071:	
  4510  0DB1  2DB3               	goto	l2002
  4511  0DB2                     u2070:	
  4512  0DB2                     l2000:	
  4513  0DB2  1728               	bsf	___fladd@signs,6
  4514  0DB3                     l2002:	
  4515  0DB3  0879               	movf	___fladd@a+3,w
  4516  0DB4  00A0               	movwf	??___fladd
  4517  0DB5  0720               	addwf	??___fladd,w
  4518  0DB6  00A1               	movwf	??___fladd+1
  4519  0DB7  0821               	movf	??___fladd+1,w
  4520  0DB8  00A9               	movwf	___fladd@aexp
  4521  0DB9                     l2004:	
  4522  0DB9  1FF8               	btfss	___fladd@a+2,7
  4523  0DBA  2DBC               	goto	u2081
  4524  0DBB  2DBD               	goto	u2080
  4525  0DBC                     u2081:	
  4526  0DBC  2DBE               	goto	l2008
  4527  0DBD                     u2080:	
  4528  0DBD                     l2006:	
  4529  0DBD  1429               	bsf	___fladd@aexp,0
  4530  0DBE                     l2008:	
  4531  0DBE  0829               	movf	___fladd@aexp,w
  4532  0DBF  1903               	btfsc	3,2
  4533  0DC0  2DC2               	goto	u2091
  4534  0DC1  2DC3               	goto	u2090
  4535  0DC2                     u2091:	
  4536  0DC2  2DD3               	goto	l2018
  4537  0DC3                     u2090:	
  4538  0DC3                     l2010:	
  4539  0DC3  0A29               	incf	___fladd@aexp,w
  4540  0DC4  1D03               	btfss	3,2
  4541  0DC5  2DC7               	goto	u2101
  4542  0DC6  2DC8               	goto	u2100
  4543  0DC7                     u2101:	
  4544  0DC7  2DD0               	goto	l2014
  4545  0DC8                     u2100:	
  4546  0DC8                     l2012:	
  4547  0DC8  3000               	movlw	0
  4548  0DC9  00F9               	movwf	___fladd@a+3
  4549  0DCA  3000               	movlw	0
  4550  0DCB  00F8               	movwf	___fladd@a+2
  4551  0DCC  3000               	movlw	0
  4552  0DCD  00F7               	movwf	___fladd@a+1
  4553  0DCE  3000               	movlw	0
  4554  0DCF  00F6               	movwf	___fladd@a
  4555  0DD0                     l2014:	
  4556  0DD0  17F8               	bsf	___fladd@a+2,7
  4557  0DD1                     l2016:	
  4558  0DD1  01F9               	clrf	___fladd@a+3
  4559  0DD2  2DDB               	goto	l589
  4560  0DD3                     l2018:	
  4561  0DD3  3000               	movlw	0
  4562  0DD4  00F9               	movwf	___fladd@a+3
  4563  0DD5  3000               	movlw	0
  4564  0DD6  00F8               	movwf	___fladd@a+2
  4565  0DD7  3000               	movlw	0
  4566  0DD8  00F7               	movwf	___fladd@a+1
  4567  0DD9  3000               	movlw	0
  4568  0DDA  00F6               	movwf	___fladd@a
  4569  0DDB                     l589:	
  4570  0DDB  082A               	movf	___fladd@bexp,w
  4571  0DDC  0229               	subwf	___fladd@aexp,w
  4572  0DDD  1803               	skipnc
  4573  0DDE  2DE0               	goto	u2111
  4574  0DDF  2DE1               	goto	u2110
  4575  0DE0                     u2111:	
  4576  0DE0  2E25               	goto	l2054
  4577  0DE1                     u2110:	
  4578  0DE1                     l2020:	
  4579  0DE1  1F28               	btfss	___fladd@signs,6
  4580  0DE2  2DE4               	goto	u2121
  4581  0DE3  2DE5               	goto	u2120
  4582  0DE4                     u2121:	
  4583  0DE4  2DE9               	goto	l2024
  4584  0DE5                     u2120:	
  4585  0DE5                     l2022:	
  4586  0DE5  3080               	movlw	128
  4587  0DE6  00A0               	movwf	??___fladd
  4588  0DE7  0820               	movf	??___fladd,w
  4589  0DE8  06A8               	xorwf	___fladd@signs,f
  4590  0DE9                     l2024:	
  4591  0DE9  082A               	movf	___fladd@bexp,w
  4592  0DEA  00A0               	movwf	??___fladd
  4593  0DEB  0820               	movf	??___fladd,w
  4594  0DEC  00AB               	movwf	___fladd@grs
  4595  0DED                     l2026:	
  4596  0DED  0829               	movf	___fladd@aexp,w
  4597  0DEE  00A0               	movwf	??___fladd
  4598  0DEF  0820               	movf	??___fladd,w
  4599  0DF0  00AA               	movwf	___fladd@bexp
  4600  0DF1                     l2028:	
  4601  0DF1  082B               	movf	___fladd@grs,w
  4602  0DF2  00A0               	movwf	??___fladd
  4603  0DF3  0820               	movf	??___fladd,w
  4604  0DF4  00A9               	movwf	___fladd@aexp
  4605  0DF5                     l2030:	
  4606  0DF5  0872               	movf	___fladd@b,w
  4607  0DF6  00A0               	movwf	??___fladd
  4608  0DF7  0820               	movf	??___fladd,w
  4609  0DF8  00AB               	movwf	___fladd@grs
  4610  0DF9                     l2032:	
  4611  0DF9  0876               	movf	___fladd@a,w
  4612  0DFA  00A0               	movwf	??___fladd
  4613  0DFB  0820               	movf	??___fladd,w
  4614  0DFC  00F2               	movwf	___fladd@b
  4615  0DFD                     l2034:	
  4616  0DFD  082B               	movf	___fladd@grs,w
  4617  0DFE  00A0               	movwf	??___fladd
  4618  0DFF  0820               	movf	??___fladd,w
  4619  0E00  00F6               	movwf	___fladd@a
  4620  0E01                     l2036:	
  4621  0E01  0873               	movf	___fladd@b+1,w
  4622  0E02  00A0               	movwf	??___fladd
  4623  0E03  0820               	movf	??___fladd,w
  4624  0E04  00AB               	movwf	___fladd@grs
  4625  0E05                     l2038:	
  4626  0E05  0877               	movf	___fladd@a+1,w
  4627  0E06  00A0               	movwf	??___fladd
  4628  0E07  0820               	movf	??___fladd,w
  4629  0E08  00F3               	movwf	___fladd@b+1
  4630  0E09                     l2040:	
  4631  0E09  082B               	movf	___fladd@grs,w
  4632  0E0A  00A0               	movwf	??___fladd
  4633  0E0B  0820               	movf	??___fladd,w
  4634  0E0C  00F7               	movwf	___fladd@a+1
  4635  0E0D                     l2042:	
  4636  0E0D  0874               	movf	___fladd@b+2,w
  4637  0E0E  00A0               	movwf	??___fladd
  4638  0E0F  0820               	movf	??___fladd,w
  4639  0E10  00AB               	movwf	___fladd@grs
  4640  0E11                     l2044:	
  4641  0E11  0878               	movf	___fladd@a+2,w
  4642  0E12  00A0               	movwf	??___fladd
  4643  0E13  0820               	movf	??___fladd,w
  4644  0E14  00F4               	movwf	___fladd@b+2
  4645  0E15                     l2046:	
  4646  0E15  082B               	movf	___fladd@grs,w
  4647  0E16  00A0               	movwf	??___fladd
  4648  0E17  0820               	movf	??___fladd,w
  4649  0E18  00F8               	movwf	___fladd@a+2
  4650  0E19                     l2048:	
  4651  0E19  0875               	movf	___fladd@b+3,w
  4652  0E1A  00A0               	movwf	??___fladd
  4653  0E1B  0820               	movf	??___fladd,w
  4654  0E1C  00AB               	movwf	___fladd@grs
  4655  0E1D                     l2050:	
  4656  0E1D  0879               	movf	___fladd@a+3,w
  4657  0E1E  00A0               	movwf	??___fladd
  4658  0E1F  0820               	movf	??___fladd,w
  4659  0E20  00F5               	movwf	___fladd@b+3
  4660  0E21                     l2052:	
  4661  0E21  082B               	movf	___fladd@grs,w
  4662  0E22  00A0               	movwf	??___fladd
  4663  0E23  0820               	movf	??___fladd,w
  4664  0E24  00F9               	movwf	___fladd@a+3
  4665  0E25                     l2054:	
  4666  0E25  01AB               	clrf	___fladd@grs
  4667  0E26                     l2056:	
  4668  0E26  0829               	movf	___fladd@aexp,w
  4669  0E27  00A0               	movwf	??___fladd
  4670  0E28  01A1               	clrf	??___fladd+1
  4671  0E29  0821               	movf	??___fladd+1,w
  4672  0E2A  00A3               	movwf	??___fladd+3
  4673  0E2B  082A               	movf	___fladd@bexp,w
  4674  0E2C  0220               	subwf	??___fladd,w
  4675  0E2D  00A2               	movwf	??___fladd+2
  4676  0E2E  1C03               	skipc
  4677  0E2F  03A3               	decf	??___fladd+3,f
  4678  0E30  0823               	movf	??___fladd+3,w
  4679  0E31  3A80               	xorlw	128
  4680  0E32  00FF               	movwf	btemp+1
  4681  0E33  3080               	movlw	128
  4682  0E34  027F               	subwf	btemp+1,w
  4683  0E35  1D03               	skipz
  4684  0E36  2E39               	goto	u2135
  4685  0E37  301A               	movlw	26
  4686  0E38  0222               	subwf	??___fladd+2,w
  4687  0E39                     u2135:	
  4688  0E39  1C03               	skipc
  4689  0E3A  2E3C               	goto	u2131
  4690  0E3B  2E3D               	goto	u2130
  4691  0E3C                     u2131:	
  4692  0E3C  2E7A               	goto	l2072
  4693  0E3D                     u2130:	
  4694  0E3D                     l2058:	
  4695  0E3D  0875               	movf	___fladd@b+3,w
  4696  0E3E  0474               	iorwf	___fladd@b+2,w
  4697  0E3F  0473               	iorwf	___fladd@b+1,w
  4698  0E40  0472               	iorwf	___fladd@b,w
  4699  0E41  1D03               	skipz
  4700  0E42  2E44               	goto	u2141
  4701  0E43  2E46               	goto	u2140
  4702  0E44                     u2141:	
  4703  0E44  3001               	movlw	1
  4704  0E45  2E47               	goto	u2150
  4705  0E46                     u2140:	
  4706  0E46  3000               	movlw	0
  4707  0E47                     u2150:	
  4708  0E47  1283               	bcf	3,5	;RP0=0, select bank0
  4709  0E48  1303               	bcf	3,6	;RP1=0, select bank0
  4710  0E49  00A0               	movwf	??___fladd
  4711  0E4A  0820               	movf	??___fladd,w
  4712  0E4B  00AB               	movwf	___fladd@grs
  4713  0E4C  3000               	movlw	0
  4714  0E4D  00F5               	movwf	___fladd@b+3
  4715  0E4E  3000               	movlw	0
  4716  0E4F  00F4               	movwf	___fladd@b+2
  4717  0E50  3000               	movlw	0
  4718  0E51  00F3               	movwf	___fladd@b+1
  4719  0E52  3000               	movlw	0
  4720  0E53  00F2               	movwf	___fladd@b
  4721  0E54  0829               	movf	___fladd@aexp,w
  4722  0E55  00A0               	movwf	??___fladd
  4723  0E56  0820               	movf	??___fladd,w
  4724  0E57  00AA               	movwf	___fladd@bexp
  4725  0E58  2E82               	goto	l593
  4726  0E59                     l595:	
  4727  0E59  1C2B               	btfss	___fladd@grs,0
  4728  0E5A  2E5C               	goto	u2161
  4729  0E5B  2E5D               	goto	u2160
  4730  0E5C                     u2161:	
  4731  0E5C  2E66               	goto	l2062
  4732  0E5D                     u2160:	
  4733  0E5D                     l2060:	
  4734  0E5D  082B               	movf	___fladd@grs,w
  4735  0E5E  00A0               	movwf	??___fladd
  4736  0E5F  1003               	clrc
  4737  0E60  0C20               	rrf	??___fladd,w
  4738  0E61  3801               	iorlw	1
  4739  0E62  00A1               	movwf	??___fladd+1
  4740  0E63  0821               	movf	??___fladd+1,w
  4741  0E64  00AB               	movwf	___fladd@grs
  4742  0E65  2E68               	goto	l2064
  4743  0E66                     l2062:	
  4744  0E66  1003               	clrc
  4745  0E67  0CAB               	rrf	___fladd@grs,f
  4746  0E68                     l2064:	
  4747  0E68  1C72               	btfss	___fladd@b,0
  4748  0E69  2E6B               	goto	u2171
  4749  0E6A  2E6C               	goto	u2170
  4750  0E6B                     u2171:	
  4751  0E6B  2E6D               	goto	l2068
  4752  0E6C                     u2170:	
  4753  0E6C                     l2066:	
  4754  0E6C  17AB               	bsf	___fladd@grs,7
  4755  0E6D                     l2068:	
  4756  0E6D  3001               	movlw	1
  4757  0E6E  00A0               	movwf	??___fladd
  4758  0E6F                     u2185:	
  4759  0E6F  0D75               	rlf	___fladd@b+3,w
  4760  0E70  0CF5               	rrf	___fladd@b+3,f
  4761  0E71  0CF4               	rrf	___fladd@b+2,f
  4762  0E72  0CF3               	rrf	___fladd@b+1,f
  4763  0E73  0CF2               	rrf	___fladd@b,f
  4764  0E74  0BA0               	decfsz	??___fladd& (0+127),f
  4765  0E75  2E6F               	goto	u2185
  4766  0E76                     l2070:	
  4767  0E76  3001               	movlw	1
  4768  0E77  00A0               	movwf	??___fladd
  4769  0E78  0820               	movf	??___fladd,w
  4770  0E79  07AA               	addwf	___fladd@bexp,f
  4771  0E7A                     l2072:	
  4772  0E7A  1283               	bcf	3,5	;RP0=0, select bank0
  4773  0E7B  1303               	bcf	3,6	;RP1=0, select bank0
  4774  0E7C  0829               	movf	___fladd@aexp,w
  4775  0E7D  022A               	subwf	___fladd@bexp,w
  4776  0E7E  1C03               	skipc
  4777  0E7F  2E81               	goto	u2191
  4778  0E80  2E82               	goto	u2190
  4779  0E81                     u2191:	
  4780  0E81  2E59               	goto	l595
  4781  0E82                     u2190:	
  4782  0E82                     l593:	
  4783  0E82  1B28               	btfsc	___fladd@signs,6
  4784  0E83  2E85               	goto	u2201
  4785  0E84  2E86               	goto	u2200
  4786  0E85                     u2201:	
  4787  0E85  2ED1               	goto	l2098
  4788  0E86                     u2200:	
  4789  0E86                     l2074:	
  4790  0E86  082A               	movf	___fladd@bexp,w
  4791  0E87  1D03               	btfss	3,2
  4792  0E88  2E8A               	goto	u2211
  4793  0E89  2E8B               	goto	u2210
  4794  0E8A                     u2211:	
  4795  0E8A  2E94               	goto	l2080
  4796  0E8B                     u2210:	
  4797  0E8B                     l2076:	
  4798  0E8B  3000               	movlw	0
  4799  0E8C  00F5               	movwf	?___fladd+3
  4800  0E8D  3000               	movlw	0
  4801  0E8E  00F4               	movwf	?___fladd+2
  4802  0E8F  3000               	movlw	0
  4803  0E90  00F3               	movwf	?___fladd+1
  4804  0E91  3000               	movlw	0
  4805  0E92  00F2               	movwf	?___fladd
  4806  0E93  2FFF               	goto	l602
  4807  0E94                     l2080:	
  4808  0E94  0876               	movf	___fladd@a,w
  4809  0E95  07F2               	addwf	___fladd@b,f
  4810  0E96  0877               	movf	___fladd@a+1,w
  4811  0E97  1103               	clrz
  4812  0E98  1803               	skipnc
  4813  0E99  3E01               	addlw	1
  4814  0E9A  1903               	skipnz
  4815  0E9B  2E9D               	goto	u2221
  4816  0E9C  07F3               	addwf	___fladd@b+1,f
  4817  0E9D                     u2221:	
  4818  0E9D  0878               	movf	___fladd@a+2,w
  4819  0E9E  1103               	clrz
  4820  0E9F  1803               	skipnc
  4821  0EA0  3E01               	addlw	1
  4822  0EA1  1903               	skipnz
  4823  0EA2  2EA4               	goto	u2222
  4824  0EA3  07F4               	addwf	___fladd@b+2,f
  4825  0EA4                     u2222:	
  4826  0EA4  0879               	movf	___fladd@a+3,w
  4827  0EA5  1103               	clrz
  4828  0EA6  1803               	skipnc
  4829  0EA7  3E01               	addlw	1
  4830  0EA8  1903               	skipnz
  4831  0EA9  2EAB               	goto	u2223
  4832  0EAA  07F5               	addwf	___fladd@b+3,f
  4833  0EAB                     u2223:	
  4834  0EAB                     l2082:	
  4835  0EAB  1C75               	btfss	___fladd@b+3,0
  4836  0EAC  2EAE               	goto	u2231
  4837  0EAD  2EAF               	goto	u2230
  4838  0EAE                     u2231:	
  4839  0EAE  2F85               	goto	l2132
  4840  0EAF                     u2230:	
  4841  0EAF                     l2084:	
  4842  0EAF  1C2B               	btfss	___fladd@grs,0
  4843  0EB0  2EB2               	goto	u2241
  4844  0EB1  2EB3               	goto	u2240
  4845  0EB2                     u2241:	
  4846  0EB2  2EBC               	goto	l2088
  4847  0EB3                     u2240:	
  4848  0EB3                     l2086:	
  4849  0EB3  082B               	movf	___fladd@grs,w
  4850  0EB4  00A0               	movwf	??___fladd
  4851  0EB5  1003               	clrc
  4852  0EB6  0C20               	rrf	??___fladd,w
  4853  0EB7  3801               	iorlw	1
  4854  0EB8  00A1               	movwf	??___fladd+1
  4855  0EB9  0821               	movf	??___fladd+1,w
  4856  0EBA  00AB               	movwf	___fladd@grs
  4857  0EBB  2EBE               	goto	l2090
  4858  0EBC                     l2088:	
  4859  0EBC  1003               	clrc
  4860  0EBD  0CAB               	rrf	___fladd@grs,f
  4861  0EBE                     l2090:	
  4862  0EBE  1C72               	btfss	___fladd@b,0
  4863  0EBF  2EC1               	goto	u2251
  4864  0EC0  2EC2               	goto	u2250
  4865  0EC1                     u2251:	
  4866  0EC1  2EC3               	goto	l2094
  4867  0EC2                     u2250:	
  4868  0EC2                     l2092:	
  4869  0EC2  17AB               	bsf	___fladd@grs,7
  4870  0EC3                     l2094:	
  4871  0EC3  3001               	movlw	1
  4872  0EC4  00A0               	movwf	??___fladd
  4873  0EC5                     u2265:	
  4874  0EC5  0D75               	rlf	___fladd@b+3,w
  4875  0EC6  0CF5               	rrf	___fladd@b+3,f
  4876  0EC7  0CF4               	rrf	___fladd@b+2,f
  4877  0EC8  0CF3               	rrf	___fladd@b+1,f
  4878  0EC9  0CF2               	rrf	___fladd@b,f
  4879  0ECA  0BA0               	decfsz	??___fladd& (0+127),f
  4880  0ECB  2EC5               	goto	u2265
  4881  0ECC                     l2096:	
  4882  0ECC  3001               	movlw	1
  4883  0ECD  00A0               	movwf	??___fladd
  4884  0ECE  0820               	movf	??___fladd,w
  4885  0ECF  07AA               	addwf	___fladd@bexp,f
  4886  0ED0  2F85               	goto	l2132
  4887  0ED1                     l2098:	
  4888  0ED1  0875               	movf	___fladd@b+3,w
  4889  0ED2  3A80               	xorlw	128
  4890  0ED3  00FF               	movwf	btemp+1
  4891  0ED4  0879               	movf	___fladd@a+3,w
  4892  0ED5  3A80               	xorlw	128
  4893  0ED6  027F               	subwf	btemp+1,w
  4894  0ED7  1D03               	skipz
  4895  0ED8  2EE3               	goto	u2273
  4896  0ED9  0878               	movf	___fladd@a+2,w
  4897  0EDA  0274               	subwf	___fladd@b+2,w
  4898  0EDB  1D03               	skipz
  4899  0EDC  2EE3               	goto	u2273
  4900  0EDD  0877               	movf	___fladd@a+1,w
  4901  0EDE  0273               	subwf	___fladd@b+1,w
  4902  0EDF  1D03               	skipz
  4903  0EE0  2EE3               	goto	u2273
  4904  0EE1  0876               	movf	___fladd@a,w
  4905  0EE2  0272               	subwf	___fladd@b,w
  4906  0EE3                     u2273:	
  4907  0EE3  1803               	skipnc
  4908  0EE4  2EE6               	goto	u2271
  4909  0EE5  2EE7               	goto	u2270
  4910  0EE6                     u2271:	
  4911  0EE6  2F3F               	goto	l2108
  4912  0EE7                     u2270:	
  4913  0EE7                     l2100:	
  4914  0EE7  30FF               	movlw	255
  4915  0EE8  00A0               	movwf	??___fladd
  4916  0EE9  30FF               	movlw	255
  4917  0EEA  00A1               	movwf	??___fladd+1
  4918  0EEB  30FF               	movlw	255
  4919  0EEC  00A2               	movwf	??___fladd+2
  4920  0EED  30FF               	movlw	255
  4921  0EEE  00A3               	movwf	??___fladd+3
  4922  0EEF  0876               	movf	___fladd@a,w
  4923  0EF0  00A4               	movwf	??___fladd+4
  4924  0EF1  0877               	movf	___fladd@a+1,w
  4925  0EF2  00A5               	movwf	??___fladd+5
  4926  0EF3  0878               	movf	___fladd@a+2,w
  4927  0EF4  00A6               	movwf	??___fladd+6
  4928  0EF5  0879               	movf	___fladd@a+3,w
  4929  0EF6  00A7               	movwf	??___fladd+7
  4930  0EF7  0872               	movf	___fladd@b,w
  4931  0EF8  02A4               	subwf	??___fladd+4,f
  4932  0EF9  0873               	movf	___fladd@b+1,w
  4933  0EFA  1C03               	skipc
  4934  0EFB  0F73               	incfsz	___fladd@b+1,w
  4935  0EFC  2EFE               	goto	u2281
  4936  0EFD  2EFF               	goto	u2282
  4937  0EFE                     u2281:	
  4938  0EFE  02A5               	subwf	??___fladd+5,f
  4939  0EFF                     u2282:	
  4940  0EFF  0874               	movf	___fladd@b+2,w
  4941  0F00  1C03               	skipc
  4942  0F01  0F74               	incfsz	___fladd@b+2,w
  4943  0F02  2F04               	goto	u2283
  4944  0F03  2F05               	goto	u2284
  4945  0F04                     u2283:	
  4946  0F04  02A6               	subwf	??___fladd+6,f
  4947  0F05                     u2284:	
  4948  0F05  0875               	movf	___fladd@b+3,w
  4949  0F06  1C03               	skipc
  4950  0F07  0F75               	incfsz	___fladd@b+3,w
  4951  0F08  2F0A               	goto	u2285
  4952  0F09  2F0B               	goto	u2286
  4953  0F0A                     u2285:	
  4954  0F0A  02A7               	subwf	??___fladd+7,f
  4955  0F0B                     u2286:	
  4956  0F0B  0824               	movf	??___fladd+4,w
  4957  0F0C  07A0               	addwf	??___fladd,f
  4958  0F0D  0825               	movf	??___fladd+5,w
  4959  0F0E  1803               	skipnc
  4960  0F0F  0F25               	incfsz	??___fladd+5,w
  4961  0F10  2F12               	goto	u2290
  4962  0F11  2F13               	goto	u2291
  4963  0F12                     u2290:	
  4964  0F12  07A1               	addwf	??___fladd+1,f
  4965  0F13                     u2291:	
  4966  0F13  0826               	movf	??___fladd+6,w
  4967  0F14  1803               	skipnc
  4968  0F15  0F26               	incfsz	??___fladd+6,w
  4969  0F16  2F18               	goto	u2292
  4970  0F17  2F19               	goto	u2293
  4971  0F18                     u2292:	
  4972  0F18  07A2               	addwf	??___fladd+2,f
  4973  0F19                     u2293:	
  4974  0F19  0827               	movf	??___fladd+7,w
  4975  0F1A  1803               	skipnc
  4976  0F1B  0A27               	incf	??___fladd+7,w
  4977  0F1C  07A3               	addwf	??___fladd+3,f
  4978  0F1D  0823               	movf	??___fladd+3,w
  4979  0F1E  00F5               	movwf	___fladd@b+3
  4980  0F1F  0822               	movf	??___fladd+2,w
  4981  0F20  00F4               	movwf	___fladd@b+2
  4982  0F21  0821               	movf	??___fladd+1,w
  4983  0F22  00F3               	movwf	___fladd@b+1
  4984  0F23  0820               	movf	??___fladd,w
  4985  0F24  00F2               	movwf	___fladd@b
  4986  0F25                     l2102:	
  4987  0F25  3080               	movlw	128
  4988  0F26  00A0               	movwf	??___fladd
  4989  0F27  0820               	movf	??___fladd,w
  4990  0F28  06A8               	xorwf	___fladd@signs,f
  4991  0F29  09AB               	comf	___fladd@grs,f
  4992  0F2A  0AAB               	incf	___fladd@grs,f
  4993  0F2B                     l2104:	
  4994  0F2B  082B               	movf	___fladd@grs,w
  4995  0F2C  1D03               	btfss	3,2
  4996  0F2D  2F2F               	goto	u2301
  4997  0F2E  2F30               	goto	u2300
  4998  0F2F                     u2301:	
  4999  0F2F  2F4D               	goto	l610
  5000  0F30                     u2300:	
  5001  0F30                     l2106:	
  5002  0F30  3001               	movlw	1
  5003  0F31  07F2               	addwf	___fladd@b,f
  5004  0F32  3000               	movlw	0
  5005  0F33  1803               	skipnc
  5006  0F34  3001               	movlw	1
  5007  0F35  07F3               	addwf	___fladd@b+1,f
  5008  0F36  3000               	movlw	0
  5009  0F37  1803               	skipnc
  5010  0F38  3001               	movlw	1
  5011  0F39  07F4               	addwf	___fladd@b+2,f
  5012  0F3A  3000               	movlw	0
  5013  0F3B  1803               	skipnc
  5014  0F3C  3001               	movlw	1
  5015  0F3D  07F5               	addwf	___fladd@b+3,f
  5016  0F3E  2F4D               	goto	l610
  5017  0F3F                     l2108:	
  5018  0F3F  0876               	movf	___fladd@a,w
  5019  0F40  02F2               	subwf	___fladd@b,f
  5020  0F41  0877               	movf	___fladd@a+1,w
  5021  0F42  1C03               	skipc
  5022  0F43  0F77               	incfsz	___fladd@a+1,w
  5023  0F44  02F3               	subwf	___fladd@b+1,f
  5024  0F45  0878               	movf	___fladd@a+2,w
  5025  0F46  1C03               	skipc
  5026  0F47  0F78               	incfsz	___fladd@a+2,w
  5027  0F48  02F4               	subwf	___fladd@b+2,f
  5028  0F49  0879               	movf	___fladd@a+3,w
  5029  0F4A  1C03               	skipc
  5030  0F4B  0F79               	incfsz	___fladd@a+3,w
  5031  0F4C  02F5               	subwf	___fladd@b+3,f
  5032  0F4D                     l610:	
  5033  0F4D  0875               	movf	___fladd@b+3,w
  5034  0F4E  0474               	iorwf	___fladd@b+2,w
  5035  0F4F  0473               	iorwf	___fladd@b+1,w
  5036  0F50  0472               	iorwf	___fladd@b,w
  5037  0F51  1D03               	skipz
  5038  0F52  2F54               	goto	u2311
  5039  0F53  2F55               	goto	u2310
  5040  0F54                     u2311:	
  5041  0F54  2F81               	goto	l2130
  5042  0F55                     u2310:	
  5043  0F55                     l2110:	
  5044  0F55  082B               	movf	___fladd@grs,w
  5045  0F56  1D03               	btfss	3,2
  5046  0F57  2F59               	goto	u2321
  5047  0F58  2F5A               	goto	u2320
  5048  0F59                     u2321:	
  5049  0F59  2F81               	goto	l2130
  5050  0F5A                     u2320:	
  5051  0F5A                     l2112:	
  5052  0F5A  3000               	movlw	0
  5053  0F5B  00F5               	movwf	?___fladd+3
  5054  0F5C  3000               	movlw	0
  5055  0F5D  00F4               	movwf	?___fladd+2
  5056  0F5E  3000               	movlw	0
  5057  0F5F  00F3               	movwf	?___fladd+1
  5058  0F60  3000               	movlw	0
  5059  0F61  00F2               	movwf	?___fladd
  5060  0F62  2FFF               	goto	l602
  5061  0F63                     l2116:	
  5062  0F63  3001               	movlw	1
  5063  0F64  00A0               	movwf	??___fladd
  5064  0F65                     u2335:	
  5065  0F65  1003               	clrc
  5066  0F66  0DF2               	rlf	___fladd@b,f
  5067  0F67  0DF3               	rlf	___fladd@b+1,f
  5068  0F68  0DF4               	rlf	___fladd@b+2,f
  5069  0F69  0DF5               	rlf	___fladd@b+3,f
  5070  0F6A  0BA0               	decfsz	??___fladd,f
  5071  0F6B  2F65               	goto	u2335
  5072  0F6C                     l2118:	
  5073  0F6C  1FAB               	btfss	___fladd@grs,7
  5074  0F6D  2F6F               	goto	u2341
  5075  0F6E  2F70               	goto	u2340
  5076  0F6F                     u2341:	
  5077  0F6F  2F71               	goto	l614
  5078  0F70                     u2340:	
  5079  0F70                     l2120:	
  5080  0F70  1472               	bsf	___fladd@b,0
  5081  0F71                     l614:	
  5082  0F71  1C2B               	btfss	___fladd@grs,0
  5083  0F72  2F74               	goto	u2351
  5084  0F73  2F75               	goto	u2350
  5085  0F74                     u2351:	
  5086  0F74  2F78               	goto	l2124
  5087  0F75                     u2350:	
  5088  0F75                     l2122:	
  5089  0F75  1403               	setc
  5090  0F76  0DAB               	rlf	___fladd@grs,f
  5091  0F77  2F7A               	goto	l2126
  5092  0F78                     l2124:	
  5093  0F78  1003               	clrc
  5094  0F79  0DAB               	rlf	___fladd@grs,f
  5095  0F7A                     l2126:	
  5096  0F7A  082A               	movf	___fladd@bexp,w
  5097  0F7B  1903               	btfsc	3,2
  5098  0F7C  2F7E               	goto	u2361
  5099  0F7D  2F7F               	goto	u2360
  5100  0F7E                     u2361:	
  5101  0F7E  2F81               	goto	l2130
  5102  0F7F                     u2360:	
  5103  0F7F                     l2128:	
  5104  0F7F  3001               	movlw	1
  5105  0F80  02AA               	subwf	___fladd@bexp,f
  5106  0F81                     l2130:	
  5107  0F81  1FF4               	btfss	___fladd@b+2,7
  5108  0F82  2F84               	goto	u2371
  5109  0F83  2F85               	goto	u2370
  5110  0F84                     u2371:	
  5111  0F84  2F63               	goto	l2116
  5112  0F85                     u2370:	
  5113  0F85                     l2132:	
  5114  0F85  01A9               	clrf	___fladd@aexp
  5115  0F86                     l2134:	
  5116  0F86  1FAB               	btfss	___fladd@grs,7
  5117  0F87  2F89               	goto	u2381
  5118  0F88  2F8A               	goto	u2380
  5119  0F89                     u2381:	
  5120  0F89  2F98               	goto	l2142
  5121  0F8A                     u2380:	
  5122  0F8A                     l2136:	
  5123  0F8A  082B               	movf	___fladd@grs,w
  5124  0F8B  397F               	andlw	127
  5125  0F8C  1903               	btfsc	3,2
  5126  0F8D  2F8F               	goto	u2391
  5127  0F8E  2F90               	goto	u2390
  5128  0F8F                     u2391:	
  5129  0F8F  2F93               	goto	l620
  5130  0F90                     u2390:	
  5131  0F90                     l2138:	
  5132  0F90  01A9               	clrf	___fladd@aexp
  5133  0F91  0AA9               	incf	___fladd@aexp,f
  5134  0F92  2F98               	goto	l2142
  5135  0F93                     l620:	
  5136  0F93  1C72               	btfss	___fladd@b,0
  5137  0F94  2F96               	goto	u2401
  5138  0F95  2F97               	goto	u2400
  5139  0F96                     u2401:	
  5140  0F96  2F98               	goto	l2142
  5141  0F97                     u2400:	
  5142  0F97  2F90               	goto	l2138
  5143  0F98                     l2142:	
  5144  0F98  0829               	movf	___fladd@aexp,w
  5145  0F99  1903               	btfsc	3,2
  5146  0F9A  2F9C               	goto	u2411
  5147  0F9B  2F9D               	goto	u2410
  5148  0F9C                     u2411:	
  5149  0F9C  2FD1               	goto	l623
  5150  0F9D                     u2410:	
  5151  0F9D                     l2144:	
  5152  0F9D  3001               	movlw	1
  5153  0F9E  07F2               	addwf	___fladd@b,f
  5154  0F9F  3000               	movlw	0
  5155  0FA0  1803               	skipnc
  5156  0FA1  3001               	movlw	1
  5157  0FA2  07F3               	addwf	___fladd@b+1,f
  5158  0FA3  3000               	movlw	0
  5159  0FA4  1803               	skipnc
  5160  0FA5  3001               	movlw	1
  5161  0FA6  07F4               	addwf	___fladd@b+2,f
  5162  0FA7  3000               	movlw	0
  5163  0FA8  1803               	skipnc
  5164  0FA9  3001               	movlw	1
  5165  0FAA  07F5               	addwf	___fladd@b+3,f
  5166  0FAB                     l2146:	
  5167  0FAB  1C75               	btfss	___fladd@b+3,0
  5168  0FAC  2FAE               	goto	u2421
  5169  0FAD  2FAF               	goto	u2420
  5170  0FAE                     u2421:	
  5171  0FAE  2FD1               	goto	l623
  5172  0FAF                     u2420:	
  5173  0FAF                     l2148:	
  5174  0FAF  0872               	movf	___fladd@b,w
  5175  0FB0  00A0               	movwf	??___fladd
  5176  0FB1  0873               	movf	___fladd@b+1,w
  5177  0FB2  00A1               	movwf	??___fladd+1
  5178  0FB3  0874               	movf	___fladd@b+2,w
  5179  0FB4  00A2               	movwf	??___fladd+2
  5180  0FB5  0875               	movf	___fladd@b+3,w
  5181  0FB6  00A3               	movwf	??___fladd+3
  5182  0FB7  3001               	movlw	1
  5183  0FB8  00A4               	movwf	??___fladd+4
  5184  0FB9                     u2435:	
  5185  0FB9  0D23               	rlf	??___fladd+3,w
  5186  0FBA  0CA3               	rrf	??___fladd+3,f
  5187  0FBB  0CA2               	rrf	??___fladd+2,f
  5188  0FBC  0CA1               	rrf	??___fladd+1,f
  5189  0FBD  0CA0               	rrf	??___fladd,f
  5190  0FBE                     u2430:	
  5191  0FBE  0BA4               	decfsz	??___fladd+4,f
  5192  0FBF  2FB9               	goto	u2435
  5193  0FC0  0823               	movf	??___fladd+3,w
  5194  0FC1  00F5               	movwf	___fladd@b+3
  5195  0FC2  0822               	movf	??___fladd+2,w
  5196  0FC3  00F4               	movwf	___fladd@b+2
  5197  0FC4  0821               	movf	??___fladd+1,w
  5198  0FC5  00F3               	movwf	___fladd@b+1
  5199  0FC6  0820               	movf	??___fladd,w
  5200  0FC7  00F2               	movwf	___fladd@b
  5201  0FC8  0A2A               	incf	___fladd@bexp,w
  5202  0FC9  1903               	btfsc	3,2
  5203  0FCA  2FCC               	goto	u2441
  5204  0FCB  2FCD               	goto	u2440
  5205  0FCC                     u2441:	
  5206  0FCC  2FD1               	goto	l623
  5207  0FCD                     u2440:	
  5208  0FCD                     l2150:	
  5209  0FCD  3001               	movlw	1
  5210  0FCE  00A0               	movwf	??___fladd
  5211  0FCF  0820               	movf	??___fladd,w
  5212  0FD0  07AA               	addwf	___fladd@bexp,f
  5213  0FD1                     l623:	
  5214  0FD1  0A2A               	incf	___fladd@bexp,w
  5215  0FD2  1903               	btfsc	3,2
  5216  0FD3  2FD5               	goto	u2451
  5217  0FD4  2FD6               	goto	u2450
  5218  0FD5                     u2451:	
  5219  0FD5  2FDB               	goto	l2154
  5220  0FD6                     u2450:	
  5221  0FD6                     l2152:	
  5222  0FD6  082A               	movf	___fladd@bexp,w
  5223  0FD7  1D03               	btfss	3,2
  5224  0FD8  2FDA               	goto	u2461
  5225  0FD9  2FDB               	goto	u2460
  5226  0FDA                     u2461:	
  5227  0FDA  2FE9               	goto	l2160
  5228  0FDB                     u2460:	
  5229  0FDB                     l2154:	
  5230  0FDB  3000               	movlw	0
  5231  0FDC  00F5               	movwf	___fladd@b+3
  5232  0FDD  3000               	movlw	0
  5233  0FDE  00F4               	movwf	___fladd@b+2
  5234  0FDF  3000               	movlw	0
  5235  0FE0  00F3               	movwf	___fladd@b+1
  5236  0FE1  3000               	movlw	0
  5237  0FE2  00F2               	movwf	___fladd@b
  5238  0FE3                     l2156:	
  5239  0FE3  082A               	movf	___fladd@bexp,w
  5240  0FE4  1D03               	btfss	3,2
  5241  0FE5  2FE7               	goto	u2471
  5242  0FE6  2FE8               	goto	u2470
  5243  0FE7                     u2471:	
  5244  0FE7  2FE9               	goto	l2160
  5245  0FE8                     u2470:	
  5246  0FE8                     l2158:	
  5247  0FE8  01A8               	clrf	___fladd@signs
  5248  0FE9                     l2160:	
  5249  0FE9  1C2A               	btfss	___fladd@bexp,0
  5250  0FEA  2FEC               	goto	u2481
  5251  0FEB  2FED               	goto	u2480
  5252  0FEC                     u2481:	
  5253  0FEC  2FEF               	goto	l2164
  5254  0FED                     u2480:	
  5255  0FED                     l2162:	
  5256  0FED  17F4               	bsf	___fladd@b+2,7
  5257  0FEE  2FF3               	goto	l631
  5258  0FEF                     l2164:	
  5259  0FEF  307F               	movlw	127
  5260  0FF0  00A0               	movwf	??___fladd
  5261  0FF1  0820               	movf	??___fladd,w
  5262  0FF2  05F4               	andwf	___fladd@b+2,f
  5263  0FF3                     l631:	
  5264  0FF3  082A               	movf	___fladd@bexp,w
  5265  0FF4  00A0               	movwf	??___fladd
  5266  0FF5  1003               	clrc
  5267  0FF6  0C20               	rrf	??___fladd,w
  5268  0FF7  00A1               	movwf	??___fladd+1
  5269  0FF8  0821               	movf	??___fladd+1,w
  5270  0FF9  00F5               	movwf	___fladd@b+3
  5271  0FFA                     l2166:	
  5272  0FFA  1FA8               	btfss	___fladd@signs,7
  5273  0FFB  2FFD               	goto	u2491
  5274  0FFC  2FFE               	goto	u2490
  5275  0FFD                     u2491:	
  5276  0FFD  2FFF               	goto	l632
  5277  0FFE                     u2490:	
  5278  0FFE                     l2168:	
  5279  0FFE  17F5               	bsf	___fladd@b+3,7
  5280  0FFF                     l632:	
  5281  0FFF                     l602:	
  5282  0FFF  0008               	return
  5283  1000                     __end_of___fladd:	
  5284                           
  5285                           	psect	text18
  5286  0387                     __ptext18:	
  5287 ;; *************** function ___flmul *****************
  5288 ;; Defined at:
  5289 ;;		line 8 in file "C:\Program Files (x86)\Microchip\xc8\v2.10\pic\sources\c90\common\sprcmul.c"
  5290 ;; Parameters:    Size  Location     Type
  5291 ;;  b               4   20[BANK0 ] unsigned char 
  5292 ;;  a               4   24[BANK0 ] unsigned char 
  5293 ;; Auto vars:     Size  Location     Type
  5294 ;;  prod            4   40[BANK0 ] struct .
  5295 ;;  grs             4   35[BANK0 ] unsigned long 
  5296 ;;  temp            2   44[BANK0 ] struct .
  5297 ;;  bexp            1   39[BANK0 ] unsigned char 
  5298 ;;  aexp            1   34[BANK0 ] unsigned char 
  5299 ;;  sign            1   33[BANK0 ] unsigned char 
  5300 ;; Return value:  Size  Location     Type
  5301 ;;                  4   20[BANK0 ] unsigned char 
  5302 ;; Registers used:
  5303 ;;		wreg, status,2, status,0, btemp+1, pclath, cstack
  5304 ;; Tracked objects:
  5305 ;;		On entry : 0/0
  5306 ;;		On exit  : 0/0
  5307 ;;		Unchanged: 0/0
  5308 ;; Data sizes:     COMMON   BANK0   BANK1   BANK3   BANK2
  5309 ;;      Params:         0       8       0       0       0
  5310 ;;      Locals:         0      13       0       0       0
  5311 ;;      Temps:          0       5       0       0       0
  5312 ;;      Totals:         0      26       0       0       0
  5313 ;;Total ram usage:       26 bytes
  5314 ;; Hardware stack levels used:    1
  5315 ;; Hardware stack levels required when called:    2
  5316 ;; This function calls:
  5317 ;;		__Umul8_16
  5318 ;; This function is called by:
  5319 ;;		_main
  5320 ;; This function uses a non-reentrant model
  5321 ;;
  5322                           
  5323                           
  5324                           ;psect for function ___flmul
  5325  0387                     ___flmul:	
  5326  0387                     l2966:	
  5327                           ;incstack = 0
  5328                           ; Regs used in ___flmul: [wreg+status,2+status,0+btemp+1+pclath+cstack]
  5329                           
  5330  0387  1283               	bcf	3,5	;RP0=0, select bank0
  5331  0388  1303               	bcf	3,6	;RP1=0, select bank0
  5332  0389  0837               	movf	___flmul@b+3,w
  5333  038A  3980               	andlw	128
  5334  038B  00BC               	movwf	??___flmul
  5335  038C  083C               	movf	??___flmul,w
  5336  038D  00C1               	movwf	___flmul@sign
  5337  038E                     l2968:	
  5338  038E  0837               	movf	___flmul@b+3,w
  5339  038F  00BC               	movwf	??___flmul
  5340  0390  073C               	addwf	??___flmul,w
  5341  0391  00BD               	movwf	??___flmul+1
  5342  0392  083D               	movf	??___flmul+1,w
  5343  0393  00C7               	movwf	___flmul@bexp
  5344  0394                     l2970:	
  5345  0394  1FB6               	btfss	___flmul@b+2,7
  5346  0395  2B97               	goto	u3711
  5347  0396  2B98               	goto	u3710
  5348  0397                     u3711:	
  5349  0397  2B99               	goto	l2974
  5350  0398                     u3710:	
  5351  0398                     l2972:	
  5352  0398  1447               	bsf	___flmul@bexp,0
  5353  0399                     l2974:	
  5354  0399  0847               	movf	___flmul@bexp,w
  5355  039A  1903               	btfsc	3,2
  5356  039B  2B9D               	goto	u3721
  5357  039C  2B9E               	goto	u3720
  5358  039D                     u3721:	
  5359  039D  2BAD               	goto	l2982
  5360  039E                     u3720:	
  5361  039E                     l2976:	
  5362  039E  0A47               	incf	___flmul@bexp,w
  5363  039F  1D03               	btfss	3,2
  5364  03A0  2BA2               	goto	u3731
  5365  03A1  2BA3               	goto	u3730
  5366  03A2                     u3731:	
  5367  03A2  2BAB               	goto	l2980
  5368  03A3                     u3730:	
  5369  03A3                     l2978:	
  5370  03A3  3000               	movlw	0
  5371  03A4  00B7               	movwf	___flmul@b+3
  5372  03A5  3000               	movlw	0
  5373  03A6  00B6               	movwf	___flmul@b+2
  5374  03A7  3000               	movlw	0
  5375  03A8  00B5               	movwf	___flmul@b+1
  5376  03A9  3000               	movlw	0
  5377  03AA  00B4               	movwf	___flmul@b
  5378  03AB                     l2980:	
  5379  03AB  17B6               	bsf	___flmul@b+2,7
  5380  03AC  2BB5               	goto	l2984
  5381  03AD                     l2982:	
  5382  03AD  3000               	movlw	0
  5383  03AE  00B7               	movwf	___flmul@b+3
  5384  03AF  3000               	movlw	0
  5385  03B0  00B6               	movwf	___flmul@b+2
  5386  03B1  3000               	movlw	0
  5387  03B2  00B5               	movwf	___flmul@b+1
  5388  03B3  3000               	movlw	0
  5389  03B4  00B4               	movwf	___flmul@b
  5390  03B5                     l2984:	
  5391  03B5  083B               	movf	___flmul@a+3,w
  5392  03B6  3980               	andlw	128
  5393  03B7  00BC               	movwf	??___flmul
  5394  03B8  083C               	movf	??___flmul,w
  5395  03B9  06C1               	xorwf	___flmul@sign,f
  5396  03BA                     l2986:	
  5397  03BA  083B               	movf	___flmul@a+3,w
  5398  03BB  00BC               	movwf	??___flmul
  5399  03BC  073C               	addwf	??___flmul,w
  5400  03BD  00BD               	movwf	??___flmul+1
  5401  03BE  083D               	movf	??___flmul+1,w
  5402  03BF  00C2               	movwf	___flmul@aexp
  5403  03C0                     l2988:	
  5404  03C0  1FBA               	btfss	___flmul@a+2,7
  5405  03C1  2BC3               	goto	u3741
  5406  03C2  2BC4               	goto	u3740
  5407  03C3                     u3741:	
  5408  03C3  2BC5               	goto	l2992
  5409  03C4                     u3740:	
  5410  03C4                     l2990:	
  5411  03C4  1442               	bsf	___flmul@aexp,0
  5412  03C5                     l2992:	
  5413  03C5  0842               	movf	___flmul@aexp,w
  5414  03C6  1903               	btfsc	3,2
  5415  03C7  2BC9               	goto	u3751
  5416  03C8  2BCA               	goto	u3750
  5417  03C9                     u3751:	
  5418  03C9  2BD9               	goto	l3000
  5419  03CA                     u3750:	
  5420  03CA                     l2994:	
  5421  03CA  0A42               	incf	___flmul@aexp,w
  5422  03CB  1D03               	btfss	3,2
  5423  03CC  2BCE               	goto	u3761
  5424  03CD  2BCF               	goto	u3760
  5425  03CE                     u3761:	
  5426  03CE  2BD7               	goto	l2998
  5427  03CF                     u3760:	
  5428  03CF                     l2996:	
  5429  03CF  3000               	movlw	0
  5430  03D0  00BB               	movwf	___flmul@a+3
  5431  03D1  3000               	movlw	0
  5432  03D2  00BA               	movwf	___flmul@a+2
  5433  03D3  3000               	movlw	0
  5434  03D4  00B9               	movwf	___flmul@a+1
  5435  03D5  3000               	movlw	0
  5436  03D6  00B8               	movwf	___flmul@a
  5437  03D7                     l2998:	
  5438  03D7  17BA               	bsf	___flmul@a+2,7
  5439  03D8  2BE1               	goto	l3002
  5440  03D9                     l3000:	
  5441  03D9  3000               	movlw	0
  5442  03DA  00BB               	movwf	___flmul@a+3
  5443  03DB  3000               	movlw	0
  5444  03DC  00BA               	movwf	___flmul@a+2
  5445  03DD  3000               	movlw	0
  5446  03DE  00B9               	movwf	___flmul@a+1
  5447  03DF  3000               	movlw	0
  5448  03E0  00B8               	movwf	___flmul@a
  5449  03E1                     l3002:	
  5450  03E1  0842               	movf	___flmul@aexp,w
  5451  03E2  1903               	btfsc	3,2
  5452  03E3  2BE5               	goto	u3771
  5453  03E4  2BE6               	goto	u3770
  5454  03E5                     u3771:	
  5455  03E5  2BEB               	goto	l3006
  5456  03E6                     u3770:	
  5457  03E6                     l3004:	
  5458  03E6  0847               	movf	___flmul@bexp,w
  5459  03E7  1D03               	btfss	3,2
  5460  03E8  2BEA               	goto	u3781
  5461  03E9  2BEB               	goto	u3780
  5462  03EA                     u3781:	
  5463  03EA  2BF4               	goto	l3010
  5464  03EB                     u3780:	
  5465  03EB                     l3006:	
  5466  03EB  3000               	movlw	0
  5467  03EC  00B7               	movwf	?___flmul+3
  5468  03ED  3000               	movlw	0
  5469  03EE  00B6               	movwf	?___flmul+2
  5470  03EF  3000               	movlw	0
  5471  03F0  00B5               	movwf	?___flmul+1
  5472  03F1  3000               	movlw	0
  5473  03F2  00B4               	movwf	?___flmul
  5474  03F3  2EE7               	goto	l685
  5475  03F4                     l3010:	
  5476  03F4  0834               	movf	___flmul@b,w
  5477  03F5  00BC               	movwf	??___flmul
  5478  03F6  083C               	movf	??___flmul,w
  5479  03F7  00F2               	movwf	__Umul8_16@multiplicand
  5480  03F8  083A               	movf	___flmul@a+2,w
  5481  03F9  120A  118A  27D2  120A  118A  	fcall	__Umul8_16
  5482  03FE  0873               	movf	?__Umul8_16+1,w
  5483  03FF  1283               	bcf	3,5	;RP0=0, select bank0
  5484  0400  1303               	bcf	3,6	;RP1=0, select bank0
  5485  0401  00CD               	movwf	___flmul@temp+1
  5486  0402  0872               	movf	?__Umul8_16,w
  5487  0403  00CC               	movwf	___flmul@temp
  5488  0404                     l3012:	
  5489  0404  084C               	movf	___flmul@temp,w
  5490  0405  00BC               	movwf	??___flmul
  5491  0406  01BD               	clrf	??___flmul+1
  5492  0407  01BE               	clrf	??___flmul+2
  5493  0408  01BF               	clrf	??___flmul+3
  5494  0409  083F               	movf	??___flmul+3,w
  5495  040A  00C6               	movwf	___flmul@grs+3
  5496  040B  083E               	movf	??___flmul+2,w
  5497  040C  00C5               	movwf	___flmul@grs+2
  5498  040D  083D               	movf	??___flmul+1,w
  5499  040E  00C4               	movwf	___flmul@grs+1
  5500  040F  083C               	movf	??___flmul,w
  5501  0410  00C3               	movwf	___flmul@grs
  5502  0411                     l3014:	
  5503  0411  084D               	movf	___flmul@temp+1,w
  5504  0412  00BC               	movwf	??___flmul
  5505  0413  01BD               	clrf	??___flmul+1
  5506  0414  01BE               	clrf	??___flmul+2
  5507  0415  01BF               	clrf	??___flmul+3
  5508  0416  083F               	movf	??___flmul+3,w
  5509  0417  00CB               	movwf	___flmul@prod+3
  5510  0418  083E               	movf	??___flmul+2,w
  5511  0419  00CA               	movwf	___flmul@prod+2
  5512  041A  083D               	movf	??___flmul+1,w
  5513  041B  00C9               	movwf	___flmul@prod+1
  5514  041C  083C               	movf	??___flmul,w
  5515  041D  00C8               	movwf	___flmul@prod
  5516  041E  0835               	movf	___flmul@b+1,w
  5517  041F  00BC               	movwf	??___flmul
  5518  0420  083C               	movf	??___flmul,w
  5519  0421  00F2               	movwf	__Umul8_16@multiplicand
  5520  0422  0839               	movf	___flmul@a+1,w
  5521  0423  120A  118A  27D2  120A  118A  	fcall	__Umul8_16
  5522  0428  0873               	movf	?__Umul8_16+1,w
  5523  0429  1283               	bcf	3,5	;RP0=0, select bank0
  5524  042A  1303               	bcf	3,6	;RP1=0, select bank0
  5525  042B  00CD               	movwf	___flmul@temp+1
  5526  042C  0872               	movf	?__Umul8_16,w
  5527  042D  00CC               	movwf	___flmul@temp
  5528  042E                     l3016:	
  5529  042E  084C               	movf	___flmul@temp,w
  5530  042F  00BC               	movwf	??___flmul
  5531  0430  01BD               	clrf	??___flmul+1
  5532  0431  01BE               	clrf	??___flmul+2
  5533  0432  01BF               	clrf	??___flmul+3
  5534  0433  083C               	movf	??___flmul,w
  5535  0434  07C3               	addwf	___flmul@grs,f
  5536  0435  083D               	movf	??___flmul+1,w
  5537  0436  1103               	clrz
  5538  0437  1803               	skipnc
  5539  0438  3E01               	addlw	1
  5540  0439  1903               	skipnz
  5541  043A  2C3C               	goto	u3791
  5542  043B  07C4               	addwf	___flmul@grs+1,f
  5543  043C                     u3791:	
  5544  043C  083E               	movf	??___flmul+2,w
  5545  043D  1103               	clrz
  5546  043E  1803               	skipnc
  5547  043F  3E01               	addlw	1
  5548  0440  1903               	skipnz
  5549  0441  2C43               	goto	u3792
  5550  0442  07C5               	addwf	___flmul@grs+2,f
  5551  0443                     u3792:	
  5552  0443  083F               	movf	??___flmul+3,w
  5553  0444  1103               	clrz
  5554  0445  1803               	skipnc
  5555  0446  3E01               	addlw	1
  5556  0447  1903               	skipnz
  5557  0448  2C4A               	goto	u3793
  5558  0449  07C6               	addwf	___flmul@grs+3,f
  5559  044A                     u3793:	
  5560  044A                     l3018:	
  5561  044A  084D               	movf	___flmul@temp+1,w
  5562  044B  00BC               	movwf	??___flmul
  5563  044C  01BD               	clrf	??___flmul+1
  5564  044D  01BE               	clrf	??___flmul+2
  5565  044E  01BF               	clrf	??___flmul+3
  5566  044F  083C               	movf	??___flmul,w
  5567  0450  07C8               	addwf	___flmul@prod,f
  5568  0451  083D               	movf	??___flmul+1,w
  5569  0452  1103               	clrz
  5570  0453  1803               	skipnc
  5571  0454  3E01               	addlw	1
  5572  0455  1903               	skipnz
  5573  0456  2C58               	goto	u3801
  5574  0457  07C9               	addwf	___flmul@prod+1,f
  5575  0458                     u3801:	
  5576  0458  083E               	movf	??___flmul+2,w
  5577  0459  1103               	clrz
  5578  045A  1803               	skipnc
  5579  045B  3E01               	addlw	1
  5580  045C  1903               	skipnz
  5581  045D  2C5F               	goto	u3802
  5582  045E  07CA               	addwf	___flmul@prod+2,f
  5583  045F                     u3802:	
  5584  045F  083F               	movf	??___flmul+3,w
  5585  0460  1103               	clrz
  5586  0461  1803               	skipnc
  5587  0462  3E01               	addlw	1
  5588  0463  1903               	skipnz
  5589  0464  2C66               	goto	u3803
  5590  0465  07CB               	addwf	___flmul@prod+3,f
  5591  0466                     u3803:	
  5592  0466  0836               	movf	___flmul@b+2,w
  5593  0467  00BC               	movwf	??___flmul
  5594  0468  083C               	movf	??___flmul,w
  5595  0469  00F2               	movwf	__Umul8_16@multiplicand
  5596  046A  0838               	movf	___flmul@a,w
  5597  046B  120A  118A  27D2  120A  118A  	fcall	__Umul8_16
  5598  0470  0873               	movf	?__Umul8_16+1,w
  5599  0471  1283               	bcf	3,5	;RP0=0, select bank0
  5600  0472  1303               	bcf	3,6	;RP1=0, select bank0
  5601  0473  00CD               	movwf	___flmul@temp+1
  5602  0474  0872               	movf	?__Umul8_16,w
  5603  0475  00CC               	movwf	___flmul@temp
  5604  0476                     l3020:	
  5605  0476  084C               	movf	___flmul@temp,w
  5606  0477  00BC               	movwf	??___flmul
  5607  0478  01BD               	clrf	??___flmul+1
  5608  0479  01BE               	clrf	??___flmul+2
  5609  047A  01BF               	clrf	??___flmul+3
  5610  047B  083C               	movf	??___flmul,w
  5611  047C  07C3               	addwf	___flmul@grs,f
  5612  047D  083D               	movf	??___flmul+1,w
  5613  047E  1103               	clrz
  5614  047F  1803               	skipnc
  5615  0480  3E01               	addlw	1
  5616  0481  1903               	skipnz
  5617  0482  2C84               	goto	u3811
  5618  0483  07C4               	addwf	___flmul@grs+1,f
  5619  0484                     u3811:	
  5620  0484  083E               	movf	??___flmul+2,w
  5621  0485  1103               	clrz
  5622  0486  1803               	skipnc
  5623  0487  3E01               	addlw	1
  5624  0488  1903               	skipnz
  5625  0489  2C8B               	goto	u3812
  5626  048A  07C5               	addwf	___flmul@grs+2,f
  5627  048B                     u3812:	
  5628  048B  083F               	movf	??___flmul+3,w
  5629  048C  1103               	clrz
  5630  048D  1803               	skipnc
  5631  048E  3E01               	addlw	1
  5632  048F  1903               	skipnz
  5633  0490  2C92               	goto	u3813
  5634  0491  07C6               	addwf	___flmul@grs+3,f
  5635  0492                     u3813:	
  5636  0492                     l3022:	
  5637  0492  084D               	movf	___flmul@temp+1,w
  5638  0493  00BC               	movwf	??___flmul
  5639  0494  01BD               	clrf	??___flmul+1
  5640  0495  01BE               	clrf	??___flmul+2
  5641  0496  01BF               	clrf	??___flmul+3
  5642  0497  083C               	movf	??___flmul,w
  5643  0498  07C8               	addwf	___flmul@prod,f
  5644  0499  083D               	movf	??___flmul+1,w
  5645  049A  1103               	clrz
  5646  049B  1803               	skipnc
  5647  049C  3E01               	addlw	1
  5648  049D  1903               	skipnz
  5649  049E  2CA0               	goto	u3821
  5650  049F  07C9               	addwf	___flmul@prod+1,f
  5651  04A0                     u3821:	
  5652  04A0  083E               	movf	??___flmul+2,w
  5653  04A1  1103               	clrz
  5654  04A2  1803               	skipnc
  5655  04A3  3E01               	addlw	1
  5656  04A4  1903               	skipnz
  5657  04A5  2CA7               	goto	u3822
  5658  04A6  07CA               	addwf	___flmul@prod+2,f
  5659  04A7                     u3822:	
  5660  04A7  083F               	movf	??___flmul+3,w
  5661  04A8  1103               	clrz
  5662  04A9  1803               	skipnc
  5663  04AA  3E01               	addlw	1
  5664  04AB  1903               	skipnz
  5665  04AC  2CAE               	goto	u3823
  5666  04AD  07CB               	addwf	___flmul@prod+3,f
  5667  04AE                     u3823:	
  5668  04AE                     l3024:	
  5669  04AE  3008               	movlw	8
  5670  04AF  00BC               	movwf	??___flmul
  5671  04B0                     u3835:	
  5672  04B0  1003               	clrc
  5673  04B1  0DC3               	rlf	___flmul@grs,f
  5674  04B2  0DC4               	rlf	___flmul@grs+1,f
  5675  04B3  0DC5               	rlf	___flmul@grs+2,f
  5676  04B4  0DC6               	rlf	___flmul@grs+3,f
  5677  04B5  0BBC               	decfsz	??___flmul,f
  5678  04B6  2CB0               	goto	u3835
  5679  04B7                     l3026:	
  5680  04B7  0835               	movf	___flmul@b+1,w
  5681  04B8  00BC               	movwf	??___flmul
  5682  04B9  083C               	movf	??___flmul,w
  5683  04BA  00F2               	movwf	__Umul8_16@multiplicand
  5684  04BB  0838               	movf	___flmul@a,w
  5685  04BC  120A  118A  27D2  120A  118A  	fcall	__Umul8_16
  5686  04C1  0873               	movf	?__Umul8_16+1,w
  5687  04C2  1283               	bcf	3,5	;RP0=0, select bank0
  5688  04C3  1303               	bcf	3,6	;RP1=0, select bank0
  5689  04C4  00CD               	movwf	___flmul@temp+1
  5690  04C5  0872               	movf	?__Umul8_16,w
  5691  04C6  00CC               	movwf	___flmul@temp
  5692  04C7                     l3028:	
  5693  04C7  084C               	movf	___flmul@temp,w
  5694  04C8  00BC               	movwf	??___flmul
  5695  04C9  084D               	movf	___flmul@temp+1,w
  5696  04CA  00BD               	movwf	??___flmul+1
  5697  04CB  01BE               	clrf	??___flmul+2
  5698  04CC  01BF               	clrf	??___flmul+3
  5699  04CD  083C               	movf	??___flmul,w
  5700  04CE  07C3               	addwf	___flmul@grs,f
  5701  04CF  083D               	movf	??___flmul+1,w
  5702  04D0  1103               	clrz
  5703  04D1  1803               	skipnc
  5704  04D2  3E01               	addlw	1
  5705  04D3  1903               	skipnz
  5706  04D4  2CD6               	goto	u3841
  5707  04D5  07C4               	addwf	___flmul@grs+1,f
  5708  04D6                     u3841:	
  5709  04D6  083E               	movf	??___flmul+2,w
  5710  04D7  1103               	clrz
  5711  04D8  1803               	skipnc
  5712  04D9  3E01               	addlw	1
  5713  04DA  1903               	skipnz
  5714  04DB  2CDD               	goto	u3842
  5715  04DC  07C5               	addwf	___flmul@grs+2,f
  5716  04DD                     u3842:	
  5717  04DD  083F               	movf	??___flmul+3,w
  5718  04DE  1103               	clrz
  5719  04DF  1803               	skipnc
  5720  04E0  3E01               	addlw	1
  5721  04E1  1903               	skipnz
  5722  04E2  2CE4               	goto	u3843
  5723  04E3  07C6               	addwf	___flmul@grs+3,f
  5724  04E4                     u3843:	
  5725  04E4                     l3030:	
  5726  04E4  0834               	movf	___flmul@b,w
  5727  04E5  00BC               	movwf	??___flmul
  5728  04E6  083C               	movf	??___flmul,w
  5729  04E7  00F2               	movwf	__Umul8_16@multiplicand
  5730  04E8  0839               	movf	___flmul@a+1,w
  5731  04E9  120A  118A  27D2  120A  118A  	fcall	__Umul8_16
  5732  04EE  0873               	movf	?__Umul8_16+1,w
  5733  04EF  1283               	bcf	3,5	;RP0=0, select bank0
  5734  04F0  1303               	bcf	3,6	;RP1=0, select bank0
  5735  04F1  00CD               	movwf	___flmul@temp+1
  5736  04F2  0872               	movf	?__Umul8_16,w
  5737  04F3  00CC               	movwf	___flmul@temp
  5738  04F4                     l3032:	
  5739  04F4  084C               	movf	___flmul@temp,w
  5740  04F5  00BC               	movwf	??___flmul
  5741  04F6  084D               	movf	___flmul@temp+1,w
  5742  04F7  00BD               	movwf	??___flmul+1
  5743  04F8  01BE               	clrf	??___flmul+2
  5744  04F9  01BF               	clrf	??___flmul+3
  5745  04FA  083C               	movf	??___flmul,w
  5746  04FB  07C3               	addwf	___flmul@grs,f
  5747  04FC  083D               	movf	??___flmul+1,w
  5748  04FD  1103               	clrz
  5749  04FE  1803               	skipnc
  5750  04FF  3E01               	addlw	1
  5751  0500  1903               	skipnz
  5752  0501  2D03               	goto	u3851
  5753  0502  07C4               	addwf	___flmul@grs+1,f
  5754  0503                     u3851:	
  5755  0503  083E               	movf	??___flmul+2,w
  5756  0504  1103               	clrz
  5757  0505  1803               	skipnc
  5758  0506  3E01               	addlw	1
  5759  0507  1903               	skipnz
  5760  0508  2D0A               	goto	u3852
  5761  0509  07C5               	addwf	___flmul@grs+2,f
  5762  050A                     u3852:	
  5763  050A  083F               	movf	??___flmul+3,w
  5764  050B  1103               	clrz
  5765  050C  1803               	skipnc
  5766  050D  3E01               	addlw	1
  5767  050E  1903               	skipnz
  5768  050F  2D11               	goto	u3853
  5769  0510  07C6               	addwf	___flmul@grs+3,f
  5770  0511                     u3853:	
  5771  0511                     l3034:	
  5772  0511  3008               	movlw	8
  5773  0512  00BC               	movwf	??___flmul
  5774  0513                     u3865:	
  5775  0513  1003               	clrc
  5776  0514  0DC3               	rlf	___flmul@grs,f
  5777  0515  0DC4               	rlf	___flmul@grs+1,f
  5778  0516  0DC5               	rlf	___flmul@grs+2,f
  5779  0517  0DC6               	rlf	___flmul@grs+3,f
  5780  0518  0BBC               	decfsz	??___flmul,f
  5781  0519  2D13               	goto	u3865
  5782  051A  0834               	movf	___flmul@b,w
  5783  051B  00BC               	movwf	??___flmul
  5784  051C  083C               	movf	??___flmul,w
  5785  051D  00F2               	movwf	__Umul8_16@multiplicand
  5786  051E  0838               	movf	___flmul@a,w
  5787  051F  120A  118A  27D2  120A  118A  	fcall	__Umul8_16
  5788  0524  0873               	movf	?__Umul8_16+1,w
  5789  0525  1283               	bcf	3,5	;RP0=0, select bank0
  5790  0526  1303               	bcf	3,6	;RP1=0, select bank0
  5791  0527  00CD               	movwf	___flmul@temp+1
  5792  0528  0872               	movf	?__Umul8_16,w
  5793  0529  00CC               	movwf	___flmul@temp
  5794  052A                     l3036:	
  5795  052A  084C               	movf	___flmul@temp,w
  5796  052B  00BC               	movwf	??___flmul
  5797  052C  084D               	movf	___flmul@temp+1,w
  5798  052D  00BD               	movwf	??___flmul+1
  5799  052E  01BE               	clrf	??___flmul+2
  5800  052F  01BF               	clrf	??___flmul+3
  5801  0530  083C               	movf	??___flmul,w
  5802  0531  07C3               	addwf	___flmul@grs,f
  5803  0532  083D               	movf	??___flmul+1,w
  5804  0533  1103               	clrz
  5805  0534  1803               	skipnc
  5806  0535  3E01               	addlw	1
  5807  0536  1903               	skipnz
  5808  0537  2D39               	goto	u3871
  5809  0538  07C4               	addwf	___flmul@grs+1,f
  5810  0539                     u3871:	
  5811  0539  083E               	movf	??___flmul+2,w
  5812  053A  1103               	clrz
  5813  053B  1803               	skipnc
  5814  053C  3E01               	addlw	1
  5815  053D  1903               	skipnz
  5816  053E  2D40               	goto	u3872
  5817  053F  07C5               	addwf	___flmul@grs+2,f
  5818  0540                     u3872:	
  5819  0540  083F               	movf	??___flmul+3,w
  5820  0541  1103               	clrz
  5821  0542  1803               	skipnc
  5822  0543  3E01               	addlw	1
  5823  0544  1903               	skipnz
  5824  0545  2D47               	goto	u3873
  5825  0546  07C6               	addwf	___flmul@grs+3,f
  5826  0547                     u3873:	
  5827  0547                     l3038:	
  5828  0547  0835               	movf	___flmul@b+1,w
  5829  0548  00BC               	movwf	??___flmul
  5830  0549  083C               	movf	??___flmul,w
  5831  054A  00F2               	movwf	__Umul8_16@multiplicand
  5832  054B  083A               	movf	___flmul@a+2,w
  5833  054C  120A  118A  27D2  120A  118A  	fcall	__Umul8_16
  5834  0551  0873               	movf	?__Umul8_16+1,w
  5835  0552  1283               	bcf	3,5	;RP0=0, select bank0
  5836  0553  1303               	bcf	3,6	;RP1=0, select bank0
  5837  0554  00CD               	movwf	___flmul@temp+1
  5838  0555  0872               	movf	?__Umul8_16,w
  5839  0556  00CC               	movwf	___flmul@temp
  5840  0557  084C               	movf	___flmul@temp,w
  5841  0558  00BC               	movwf	??___flmul
  5842  0559  084D               	movf	___flmul@temp+1,w
  5843  055A  00BD               	movwf	??___flmul+1
  5844  055B  01BE               	clrf	??___flmul+2
  5845  055C  01BF               	clrf	??___flmul+3
  5846  055D  083C               	movf	??___flmul,w
  5847  055E  07C8               	addwf	___flmul@prod,f
  5848  055F  083D               	movf	??___flmul+1,w
  5849  0560  1103               	clrz
  5850  0561  1803               	skipnc
  5851  0562  3E01               	addlw	1
  5852  0563  1903               	skipnz
  5853  0564  2D66               	goto	u3881
  5854  0565  07C9               	addwf	___flmul@prod+1,f
  5855  0566                     u3881:	
  5856  0566  083E               	movf	??___flmul+2,w
  5857  0567  1103               	clrz
  5858  0568  1803               	skipnc
  5859  0569  3E01               	addlw	1
  5860  056A  1903               	skipnz
  5861  056B  2D6D               	goto	u3882
  5862  056C  07CA               	addwf	___flmul@prod+2,f
  5863  056D                     u3882:	
  5864  056D  083F               	movf	??___flmul+3,w
  5865  056E  1103               	clrz
  5866  056F  1803               	skipnc
  5867  0570  3E01               	addlw	1
  5868  0571  1903               	skipnz
  5869  0572  2D74               	goto	u3883
  5870  0573  07CB               	addwf	___flmul@prod+3,f
  5871  0574                     u3883:	
  5872  0574                     l3040:	
  5873  0574  0836               	movf	___flmul@b+2,w
  5874  0575  00BC               	movwf	??___flmul
  5875  0576  083C               	movf	??___flmul,w
  5876  0577  00F2               	movwf	__Umul8_16@multiplicand
  5877  0578  0839               	movf	___flmul@a+1,w
  5878  0579  120A  118A  27D2  120A  118A  	fcall	__Umul8_16
  5879  057E  0873               	movf	?__Umul8_16+1,w
  5880  057F  1283               	bcf	3,5	;RP0=0, select bank0
  5881  0580  1303               	bcf	3,6	;RP1=0, select bank0
  5882  0581  00CD               	movwf	___flmul@temp+1
  5883  0582  0872               	movf	?__Umul8_16,w
  5884  0583  00CC               	movwf	___flmul@temp
  5885  0584                     l3042:	
  5886  0584  084C               	movf	___flmul@temp,w
  5887  0585  00BC               	movwf	??___flmul
  5888  0586  084D               	movf	___flmul@temp+1,w
  5889  0587  00BD               	movwf	??___flmul+1
  5890  0588  01BE               	clrf	??___flmul+2
  5891  0589  01BF               	clrf	??___flmul+3
  5892  058A  083C               	movf	??___flmul,w
  5893  058B  07C8               	addwf	___flmul@prod,f
  5894  058C  083D               	movf	??___flmul+1,w
  5895  058D  1103               	clrz
  5896  058E  1803               	skipnc
  5897  058F  3E01               	addlw	1
  5898  0590  1903               	skipnz
  5899  0591  2D93               	goto	u3891
  5900  0592  07C9               	addwf	___flmul@prod+1,f
  5901  0593                     u3891:	
  5902  0593  083E               	movf	??___flmul+2,w
  5903  0594  1103               	clrz
  5904  0595  1803               	skipnc
  5905  0596  3E01               	addlw	1
  5906  0597  1903               	skipnz
  5907  0598  2D9A               	goto	u3892
  5908  0599  07CA               	addwf	___flmul@prod+2,f
  5909  059A                     u3892:	
  5910  059A  083F               	movf	??___flmul+3,w
  5911  059B  1103               	clrz
  5912  059C  1803               	skipnc
  5913  059D  3E01               	addlw	1
  5914  059E  1903               	skipnz
  5915  059F  2DA1               	goto	u3893
  5916  05A0  07CB               	addwf	___flmul@prod+3,f
  5917  05A1                     u3893:	
  5918  05A1  0836               	movf	___flmul@b+2,w
  5919  05A2  00BC               	movwf	??___flmul
  5920  05A3  083C               	movf	??___flmul,w
  5921  05A4  00F2               	movwf	__Umul8_16@multiplicand
  5922  05A5  083A               	movf	___flmul@a+2,w
  5923  05A6  120A  118A  27D2  120A  118A  	fcall	__Umul8_16
  5924  05AB  0873               	movf	?__Umul8_16+1,w
  5925  05AC  1283               	bcf	3,5	;RP0=0, select bank0
  5926  05AD  1303               	bcf	3,6	;RP1=0, select bank0
  5927  05AE  00CD               	movwf	___flmul@temp+1
  5928  05AF  0872               	movf	?__Umul8_16,w
  5929  05B0  00CC               	movwf	___flmul@temp
  5930  05B1                     l3044:	
  5931  05B1  084C               	movf	___flmul@temp,w
  5932  05B2  00BC               	movwf	??___flmul
  5933  05B3  084D               	movf	___flmul@temp+1,w
  5934  05B4  00BD               	movwf	??___flmul+1
  5935  05B5  01BE               	clrf	??___flmul+2
  5936  05B6  01BF               	clrf	??___flmul+3
  5937  05B7  3008               	movlw	8
  5938  05B8                     u3905:	
  5939  05B8  1003               	clrc
  5940  05B9  0DBC               	rlf	??___flmul,f
  5941  05BA  0DBD               	rlf	??___flmul+1,f
  5942  05BB  0DBE               	rlf	??___flmul+2,f
  5943  05BC  0DBF               	rlf	??___flmul+3,f
  5944  05BD                     u3900:	
  5945  05BD  3EFF               	addlw	-1
  5946  05BE  1D03               	skipz
  5947  05BF  2DB8               	goto	u3905
  5948  05C0  083C               	movf	??___flmul,w
  5949  05C1  07C8               	addwf	___flmul@prod,f
  5950  05C2  083D               	movf	??___flmul+1,w
  5951  05C3  1103               	clrz
  5952  05C4  1803               	skipnc
  5953  05C5  3E01               	addlw	1
  5954  05C6  1903               	skipnz
  5955  05C7  2DC9               	goto	u3911
  5956  05C8  07C9               	addwf	___flmul@prod+1,f
  5957  05C9                     u3911:	
  5958  05C9  083E               	movf	??___flmul+2,w
  5959  05CA  1103               	clrz
  5960  05CB  1803               	skipnc
  5961  05CC  3E01               	addlw	1
  5962  05CD  1903               	skipnz
  5963  05CE  2DD0               	goto	u3912
  5964  05CF  07CA               	addwf	___flmul@prod+2,f
  5965  05D0                     u3912:	
  5966  05D0  083F               	movf	??___flmul+3,w
  5967  05D1  1103               	clrz
  5968  05D2  1803               	skipnc
  5969  05D3  3E01               	addlw	1
  5970  05D4  1903               	skipnz
  5971  05D5  2DD7               	goto	u3913
  5972  05D6  07CB               	addwf	___flmul@prod+3,f
  5973  05D7                     u3913:	
  5974  05D7                     l3046:	
  5975  05D7  0843               	movf	___flmul@grs,w
  5976  05D8  00BC               	movwf	??___flmul
  5977  05D9  0844               	movf	___flmul@grs+1,w
  5978  05DA  00BD               	movwf	??___flmul+1
  5979  05DB  0845               	movf	___flmul@grs+2,w
  5980  05DC  00BE               	movwf	??___flmul+2
  5981  05DD  0846               	movf	___flmul@grs+3,w
  5982  05DE  00BF               	movwf	??___flmul+3
  5983  05DF  3018               	movlw	24
  5984  05E0                     u3925:	
  5985  05E0  1003               	clrc
  5986  05E1  0CBF               	rrf	??___flmul+3,f
  5987  05E2  0CBE               	rrf	??___flmul+2,f
  5988  05E3  0CBD               	rrf	??___flmul+1,f
  5989  05E4  0CBC               	rrf	??___flmul,f
  5990  05E5                     u3920:	
  5991  05E5  3EFF               	addlw	-1
  5992  05E6  1D03               	skipz
  5993  05E7  2DE0               	goto	u3925
  5994  05E8  083C               	movf	??___flmul,w
  5995  05E9  07C8               	addwf	___flmul@prod,f
  5996  05EA  083D               	movf	??___flmul+1,w
  5997  05EB  1103               	clrz
  5998  05EC  1803               	skipnc
  5999  05ED  3E01               	addlw	1
  6000  05EE  1903               	skipnz
  6001  05EF  2DF1               	goto	u3931
  6002  05F0  07C9               	addwf	___flmul@prod+1,f
  6003  05F1                     u3931:	
  6004  05F1  083E               	movf	??___flmul+2,w
  6005  05F2  1103               	clrz
  6006  05F3  1803               	skipnc
  6007  05F4  3E01               	addlw	1
  6008  05F5  1903               	skipnz
  6009  05F6  2DF8               	goto	u3932
  6010  05F7  07CA               	addwf	___flmul@prod+2,f
  6011  05F8                     u3932:	
  6012  05F8  083F               	movf	??___flmul+3,w
  6013  05F9  1103               	clrz
  6014  05FA  1803               	skipnc
  6015  05FB  3E01               	addlw	1
  6016  05FC  1903               	skipnz
  6017  05FD  2DFF               	goto	u3933
  6018  05FE  07CB               	addwf	___flmul@prod+3,f
  6019  05FF                     u3933:	
  6020  05FF                     l3048:	
  6021  05FF  3008               	movlw	8
  6022  0600  00BC               	movwf	??___flmul
  6023  0601                     u3945:	
  6024  0601  1003               	clrc
  6025  0602  0DC3               	rlf	___flmul@grs,f
  6026  0603  0DC4               	rlf	___flmul@grs+1,f
  6027  0604  0DC5               	rlf	___flmul@grs+2,f
  6028  0605  0DC6               	rlf	___flmul@grs+3,f
  6029  0606  0BBC               	decfsz	??___flmul,f
  6030  0607  2E01               	goto	u3945
  6031  0608                     l3050:	
  6032  0608  0847               	movf	___flmul@bexp,w
  6033  0609  0742               	addwf	___flmul@aexp,w
  6034  060A  00BC               	movwf	??___flmul
  6035  060B  01BD               	clrf	??___flmul+1
  6036  060C  0DBD               	rlf	??___flmul+1,f
  6037  060D  083C               	movf	??___flmul,w
  6038  060E  3E82               	addlw	130
  6039  060F  00CC               	movwf	___flmul@temp
  6040  0610  083D               	movf	??___flmul+1,w
  6041  0611  1803               	skipnc
  6042  0612  3E01               	addlw	1
  6043  0613  3EFF               	addlw	255
  6044  0614  00CD               	movwf	___flmul@temp+1
  6045  0615  2E33               	goto	l3062
  6046  0616                     l3052:	
  6047  0616  3001               	movlw	1
  6048  0617  00BC               	movwf	??___flmul
  6049  0618                     u3955:	
  6050  0618  1003               	clrc
  6051  0619  0DC8               	rlf	___flmul@prod,f
  6052  061A  0DC9               	rlf	___flmul@prod+1,f
  6053  061B  0DCA               	rlf	___flmul@prod+2,f
  6054  061C  0DCB               	rlf	___flmul@prod+3,f
  6055  061D  0BBC               	decfsz	??___flmul,f
  6056  061E  2E18               	goto	u3955
  6057  061F                     l3054:	
  6058  061F  1FC6               	btfss	___flmul@grs+3,7
  6059  0620  2E22               	goto	u3961
  6060  0621  2E23               	goto	u3960
  6061  0622                     u3961:	
  6062  0622  2E24               	goto	l3058
  6063  0623                     u3960:	
  6064  0623                     l3056:	
  6065  0623  1448               	bsf	___flmul@prod,0
  6066  0624                     l3058:	
  6067  0624  3001               	movlw	1
  6068  0625  00BC               	movwf	??___flmul
  6069  0626                     u3975:	
  6070  0626  1003               	clrc
  6071  0627  0DC3               	rlf	___flmul@grs,f
  6072  0628  0DC4               	rlf	___flmul@grs+1,f
  6073  0629  0DC5               	rlf	___flmul@grs+2,f
  6074  062A  0DC6               	rlf	___flmul@grs+3,f
  6075  062B  0BBC               	decfsz	??___flmul,f
  6076  062C  2E26               	goto	u3975
  6077  062D                     l3060:	
  6078  062D  30FF               	movlw	255
  6079  062E  07CC               	addwf	___flmul@temp,f
  6080  062F  1803               	skipnc
  6081  0630  0ACD               	incf	___flmul@temp+1,f
  6082  0631  30FF               	movlw	255
  6083  0632  07CD               	addwf	___flmul@temp+1,f
  6084  0633                     l3062:	
  6085  0633  1FCA               	btfss	___flmul@prod+2,7
  6086  0634  2E36               	goto	u3981
  6087  0635  2E37               	goto	u3980
  6088  0636                     u3981:	
  6089  0636  2E16               	goto	l3052
  6090  0637                     u3980:	
  6091  0637                     l3064:	
  6092  0637  01C2               	clrf	___flmul@aexp
  6093  0638                     l3066:	
  6094  0638  1FC6               	btfss	___flmul@grs+3,7
  6095  0639  2E3B               	goto	u3991
  6096  063A  2E3C               	goto	u3990
  6097  063B                     u3991:	
  6098  063B  2E58               	goto	l3074
  6099  063C                     u3990:	
  6100  063C                     l3068:	
  6101  063C  30FF               	movlw	255
  6102  063D  0543               	andwf	___flmul@grs,w
  6103  063E  00BC               	movwf	??___flmul
  6104  063F  30FF               	movlw	255
  6105  0640  0544               	andwf	___flmul@grs+1,w
  6106  0641  00BD               	movwf	??___flmul+1
  6107  0642  30FF               	movlw	255
  6108  0643  0545               	andwf	___flmul@grs+2,w
  6109  0644  00BE               	movwf	??___flmul+2
  6110  0645  307F               	movlw	127
  6111  0646  0546               	andwf	___flmul@grs+3,w
  6112  0647  00BF               	movwf	??___flmul+3
  6113  0648  083F               	movf	??___flmul+3,w
  6114  0649  043E               	iorwf	??___flmul+2,w
  6115  064A  043D               	iorwf	??___flmul+1,w
  6116  064B  043C               	iorwf	??___flmul,w
  6117  064C  1903               	skipnz
  6118  064D  2E4F               	goto	u4001
  6119  064E  2E50               	goto	u4000
  6120  064F                     u4001:	
  6121  064F  2E53               	goto	l691
  6122  0650                     u4000:	
  6123  0650                     l3070:	
  6124  0650  01C2               	clrf	___flmul@aexp
  6125  0651  0AC2               	incf	___flmul@aexp,f
  6126  0652  2E58               	goto	l3074
  6127  0653                     l691:	
  6128  0653  1C48               	btfss	___flmul@prod,0
  6129  0654  2E56               	goto	u4011
  6130  0655  2E57               	goto	u4010
  6131  0656                     u4011:	
  6132  0656  2E58               	goto	l3074
  6133  0657                     u4010:	
  6134  0657  2E50               	goto	l3070
  6135  0658                     l3074:	
  6136  0658  0842               	movf	___flmul@aexp,w
  6137  0659  1903               	btfsc	3,2
  6138  065A  2E5C               	goto	u4021
  6139  065B  2E5D               	goto	u4020
  6140  065C                     u4021:	
  6141  065C  2E8E               	goto	l3084
  6142  065D                     u4020:	
  6143  065D                     l3076:	
  6144  065D  3001               	movlw	1
  6145  065E  07C8               	addwf	___flmul@prod,f
  6146  065F  3000               	movlw	0
  6147  0660  1803               	skipnc
  6148  0661  3001               	movlw	1
  6149  0662  07C9               	addwf	___flmul@prod+1,f
  6150  0663  3000               	movlw	0
  6151  0664  1803               	skipnc
  6152  0665  3001               	movlw	1
  6153  0666  07CA               	addwf	___flmul@prod+2,f
  6154  0667  3000               	movlw	0
  6155  0668  1803               	skipnc
  6156  0669  3001               	movlw	1
  6157  066A  07CB               	addwf	___flmul@prod+3,f
  6158  066B                     l3078:	
  6159  066B  1C4B               	btfss	___flmul@prod+3,0
  6160  066C  2E6E               	goto	u4031
  6161  066D  2E6F               	goto	u4030
  6162  066E                     u4031:	
  6163  066E  2E8E               	goto	l3084
  6164  066F                     u4030:	
  6165  066F                     l3080:	
  6166  066F  0848               	movf	___flmul@prod,w
  6167  0670  00BC               	movwf	??___flmul
  6168  0671  0849               	movf	___flmul@prod+1,w
  6169  0672  00BD               	movwf	??___flmul+1
  6170  0673  084A               	movf	___flmul@prod+2,w
  6171  0674  00BE               	movwf	??___flmul+2
  6172  0675  084B               	movf	___flmul@prod+3,w
  6173  0676  00BF               	movwf	??___flmul+3
  6174  0677  3001               	movlw	1
  6175  0678  00C0               	movwf	??___flmul+4
  6176  0679                     u4045:	
  6177  0679  0D3F               	rlf	??___flmul+3,w
  6178  067A  0CBF               	rrf	??___flmul+3,f
  6179  067B  0CBE               	rrf	??___flmul+2,f
  6180  067C  0CBD               	rrf	??___flmul+1,f
  6181  067D  0CBC               	rrf	??___flmul,f
  6182  067E                     u4040:	
  6183  067E  0BC0               	decfsz	??___flmul+4,f
  6184  067F  2E79               	goto	u4045
  6185  0680  083F               	movf	??___flmul+3,w
  6186  0681  00CB               	movwf	___flmul@prod+3
  6187  0682  083E               	movf	??___flmul+2,w
  6188  0683  00CA               	movwf	___flmul@prod+2
  6189  0684  083D               	movf	??___flmul+1,w
  6190  0685  00C9               	movwf	___flmul@prod+1
  6191  0686  083C               	movf	??___flmul,w
  6192  0687  00C8               	movwf	___flmul@prod
  6193  0688                     l3082:	
  6194  0688  3001               	movlw	1
  6195  0689  07CC               	addwf	___flmul@temp,f
  6196  068A  1803               	skipnc
  6197  068B  0ACD               	incf	___flmul@temp+1,f
  6198  068C  3000               	movlw	0
  6199  068D  07CD               	addwf	___flmul@temp+1,f
  6200  068E                     l3084:	
  6201  068E  084D               	movf	___flmul@temp+1,w
  6202  068F  3A80               	xorlw	128
  6203  0690  00FF               	movwf	btemp+1
  6204  0691  3080               	movlw	128
  6205  0692  027F               	subwf	btemp+1,w
  6206  0693  1D03               	skipz
  6207  0694  2E97               	goto	u4055
  6208  0695  30FF               	movlw	255
  6209  0696  024C               	subwf	___flmul@temp,w
  6210  0697                     u4055:	
  6211  0697  1C03               	skipc
  6212  0698  2E9A               	goto	u4051
  6213  0699  2E9B               	goto	u4050
  6214  069A                     u4051:	
  6215  069A  2EA6               	goto	l3088
  6216  069B                     u4050:	
  6217  069B                     l3086:	
  6218  069B  307F               	movlw	127
  6219  069C  1283               	bcf	3,5	;RP0=0, select bank0
  6220  069D  1303               	bcf	3,6	;RP1=0, select bank0
  6221  069E  00CB               	movwf	___flmul@prod+3
  6222  069F  3080               	movlw	128
  6223  06A0  00CA               	movwf	___flmul@prod+2
  6224  06A1  3000               	movlw	0
  6225  06A2  00C9               	movwf	___flmul@prod+1
  6226  06A3  3000               	movlw	0
  6227  06A4  00C8               	movwf	___flmul@prod
  6228  06A5  2EDB               	goto	l697
  6229  06A6                     l3088:	
  6230  06A6  1283               	bcf	3,5	;RP0=0, select bank0
  6231  06A7  1303               	bcf	3,6	;RP1=0, select bank0
  6232  06A8  084D               	movf	___flmul@temp+1,w
  6233  06A9  3A80               	xorlw	128
  6234  06AA  00FF               	movwf	btemp+1
  6235  06AB  3080               	movlw	128
  6236  06AC  027F               	subwf	btemp+1,w
  6237  06AD  1D03               	skipz
  6238  06AE  2EB1               	goto	u4065
  6239  06AF  3001               	movlw	1
  6240  06B0  024C               	subwf	___flmul@temp,w
  6241  06B1                     u4065:	
  6242  06B1  1803               	skipnc
  6243  06B2  2EB4               	goto	u4061
  6244  06B3  2EB5               	goto	u4060
  6245  06B4                     u4061:	
  6246  06B4  2EC1               	goto	l3094
  6247  06B5                     u4060:	
  6248  06B5                     l3090:	
  6249  06B5  3000               	movlw	0
  6250  06B6  1283               	bcf	3,5	;RP0=0, select bank0
  6251  06B7  1303               	bcf	3,6	;RP1=0, select bank0
  6252  06B8  00CB               	movwf	___flmul@prod+3
  6253  06B9  3000               	movlw	0
  6254  06BA  00CA               	movwf	___flmul@prod+2
  6255  06BB  3000               	movlw	0
  6256  06BC  00C9               	movwf	___flmul@prod+1
  6257  06BD  3000               	movlw	0
  6258  06BE  00C8               	movwf	___flmul@prod
  6259  06BF                     l3092:	
  6260  06BF  01C1               	clrf	___flmul@sign
  6261  06C0  2EDB               	goto	l697
  6262  06C1                     l3094:	
  6263  06C1  1283               	bcf	3,5	;RP0=0, select bank0
  6264  06C2  1303               	bcf	3,6	;RP1=0, select bank0
  6265  06C3  084C               	movf	___flmul@temp,w
  6266  06C4  00BC               	movwf	??___flmul
  6267  06C5  083C               	movf	??___flmul,w
  6268  06C6  00C7               	movwf	___flmul@bexp
  6269  06C7  30FF               	movlw	255
  6270  06C8  05C8               	andwf	___flmul@prod,f
  6271  06C9  30FF               	movlw	255
  6272  06CA  05C9               	andwf	___flmul@prod+1,f
  6273  06CB  307F               	movlw	127
  6274  06CC  05CA               	andwf	___flmul@prod+2,f
  6275  06CD  3000               	movlw	0
  6276  06CE  05CB               	andwf	___flmul@prod+3,f
  6277  06CF                     l3096:	
  6278  06CF  1C47               	btfss	___flmul@bexp,0
  6279  06D0  2ED2               	goto	u4071
  6280  06D1  2ED3               	goto	u4070
  6281  06D2                     u4071:	
  6282  06D2  2ED4               	goto	l3100
  6283  06D3                     u4070:	
  6284  06D3                     l3098:	
  6285  06D3  17CA               	bsf	___flmul@prod+2,7
  6286  06D4                     l3100:	
  6287  06D4  0847               	movf	___flmul@bexp,w
  6288  06D5  00BC               	movwf	??___flmul
  6289  06D6  1003               	clrc
  6290  06D7  0C3C               	rrf	??___flmul,w
  6291  06D8  00BD               	movwf	??___flmul+1
  6292  06D9  083D               	movf	??___flmul+1,w
  6293  06DA  00CB               	movwf	___flmul@prod+3
  6294  06DB                     l697:	
  6295  06DB  0841               	movf	___flmul@sign,w
  6296  06DC  00BC               	movwf	??___flmul
  6297  06DD  083C               	movf	??___flmul,w
  6298  06DE  04CB               	iorwf	___flmul@prod+3,f
  6299  06DF                     l3102:	
  6300  06DF  084B               	movf	___flmul@prod+3,w
  6301  06E0  00B7               	movwf	?___flmul+3
  6302  06E1  084A               	movf	___flmul@prod+2,w
  6303  06E2  00B6               	movwf	?___flmul+2
  6304  06E3  0849               	movf	___flmul@prod+1,w
  6305  06E4  00B5               	movwf	?___flmul+1
  6306  06E5  0848               	movf	___flmul@prod,w
  6307  06E6  00B4               	movwf	?___flmul
  6308  06E7                     l685:	
  6309  06E7  0008               	return
  6310  06E8                     __end_of___flmul:	
  6311                           
  6312                           	psect	text19
  6313  07D2                     __ptext19:	
  6314 ;; *************** function __Umul8_16 *****************
  6315 ;; Defined at:
  6316 ;;		line 4 in file "C:\Program Files (x86)\Microchip\xc8\v2.10\pic\sources\c90\common\Umul8_16.c"
  6317 ;; Parameters:    Size  Location     Type
  6318 ;;  multiplier      1    wreg     unsigned char 
  6319 ;;  multiplicand    1    2[COMMON] unsigned char 
  6320 ;; Auto vars:     Size  Location     Type
  6321 ;;  multiplier      1    4[BANK0 ] unsigned char 
  6322 ;;  word_mpld       2    2[BANK0 ] unsigned int 
  6323 ;;  product         2    0[BANK0 ] unsigned int 
  6324 ;; Return value:  Size  Location     Type
  6325 ;;                  2    2[COMMON] unsigned int 
  6326 ;; Registers used:
  6327 ;;		wreg, status,2, status,0
  6328 ;; Tracked objects:
  6329 ;;		On entry : 0/0
  6330 ;;		On exit  : 0/0
  6331 ;;		Unchanged: 0/0
  6332 ;; Data sizes:     COMMON   BANK0   BANK1   BANK3   BANK2
  6333 ;;      Params:         2       0       0       0       0
  6334 ;;      Locals:         0       5       0       0       0
  6335 ;;      Temps:          2       0       0       0       0
  6336 ;;      Totals:         4       5       0       0       0
  6337 ;;Total ram usage:        9 bytes
  6338 ;; Hardware stack levels used:    1
  6339 ;; Hardware stack levels required when called:    1
  6340 ;; This function calls:
  6341 ;;		Nothing
  6342 ;; This function is called by:
  6343 ;;		___flmul
  6344 ;; This function uses a non-reentrant model
  6345 ;;
  6346                           
  6347                           
  6348                           ;psect for function __Umul8_16
  6349  07D2                     __Umul8_16:	
  6350                           
  6351                           ;incstack = 0
  6352                           ; Regs used in __Umul8_16: [wreg+status,2+status,0]
  6353                           ;__Umul8_16@multiplier stored from wreg
  6354  07D2  1283               	bcf	3,5	;RP0=0, select bank0
  6355  07D3  1303               	bcf	3,6	;RP1=0, select bank0
  6356  07D4  00A4               	movwf	__Umul8_16@multiplier
  6357  07D5                     l2946:	
  6358  07D5  01A0               	clrf	__Umul8_16@product
  6359  07D6  01A1               	clrf	__Umul8_16@product+1
  6360  07D7                     l2948:	
  6361  07D7  0872               	movf	__Umul8_16@multiplicand,w
  6362  07D8  00F4               	movwf	??__Umul8_16
  6363  07D9  01F5               	clrf	??__Umul8_16+1
  6364  07DA  0874               	movf	??__Umul8_16,w
  6365  07DB  00A2               	movwf	__Umul8_16@word_mpld
  6366  07DC  0875               	movf	??__Umul8_16+1,w
  6367  07DD  00A3               	movwf	__Umul8_16@word_mpld+1
  6368  07DE                     l2950:	
  6369  07DE  1C24               	btfss	__Umul8_16@multiplier,0
  6370  07DF  2FE1               	goto	u3671
  6371  07E0  2FE2               	goto	u3670
  6372  07E1                     u3671:	
  6373  07E1  2FE8               	goto	l742
  6374  07E2                     u3670:	
  6375  07E2                     l2952:	
  6376  07E2  0822               	movf	__Umul8_16@word_mpld,w
  6377  07E3  07A0               	addwf	__Umul8_16@product,f
  6378  07E4  1803               	skipnc
  6379  07E5  0AA1               	incf	__Umul8_16@product+1,f
  6380  07E6  0823               	movf	__Umul8_16@word_mpld+1,w
  6381  07E7  07A1               	addwf	__Umul8_16@product+1,f
  6382  07E8                     l742:	
  6383  07E8  3001               	movlw	1
  6384  07E9                     u3685:	
  6385  07E9  1003               	clrc
  6386  07EA  0DA2               	rlf	__Umul8_16@word_mpld,f
  6387  07EB  0DA3               	rlf	__Umul8_16@word_mpld+1,f
  6388  07EC  3EFF               	addlw	-1
  6389  07ED  1D03               	skipz
  6390  07EE  2FE9               	goto	u3685
  6391  07EF  1003               	clrc
  6392  07F0  0CA4               	rrf	__Umul8_16@multiplier,f
  6393  07F1                     l2954:	
  6394  07F1  0824               	movf	__Umul8_16@multiplier,w
  6395  07F2  1D03               	btfss	3,2
  6396  07F3  2FF5               	goto	u3691
  6397  07F4  2FF6               	goto	u3690
  6398  07F5                     u3691:	
  6399  07F5  2FDE               	goto	l2950
  6400  07F6                     u3690:	
  6401  07F6                     l2956:	
  6402  07F6  0821               	movf	__Umul8_16@product+1,w
  6403  07F7  00F3               	movwf	?__Umul8_16+1
  6404  07F8  0820               	movf	__Umul8_16@product,w
  6405  07F9  00F2               	movwf	?__Umul8_16
  6406  07FA                     l744:	
  6407  07FA  0008               	return
  6408  07FB                     __end_of__Umul8_16:	
  6409                           
  6410                           	psect	text20
  6411  0B9B                     __ptext20:	
  6412 ;; *************** function ___fldiv *****************
  6413 ;; Defined at:
  6414 ;;		line 8 in file "C:\Program Files (x86)\Microchip\xc8\v2.10\pic\sources\c90\common\sprcdiv.c"
  6415 ;; Parameters:    Size  Location     Type
  6416 ;;  a               4   46[BANK0 ] unsigned int 
  6417 ;;  b               4   50[BANK0 ] unsigned int 
  6418 ;; Auto vars:     Size  Location     Type
  6419 ;;  grs             4   66[BANK0 ] unsigned long 
  6420 ;;  rem             4   59[BANK0 ] unsigned long 
  6421 ;;  new_exp         2   64[BANK0 ] int 
  6422 ;;  aexp            1   71[BANK0 ] unsigned char 
  6423 ;;  bexp            1   70[BANK0 ] unsigned char 
  6424 ;;  sign            1   63[BANK0 ] unsigned char 
  6425 ;; Return value:  Size  Location     Type
  6426 ;;                  4   46[BANK0 ] unsigned char 
  6427 ;; Registers used:
  6428 ;;		wreg, status,2, status,0, btemp+1
  6429 ;; Tracked objects:
  6430 ;;		On entry : 0/0
  6431 ;;		On exit  : 0/0
  6432 ;;		Unchanged: 0/0
  6433 ;; Data sizes:     COMMON   BANK0   BANK1   BANK3   BANK2
  6434 ;;      Params:         0       8       0       0       0
  6435 ;;      Locals:         0      13       0       0       0
  6436 ;;      Temps:          0       5       0       0       0
  6437 ;;      Totals:         0      26       0       0       0
  6438 ;;Total ram usage:       26 bytes
  6439 ;; Hardware stack levels used:    1
  6440 ;; Hardware stack levels required when called:    1
  6441 ;; This function calls:
  6442 ;;		Nothing
  6443 ;; This function is called by:
  6444 ;;		_main
  6445 ;; This function uses a non-reentrant model
  6446 ;;
  6447                           
  6448                           
  6449                           ;psect for function ___fldiv
  6450  0B9B                     ___fldiv:	
  6451  0B9B                     l2264:	
  6452                           ;incstack = 0
  6453                           ; Regs used in ___fldiv: [wreg+status,2+status,0+btemp+1]
  6454                           
  6455  0B9B  1283               	bcf	3,5	;RP0=0, select bank0
  6456  0B9C  1303               	bcf	3,6	;RP1=0, select bank0
  6457  0B9D  0855               	movf	___fldiv@b+3,w
  6458  0B9E  3980               	andlw	128
  6459  0B9F  00D6               	movwf	??___fldiv
  6460  0BA0  0856               	movf	??___fldiv,w
  6461  0BA1  00DF               	movwf	___fldiv@sign
  6462  0BA2                     l2266:	
  6463  0BA2  0855               	movf	___fldiv@b+3,w
  6464  0BA3  00D6               	movwf	??___fldiv
  6465  0BA4  0756               	addwf	??___fldiv,w
  6466  0BA5  00D7               	movwf	??___fldiv+1
  6467  0BA6  0857               	movf	??___fldiv+1,w
  6468  0BA7  00E6               	movwf	___fldiv@bexp
  6469  0BA8                     l2268:	
  6470  0BA8  1FD4               	btfss	___fldiv@b+2,7
  6471  0BA9  2BAB               	goto	u2561
  6472  0BAA  2BAC               	goto	u2560
  6473  0BAB                     u2561:	
  6474  0BAB  2BAD               	goto	l2272
  6475  0BAC                     u2560:	
  6476  0BAC                     l2270:	
  6477  0BAC  1466               	bsf	___fldiv@bexp,0
  6478  0BAD                     l2272:	
  6479  0BAD  0866               	movf	___fldiv@bexp,w
  6480  0BAE  1903               	btfsc	3,2
  6481  0BAF  2BB1               	goto	u2571
  6482  0BB0  2BB2               	goto	u2570
  6483  0BB1                     u2571:	
  6484  0BB1  2BC2               	goto	l2282
  6485  0BB2                     u2570:	
  6486  0BB2                     l2274:	
  6487  0BB2  0A66               	incf	___fldiv@bexp,w
  6488  0BB3  1D03               	btfss	3,2
  6489  0BB4  2BB6               	goto	u2581
  6490  0BB5  2BB7               	goto	u2580
  6491  0BB6                     u2581:	
  6492  0BB6  2BBF               	goto	l2278
  6493  0BB7                     u2580:	
  6494  0BB7                     l2276:	
  6495  0BB7  3000               	movlw	0
  6496  0BB8  00D5               	movwf	___fldiv@b+3
  6497  0BB9  3000               	movlw	0
  6498  0BBA  00D4               	movwf	___fldiv@b+2
  6499  0BBB  3000               	movlw	0
  6500  0BBC  00D3               	movwf	___fldiv@b+1
  6501  0BBD  3000               	movlw	0
  6502  0BBE  00D2               	movwf	___fldiv@b
  6503  0BBF                     l2278:	
  6504  0BBF  17D4               	bsf	___fldiv@b+2,7
  6505  0BC0                     l2280:	
  6506  0BC0  01D5               	clrf	___fldiv@b+3
  6507  0BC1  2BCA               	goto	l2284
  6508  0BC2                     l2282:	
  6509  0BC2  3000               	movlw	0
  6510  0BC3  00D5               	movwf	___fldiv@b+3
  6511  0BC4  3000               	movlw	0
  6512  0BC5  00D4               	movwf	___fldiv@b+2
  6513  0BC6  3000               	movlw	0
  6514  0BC7  00D3               	movwf	___fldiv@b+1
  6515  0BC8  3000               	movlw	0
  6516  0BC9  00D2               	movwf	___fldiv@b
  6517  0BCA                     l2284:	
  6518  0BCA  0851               	movf	___fldiv@a+3,w
  6519  0BCB  3980               	andlw	128
  6520  0BCC  00D6               	movwf	??___fldiv
  6521  0BCD  0856               	movf	??___fldiv,w
  6522  0BCE  06DF               	xorwf	___fldiv@sign,f
  6523  0BCF                     l2286:	
  6524  0BCF  0851               	movf	___fldiv@a+3,w
  6525  0BD0  00D6               	movwf	??___fldiv
  6526  0BD1  0756               	addwf	??___fldiv,w
  6527  0BD2  00D7               	movwf	??___fldiv+1
  6528  0BD3  0857               	movf	??___fldiv+1,w
  6529  0BD4  00E7               	movwf	___fldiv@aexp
  6530  0BD5                     l2288:	
  6531  0BD5  1FD0               	btfss	___fldiv@a+2,7
  6532  0BD6  2BD8               	goto	u2591
  6533  0BD7  2BD9               	goto	u2590
  6534  0BD8                     u2591:	
  6535  0BD8  2BDA               	goto	l2292
  6536  0BD9                     u2590:	
  6537  0BD9                     l2290:	
  6538  0BD9  1467               	bsf	___fldiv@aexp,0
  6539  0BDA                     l2292:	
  6540  0BDA  0867               	movf	___fldiv@aexp,w
  6541  0BDB  1903               	btfsc	3,2
  6542  0BDC  2BDE               	goto	u2601
  6543  0BDD  2BDF               	goto	u2600
  6544  0BDE                     u2601:	
  6545  0BDE  2BEF               	goto	l2302
  6546  0BDF                     u2600:	
  6547  0BDF                     l2294:	
  6548  0BDF  0A67               	incf	___fldiv@aexp,w
  6549  0BE0  1D03               	btfss	3,2
  6550  0BE1  2BE3               	goto	u2611
  6551  0BE2  2BE4               	goto	u2610
  6552  0BE3                     u2611:	
  6553  0BE3  2BEC               	goto	l2298
  6554  0BE4                     u2610:	
  6555  0BE4                     l2296:	
  6556  0BE4  3000               	movlw	0
  6557  0BE5  00D1               	movwf	___fldiv@a+3
  6558  0BE6  3000               	movlw	0
  6559  0BE7  00D0               	movwf	___fldiv@a+2
  6560  0BE8  3000               	movlw	0
  6561  0BE9  00CF               	movwf	___fldiv@a+1
  6562  0BEA  3000               	movlw	0
  6563  0BEB  00CE               	movwf	___fldiv@a
  6564  0BEC                     l2298:	
  6565  0BEC  17D0               	bsf	___fldiv@a+2,7
  6566  0BED                     l2300:	
  6567  0BED  01D1               	clrf	___fldiv@a+3
  6568  0BEE  2BF7               	goto	l645
  6569  0BEF                     l2302:	
  6570  0BEF  3000               	movlw	0
  6571  0BF0  00D1               	movwf	___fldiv@a+3
  6572  0BF1  3000               	movlw	0
  6573  0BF2  00D0               	movwf	___fldiv@a+2
  6574  0BF3  3000               	movlw	0
  6575  0BF4  00CF               	movwf	___fldiv@a+1
  6576  0BF5  3000               	movlw	0
  6577  0BF6  00CE               	movwf	___fldiv@a
  6578  0BF7                     l645:	
  6579  0BF7  0851               	movf	___fldiv@a+3,w
  6580  0BF8  0450               	iorwf	___fldiv@a+2,w
  6581  0BF9  044F               	iorwf	___fldiv@a+1,w
  6582  0BFA  044E               	iorwf	___fldiv@a,w
  6583  0BFB  1D03               	skipz
  6584  0BFC  2BFE               	goto	u2621
  6585  0BFD  2BFF               	goto	u2620
  6586  0BFE                     u2621:	
  6587  0BFE  2C18               	goto	l2312
  6588  0BFF                     u2620:	
  6589  0BFF                     l2304:	
  6590  0BFF  3000               	movlw	0
  6591  0C00  00D5               	movwf	___fldiv@b+3
  6592  0C01  3000               	movlw	0
  6593  0C02  00D4               	movwf	___fldiv@b+2
  6594  0C03  3000               	movlw	0
  6595  0C04  00D3               	movwf	___fldiv@b+1
  6596  0C05  3000               	movlw	0
  6597  0C06  00D2               	movwf	___fldiv@b
  6598  0C07  3080               	movlw	128
  6599  0C08  04D4               	iorwf	___fldiv@b+2,f
  6600  0C09  307F               	movlw	127
  6601  0C0A  04D5               	iorwf	___fldiv@b+3,f
  6602  0C0B                     l2306:	
  6603  0C0B  085F               	movf	___fldiv@sign,w
  6604  0C0C  00D6               	movwf	??___fldiv
  6605  0C0D  0856               	movf	??___fldiv,w
  6606  0C0E  04D5               	iorwf	___fldiv@b+3,f
  6607  0C0F                     l2308:	
  6608  0C0F  0855               	movf	___fldiv@b+3,w
  6609  0C10  00D1               	movwf	?___fldiv+3
  6610  0C11  0854               	movf	___fldiv@b+2,w
  6611  0C12  00D0               	movwf	?___fldiv+2
  6612  0C13  0853               	movf	___fldiv@b+1,w
  6613  0C14  00CF               	movwf	?___fldiv+1
  6614  0C15  0852               	movf	___fldiv@b,w
  6615  0C16  00CE               	movwf	?___fldiv
  6616  0C17  2D77               	goto	l647
  6617  0C18                     l2312:	
  6618  0C18  0866               	movf	___fldiv@bexp,w
  6619  0C19  1D03               	btfss	3,2
  6620  0C1A  2C1C               	goto	u2631
  6621  0C1B  2C1D               	goto	u2630
  6622  0C1C                     u2631:	
  6623  0C1C  2C26               	goto	l2318
  6624  0C1D                     u2630:	
  6625  0C1D                     l2314:	
  6626  0C1D  3000               	movlw	0
  6627  0C1E  00D1               	movwf	?___fldiv+3
  6628  0C1F  3000               	movlw	0
  6629  0C20  00D0               	movwf	?___fldiv+2
  6630  0C21  3000               	movlw	0
  6631  0C22  00CF               	movwf	?___fldiv+1
  6632  0C23  3000               	movlw	0
  6633  0C24  00CE               	movwf	?___fldiv
  6634  0C25  2D77               	goto	l647
  6635  0C26                     l2318:	
  6636  0C26  0866               	movf	___fldiv@bexp,w
  6637  0C27  00D6               	movwf	??___fldiv
  6638  0C28  01D7               	clrf	??___fldiv+1
  6639  0C29  0857               	movf	??___fldiv+1,w
  6640  0C2A  00D9               	movwf	??___fldiv+3
  6641  0C2B  0867               	movf	___fldiv@aexp,w
  6642  0C2C  0256               	subwf	??___fldiv,w
  6643  0C2D  00D8               	movwf	??___fldiv+2
  6644  0C2E  1C03               	skipc
  6645  0C2F  03D9               	decf	??___fldiv+3,f
  6646  0C30  0858               	movf	??___fldiv+2,w
  6647  0C31  3E7F               	addlw	127
  6648  0C32  00E0               	movwf	___fldiv@new_exp
  6649  0C33  0859               	movf	??___fldiv+3,w
  6650  0C34  1803               	skipnc
  6651  0C35  3E01               	addlw	1
  6652  0C36  3E00               	addlw	0
  6653  0C37  00E1               	movwf	___fldiv@new_exp+1
  6654  0C38                     l2320:	
  6655  0C38  0855               	movf	___fldiv@b+3,w
  6656  0C39  00DE               	movwf	___fldiv@rem+3
  6657  0C3A  0854               	movf	___fldiv@b+2,w
  6658  0C3B  00DD               	movwf	___fldiv@rem+2
  6659  0C3C  0853               	movf	___fldiv@b+1,w
  6660  0C3D  00DC               	movwf	___fldiv@rem+1
  6661  0C3E  0852               	movf	___fldiv@b,w
  6662  0C3F  00DB               	movwf	___fldiv@rem
  6663  0C40                     l2322:	
  6664  0C40  3000               	movlw	0
  6665  0C41  00D5               	movwf	___fldiv@b+3
  6666  0C42  3000               	movlw	0
  6667  0C43  00D4               	movwf	___fldiv@b+2
  6668  0C44  3000               	movlw	0
  6669  0C45  00D3               	movwf	___fldiv@b+1
  6670  0C46  3000               	movlw	0
  6671  0C47  00D2               	movwf	___fldiv@b
  6672  0C48                     l2324:	
  6673  0C48  3000               	movlw	0
  6674  0C49  00E5               	movwf	___fldiv@grs+3
  6675  0C4A  3000               	movlw	0
  6676  0C4B  00E4               	movwf	___fldiv@grs+2
  6677  0C4C  3000               	movlw	0
  6678  0C4D  00E3               	movwf	___fldiv@grs+1
  6679  0C4E  3000               	movlw	0
  6680  0C4F  00E2               	movwf	___fldiv@grs
  6681  0C50                     l2326:	
  6682  0C50  01E7               	clrf	___fldiv@aexp
  6683  0C51  2C9C               	goto	l2346
  6684  0C52                     l2328:	
  6685  0C52  0867               	movf	___fldiv@aexp,w
  6686  0C53  1903               	btfsc	3,2
  6687  0C54  2C56               	goto	u2641
  6688  0C55  2C57               	goto	u2640
  6689  0C56                     u2641:	
  6690  0C56  2C77               	goto	l2338
  6691  0C57                     u2640:	
  6692  0C57                     l2330:	
  6693  0C57  3001               	movlw	1
  6694  0C58  00D6               	movwf	??___fldiv
  6695  0C59                     u2655:	
  6696  0C59  1003               	clrc
  6697  0C5A  0DDB               	rlf	___fldiv@rem,f
  6698  0C5B  0DDC               	rlf	___fldiv@rem+1,f
  6699  0C5C  0DDD               	rlf	___fldiv@rem+2,f
  6700  0C5D  0DDE               	rlf	___fldiv@rem+3,f
  6701  0C5E  0BD6               	decfsz	??___fldiv,f
  6702  0C5F  2C59               	goto	u2655
  6703  0C60  3001               	movlw	1
  6704  0C61  00D6               	movwf	??___fldiv
  6705  0C62                     u2665:	
  6706  0C62  1003               	clrc
  6707  0C63  0DD2               	rlf	___fldiv@b,f
  6708  0C64  0DD3               	rlf	___fldiv@b+1,f
  6709  0C65  0DD4               	rlf	___fldiv@b+2,f
  6710  0C66  0DD5               	rlf	___fldiv@b+3,f
  6711  0C67  0BD6               	decfsz	??___fldiv,f
  6712  0C68  2C62               	goto	u2665
  6713  0C69                     l2332:	
  6714  0C69  1FE5               	btfss	___fldiv@grs+3,7
  6715  0C6A  2C6C               	goto	u2671
  6716  0C6B  2C6D               	goto	u2670
  6717  0C6C                     u2671:	
  6718  0C6C  2C6E               	goto	l2336
  6719  0C6D                     u2670:	
  6720  0C6D                     l2334:	
  6721  0C6D  1452               	bsf	___fldiv@b,0
  6722  0C6E                     l2336:	
  6723  0C6E  3001               	movlw	1
  6724  0C6F  00D6               	movwf	??___fldiv
  6725  0C70                     u2685:	
  6726  0C70  1003               	clrc
  6727  0C71  0DE2               	rlf	___fldiv@grs,f
  6728  0C72  0DE3               	rlf	___fldiv@grs+1,f
  6729  0C73  0DE4               	rlf	___fldiv@grs+2,f
  6730  0C74  0DE5               	rlf	___fldiv@grs+3,f
  6731  0C75  0BD6               	decfsz	??___fldiv,f
  6732  0C76  2C70               	goto	u2685
  6733  0C77                     l2338:	
  6734  0C77  0851               	movf	___fldiv@a+3,w
  6735  0C78  025E               	subwf	___fldiv@rem+3,w
  6736  0C79  1D03               	skipz
  6737  0C7A  2C85               	goto	u2695
  6738  0C7B  0850               	movf	___fldiv@a+2,w
  6739  0C7C  025D               	subwf	___fldiv@rem+2,w
  6740  0C7D  1D03               	skipz
  6741  0C7E  2C85               	goto	u2695
  6742  0C7F  084F               	movf	___fldiv@a+1,w
  6743  0C80  025C               	subwf	___fldiv@rem+1,w
  6744  0C81  1D03               	skipz
  6745  0C82  2C85               	goto	u2695
  6746  0C83  084E               	movf	___fldiv@a,w
  6747  0C84  025B               	subwf	___fldiv@rem,w
  6748  0C85                     u2695:	
  6749  0C85  1C03               	skipc
  6750  0C86  2C88               	goto	u2691
  6751  0C87  2C89               	goto	u2690
  6752  0C88                     u2691:	
  6753  0C88  2C98               	goto	l2344
  6754  0C89                     u2690:	
  6755  0C89                     l2340:	
  6756  0C89  1765               	bsf	___fldiv@grs+3,6
  6757  0C8A                     l2342:	
  6758  0C8A  084E               	movf	___fldiv@a,w
  6759  0C8B  02DB               	subwf	___fldiv@rem,f
  6760  0C8C  084F               	movf	___fldiv@a+1,w
  6761  0C8D  1C03               	skipc
  6762  0C8E  0F4F               	incfsz	___fldiv@a+1,w
  6763  0C8F  02DC               	subwf	___fldiv@rem+1,f
  6764  0C90  0850               	movf	___fldiv@a+2,w
  6765  0C91  1C03               	skipc
  6766  0C92  0F50               	incfsz	___fldiv@a+2,w
  6767  0C93  02DD               	subwf	___fldiv@rem+2,f
  6768  0C94  0851               	movf	___fldiv@a+3,w
  6769  0C95  1C03               	skipc
  6770  0C96  0F51               	incfsz	___fldiv@a+3,w
  6771  0C97  02DE               	subwf	___fldiv@rem+3,f
  6772  0C98                     l2344:	
  6773  0C98  3001               	movlw	1
  6774  0C99  00D6               	movwf	??___fldiv
  6775  0C9A  0856               	movf	??___fldiv,w
  6776  0C9B  07E7               	addwf	___fldiv@aexp,f
  6777  0C9C                     l2346:	
  6778  0C9C  301A               	movlw	26
  6779  0C9D  0267               	subwf	___fldiv@aexp,w
  6780  0C9E  1C03               	skipc
  6781  0C9F  2CA1               	goto	u2701
  6782  0CA0  2CA2               	goto	u2700
  6783  0CA1                     u2701:	
  6784  0CA1  2C52               	goto	l2328
  6785  0CA2                     u2700:	
  6786  0CA2                     l2348:	
  6787  0CA2  085E               	movf	___fldiv@rem+3,w
  6788  0CA3  045D               	iorwf	___fldiv@rem+2,w
  6789  0CA4  045C               	iorwf	___fldiv@rem+1,w
  6790  0CA5  045B               	iorwf	___fldiv@rem,w
  6791  0CA6  1903               	skipnz
  6792  0CA7  2CA9               	goto	u2711
  6793  0CA8  2CAA               	goto	u2710
  6794  0CA9                     u2711:	
  6795  0CA9  2CC9               	goto	l2362
  6796  0CAA                     u2710:	
  6797  0CAA                     l2350:	
  6798  0CAA  1462               	bsf	___fldiv@grs,0
  6799  0CAB  2CC9               	goto	l2362
  6800  0CAC                     l2352:	
  6801  0CAC  3001               	movlw	1
  6802  0CAD  00D6               	movwf	??___fldiv
  6803  0CAE                     u2725:	
  6804  0CAE  1003               	clrc
  6805  0CAF  0DD2               	rlf	___fldiv@b,f
  6806  0CB0  0DD3               	rlf	___fldiv@b+1,f
  6807  0CB1  0DD4               	rlf	___fldiv@b+2,f
  6808  0CB2  0DD5               	rlf	___fldiv@b+3,f
  6809  0CB3  0BD6               	decfsz	??___fldiv,f
  6810  0CB4  2CAE               	goto	u2725
  6811  0CB5                     l2354:	
  6812  0CB5  1FE5               	btfss	___fldiv@grs+3,7
  6813  0CB6  2CB8               	goto	u2731
  6814  0CB7  2CB9               	goto	u2730
  6815  0CB8                     u2731:	
  6816  0CB8  2CBA               	goto	l2358
  6817  0CB9                     u2730:	
  6818  0CB9                     l2356:	
  6819  0CB9  1452               	bsf	___fldiv@b,0
  6820  0CBA                     l2358:	
  6821  0CBA  3001               	movlw	1
  6822  0CBB  00D6               	movwf	??___fldiv
  6823  0CBC                     u2745:	
  6824  0CBC  1003               	clrc
  6825  0CBD  0DE2               	rlf	___fldiv@grs,f
  6826  0CBE  0DE3               	rlf	___fldiv@grs+1,f
  6827  0CBF  0DE4               	rlf	___fldiv@grs+2,f
  6828  0CC0  0DE5               	rlf	___fldiv@grs+3,f
  6829  0CC1  0BD6               	decfsz	??___fldiv,f
  6830  0CC2  2CBC               	goto	u2745
  6831  0CC3                     l2360:	
  6832  0CC3  30FF               	movlw	255
  6833  0CC4  07E0               	addwf	___fldiv@new_exp,f
  6834  0CC5  1803               	skipnc
  6835  0CC6  0AE1               	incf	___fldiv@new_exp+1,f
  6836  0CC7  30FF               	movlw	255
  6837  0CC8  07E1               	addwf	___fldiv@new_exp+1,f
  6838  0CC9                     l2362:	
  6839  0CC9  1FD4               	btfss	___fldiv@b+2,7
  6840  0CCA  2CCC               	goto	u2751
  6841  0CCB  2CCD               	goto	u2750
  6842  0CCC                     u2751:	
  6843  0CCC  2CAC               	goto	l2352
  6844  0CCD                     u2750:	
  6845  0CCD                     l2364:	
  6846  0CCD  01E7               	clrf	___fldiv@aexp
  6847  0CCE                     l2366:	
  6848  0CCE  1FE5               	btfss	___fldiv@grs+3,7
  6849  0CCF  2CD1               	goto	u2761
  6850  0CD0  2CD2               	goto	u2760
  6851  0CD1                     u2761:	
  6852  0CD1  2CEE               	goto	l2374
  6853  0CD2                     u2760:	
  6854  0CD2                     l2368:	
  6855  0CD2  30FF               	movlw	255
  6856  0CD3  0562               	andwf	___fldiv@grs,w
  6857  0CD4  00D6               	movwf	??___fldiv
  6858  0CD5  30FF               	movlw	255
  6859  0CD6  0563               	andwf	___fldiv@grs+1,w
  6860  0CD7  00D7               	movwf	??___fldiv+1
  6861  0CD8  30FF               	movlw	255
  6862  0CD9  0564               	andwf	___fldiv@grs+2,w
  6863  0CDA  00D8               	movwf	??___fldiv+2
  6864  0CDB  307F               	movlw	127
  6865  0CDC  0565               	andwf	___fldiv@grs+3,w
  6866  0CDD  00D9               	movwf	??___fldiv+3
  6867  0CDE  0859               	movf	??___fldiv+3,w
  6868  0CDF  0458               	iorwf	??___fldiv+2,w
  6869  0CE0  0457               	iorwf	??___fldiv+1,w
  6870  0CE1  0456               	iorwf	??___fldiv,w
  6871  0CE2  1903               	skipnz
  6872  0CE3  2CE5               	goto	u2771
  6873  0CE4  2CE6               	goto	u2770
  6874  0CE5                     u2771:	
  6875  0CE5  2CE9               	goto	l661
  6876  0CE6                     u2770:	
  6877  0CE6                     l2370:	
  6878  0CE6  01E7               	clrf	___fldiv@aexp
  6879  0CE7  0AE7               	incf	___fldiv@aexp,f
  6880  0CE8  2CEE               	goto	l2374
  6881  0CE9                     l661:	
  6882  0CE9  1C52               	btfss	___fldiv@b,0
  6883  0CEA  2CEC               	goto	u2781
  6884  0CEB  2CED               	goto	u2780
  6885  0CEC                     u2781:	
  6886  0CEC  2CEE               	goto	l2374
  6887  0CED                     u2780:	
  6888  0CED  2CE6               	goto	l2370
  6889  0CEE                     l2374:	
  6890  0CEE  0867               	movf	___fldiv@aexp,w
  6891  0CEF  1903               	btfsc	3,2
  6892  0CF0  2CF2               	goto	u2791
  6893  0CF1  2CF3               	goto	u2790
  6894  0CF2                     u2791:	
  6895  0CF2  2D24               	goto	l2384
  6896  0CF3                     u2790:	
  6897  0CF3                     l2376:	
  6898  0CF3  3001               	movlw	1
  6899  0CF4  07D2               	addwf	___fldiv@b,f
  6900  0CF5  3000               	movlw	0
  6901  0CF6  1803               	skipnc
  6902  0CF7  3001               	movlw	1
  6903  0CF8  07D3               	addwf	___fldiv@b+1,f
  6904  0CF9  3000               	movlw	0
  6905  0CFA  1803               	skipnc
  6906  0CFB  3001               	movlw	1
  6907  0CFC  07D4               	addwf	___fldiv@b+2,f
  6908  0CFD  3000               	movlw	0
  6909  0CFE  1803               	skipnc
  6910  0CFF  3001               	movlw	1
  6911  0D00  07D5               	addwf	___fldiv@b+3,f
  6912  0D01                     l2378:	
  6913  0D01  1C55               	btfss	___fldiv@b+3,0
  6914  0D02  2D04               	goto	u2801
  6915  0D03  2D05               	goto	u2800
  6916  0D04                     u2801:	
  6917  0D04  2D24               	goto	l2384
  6918  0D05                     u2800:	
  6919  0D05                     l2380:	
  6920  0D05  0852               	movf	___fldiv@b,w
  6921  0D06  00D6               	movwf	??___fldiv
  6922  0D07  0853               	movf	___fldiv@b+1,w
  6923  0D08  00D7               	movwf	??___fldiv+1
  6924  0D09  0854               	movf	___fldiv@b+2,w
  6925  0D0A  00D8               	movwf	??___fldiv+2
  6926  0D0B  0855               	movf	___fldiv@b+3,w
  6927  0D0C  00D9               	movwf	??___fldiv+3
  6928  0D0D  3001               	movlw	1
  6929  0D0E  00DA               	movwf	??___fldiv+4
  6930  0D0F                     u2815:	
  6931  0D0F  0D59               	rlf	??___fldiv+3,w
  6932  0D10  0CD9               	rrf	??___fldiv+3,f
  6933  0D11  0CD8               	rrf	??___fldiv+2,f
  6934  0D12  0CD7               	rrf	??___fldiv+1,f
  6935  0D13  0CD6               	rrf	??___fldiv,f
  6936  0D14                     u2810:	
  6937  0D14  0BDA               	decfsz	??___fldiv+4,f
  6938  0D15  2D0F               	goto	u2815
  6939  0D16  0859               	movf	??___fldiv+3,w
  6940  0D17  00D5               	movwf	___fldiv@b+3
  6941  0D18  0858               	movf	??___fldiv+2,w
  6942  0D19  00D4               	movwf	___fldiv@b+2
  6943  0D1A  0857               	movf	??___fldiv+1,w
  6944  0D1B  00D3               	movwf	___fldiv@b+1
  6945  0D1C  0856               	movf	??___fldiv,w
  6946  0D1D  00D2               	movwf	___fldiv@b
  6947  0D1E                     l2382:	
  6948  0D1E  3001               	movlw	1
  6949  0D1F  07E0               	addwf	___fldiv@new_exp,f
  6950  0D20  1803               	skipnc
  6951  0D21  0AE1               	incf	___fldiv@new_exp+1,f
  6952  0D22  3000               	movlw	0
  6953  0D23  07E1               	addwf	___fldiv@new_exp+1,f
  6954  0D24                     l2384:	
  6955  0D24  0861               	movf	___fldiv@new_exp+1,w
  6956  0D25  3A80               	xorlw	128
  6957  0D26  00FF               	movwf	btemp+1
  6958  0D27  3080               	movlw	128
  6959  0D28  027F               	subwf	btemp+1,w
  6960  0D29  1D03               	skipz
  6961  0D2A  2D2D               	goto	u2825
  6962  0D2B  30FF               	movlw	255
  6963  0D2C  0260               	subwf	___fldiv@new_exp,w
  6964  0D2D                     u2825:	
  6965  0D2D  1C03               	skipc
  6966  0D2E  2D30               	goto	u2821
  6967  0D2F  2D31               	goto	u2820
  6968  0D30                     u2821:	
  6969  0D30  2D3F               	goto	l2388
  6970  0D31                     u2820:	
  6971  0D31                     l2386:	
  6972  0D31  30FF               	movlw	255
  6973  0D32  1283               	bcf	3,5	;RP0=0, select bank0
  6974  0D33  1303               	bcf	3,6	;RP1=0, select bank0
  6975  0D34  00E0               	movwf	___fldiv@new_exp
  6976  0D35  3000               	movlw	0
  6977  0D36  00E1               	movwf	___fldiv@new_exp+1
  6978  0D37  3000               	movlw	0
  6979  0D38  00D5               	movwf	___fldiv@b+3
  6980  0D39  3000               	movlw	0
  6981  0D3A  00D4               	movwf	___fldiv@b+2
  6982  0D3B  3000               	movlw	0
  6983  0D3C  00D3               	movwf	___fldiv@b+1
  6984  0D3D  3000               	movlw	0
  6985  0D3E  00D2               	movwf	___fldiv@b
  6986  0D3F                     l2388:	
  6987  0D3F  1283               	bcf	3,5	;RP0=0, select bank0
  6988  0D40  1303               	bcf	3,6	;RP1=0, select bank0
  6989  0D41  0861               	movf	___fldiv@new_exp+1,w
  6990  0D42  3A80               	xorlw	128
  6991  0D43  00FF               	movwf	btemp+1
  6992  0D44  3080               	movlw	128
  6993  0D45  027F               	subwf	btemp+1,w
  6994  0D46  1D03               	skipz
  6995  0D47  2D4A               	goto	u2835
  6996  0D48  3001               	movlw	1
  6997  0D49  0260               	subwf	___fldiv@new_exp,w
  6998  0D4A                     u2835:	
  6999  0D4A  1803               	skipnc
  7000  0D4B  2D4D               	goto	u2831
  7001  0D4C  2D4E               	goto	u2830
  7002  0D4D                     u2831:	
  7003  0D4D  2D5B               	goto	l667
  7004  0D4E                     u2830:	
  7005  0D4E                     l2390:	
  7006  0D4E  1283               	bcf	3,5	;RP0=0, select bank0
  7007  0D4F  1303               	bcf	3,6	;RP1=0, select bank0
  7008  0D50  01E0               	clrf	___fldiv@new_exp
  7009  0D51  01E1               	clrf	___fldiv@new_exp+1
  7010  0D52                     l2392:	
  7011  0D52  3000               	movlw	0
  7012  0D53  00D5               	movwf	___fldiv@b+3
  7013  0D54  3000               	movlw	0
  7014  0D55  00D4               	movwf	___fldiv@b+2
  7015  0D56  3000               	movlw	0
  7016  0D57  00D3               	movwf	___fldiv@b+1
  7017  0D58  3000               	movlw	0
  7018  0D59  00D2               	movwf	___fldiv@b
  7019  0D5A                     l2394:	
  7020  0D5A  01DF               	clrf	___fldiv@sign
  7021  0D5B                     l667:	
  7022  0D5B  1283               	bcf	3,5	;RP0=0, select bank0
  7023  0D5C  1303               	bcf	3,6	;RP1=0, select bank0
  7024  0D5D  0860               	movf	___fldiv@new_exp,w
  7025  0D5E  00D6               	movwf	??___fldiv
  7026  0D5F  0856               	movf	??___fldiv,w
  7027  0D60  00E6               	movwf	___fldiv@bexp
  7028  0D61                     l2396:	
  7029  0D61  1C66               	btfss	___fldiv@bexp,0
  7030  0D62  2D64               	goto	u2841
  7031  0D63  2D65               	goto	u2840
  7032  0D64                     u2841:	
  7033  0D64  2D67               	goto	l2400
  7034  0D65                     u2840:	
  7035  0D65                     l2398:	
  7036  0D65  17D4               	bsf	___fldiv@b+2,7
  7037  0D66  2D6B               	goto	l669
  7038  0D67                     l2400:	
  7039  0D67  307F               	movlw	127
  7040  0D68  00D6               	movwf	??___fldiv
  7041  0D69  0856               	movf	??___fldiv,w
  7042  0D6A  05D4               	andwf	___fldiv@b+2,f
  7043  0D6B                     l669:	
  7044  0D6B  0866               	movf	___fldiv@bexp,w
  7045  0D6C  00D6               	movwf	??___fldiv
  7046  0D6D  1003               	clrc
  7047  0D6E  0C56               	rrf	??___fldiv,w
  7048  0D6F  00D7               	movwf	??___fldiv+1
  7049  0D70  0857               	movf	??___fldiv+1,w
  7050  0D71  00D5               	movwf	___fldiv@b+3
  7051  0D72  085F               	movf	___fldiv@sign,w
  7052  0D73  00D6               	movwf	??___fldiv
  7053  0D74  0856               	movf	??___fldiv,w
  7054  0D75  04D5               	iorwf	___fldiv@b+3,f
  7055  0D76  2C0F               	goto	l2308
  7056  0D77                     l647:	
  7057  0D77  0008               	return
  7058  0D78                     __end_of___fldiv:	
  7059                           
  7060                           	psect	text21
  7061  178C                     __ptext21:	
  7062 ;; *************** function _ISR *****************
  7063 ;; Defined at:
  7064 ;;		line 36 in file "LCD.c"
  7065 ;; Parameters:    Size  Location     Type
  7066 ;;		None
  7067 ;; Auto vars:     Size  Location     Type
  7068 ;;		None
  7069 ;; Return value:  Size  Location     Type
  7070 ;;                  1    wreg      void 
  7071 ;; Registers used:
  7072 ;;		None
  7073 ;; Tracked objects:
  7074 ;;		On entry : 0/0
  7075 ;;		On exit  : 0/0
  7076 ;;		Unchanged: 0/0
  7077 ;; Data sizes:     COMMON   BANK0   BANK1   BANK3   BANK2
  7078 ;;      Params:         0       0       0       0       0
  7079 ;;      Locals:         0       0       0       0       0
  7080 ;;      Temps:          2       0       0       0       0
  7081 ;;      Totals:         2       0       0       0       0
  7082 ;;Total ram usage:        2 bytes
  7083 ;; Hardware stack levels used:    1
  7084 ;; This function calls:
  7085 ;;		Nothing
  7086 ;; This function is called by:
  7087 ;;		Interrupt level 1
  7088 ;; This function uses a non-reentrant model
  7089 ;;
  7090                           
  7091                           
  7092                           ;psect for function _ISR
  7093  178C                     _ISR:	
  7094  178C                     i1l2590:	
  7095                           
  7096                           ;LCD.c: 37:     INTCONbits.GIE = 0;
  7097  178C  138B               	bcf	11,7	;volatile
  7098                           
  7099                           ;LCD.c: 38:     INTCONbits.PEIE = 0;
  7100  178D  130B               	bcf	11,6	;volatile
  7101                           
  7102                           ;LCD.c: 40:     if(ADCON0bits.GO_DONE == 0){
  7103  178E  1283               	bcf	3,5	;RP0=0, select bank0
  7104  178F  1303               	bcf	3,6	;RP1=0, select bank0
  7105  1790  189F               	btfsc	31,1	;volatile
  7106  1791  2F93               	goto	u336_21
  7107  1792  2F94               	goto	u336_20
  7108  1793                     u336_21:	
  7109  1793  2F97               	goto	i1l71
  7110  1794                     u336_20:	
  7111  1794                     i1l2592:	
  7112                           
  7113                           ;LCD.c: 41:         ready = 1;
  7114  1794  01EF               	clrf	_ready
  7115  1795  0AEF               	incf	_ready,f
  7116                           
  7117                           ;LCD.c: 42:         PIR1bits.ADIF = 0;
  7118  1796  130C               	bcf	12,6	;volatile
  7119  1797                     i1l71:	
  7120                           ;LCD.c: 43:     }
  7121                           
  7122                           
  7123                           ;LCD.c: 45:     INTCONbits.GIE = 1;
  7124  1797  178B               	bsf	11,7	;volatile
  7125                           
  7126                           ;LCD.c: 46:     INTCONbits.PEIE = 1;
  7127  1798  170B               	bsf	11,6	;volatile
  7128  1799                     i1l72:	
  7129  1799  0871               	movf	??_ISR+1,w
  7130  179A  008A               	movwf	10
  7131  179B  0E70               	swapf	??_ISR^(0+4294967168),w
  7132  179C  0083               	movwf	3
  7133  179D  0EFE               	swapf	btemp,f
  7134  179E  0E7E               	swapf	btemp,w
  7135  179F  0009               	retfie
  7136  17A0                     __end_of_ISR:	
  7137  007E                     btemp	set	126	;btemp
  7138  007E                     wtemp0	set	126
  7139                           
  7140                           	psect	intentry
  7141  0004                     __pintentry:	
  7142                           ;incstack = 0
  7143                           ; Regs used in _ISR: []
  7144                           
  7145  0004                     interrupt_function:	
  7146  007E                     saved_w	set	btemp
  7147  0004  00FE               	movwf	btemp
  7148  0005  0E03               	swapf	3,w
  7149  0006  00F0               	movwf	??_ISR
  7150  0007  080A               	movf	10,w
  7151  0008  00F1               	movwf	??_ISR+1
  7152  0009  160A  118A  2F8C   	ljmp	_ISR


Data Sizes:
    Strings     23
    Constant    10
    Data        0
    BSS         22
    Persistent  0
    Stack       0

Auto Spaces:
    Space          Size  Autos    Used
    COMMON           14     10      12
    BANK0            80     76      80
    BANK1            80      0      16
    BANK3            96      0       0
    BANK2            96      0       0

Pointer List with Targets:

    sprintf@f	PTR const unsigned char  size(1) Largest target is 3
		 -> STR_10(CODE[3]), 

    sprintf@sp	PTR unsigned char  size(1) Largest target is 4
		 -> lcd_write_int@buffer(BANK0[4]), 

    sprintf@ap	PTR void [1] size(1) Largest target is 2
		 -> ?_sprintf(BANK0[2]), 

    lcd_write_string@var	PTR unsigned char  size(2) Largest target is 6
		 -> lcd_write_int@buffer(BANK0[4]), STR_9(CODE[2]), STR_8(CODE[2]), STR_7(CODE[2]), 
		 -> STR_6(CODE[2]), STR_5(CODE[2]), STR_4(CODE[2]), STR_3(CODE[4]), 
		 -> STR_2(CODE[6]), STR_1(CODE[6]), 


Critical Paths under _main in COMMON

    _main->___xxtofl
    _main->_lcd_write_string
    _send_float->___fltol
    _lcd_write_int->_lcd_write_string
    _sprintf->___lwdiv
    ___lwmod->___lwdiv
    _lcd_write_string->_lcd_write_char
    _lcd_set_cursor->_lcd_cmd
    _lcd_clr->_lcd_cmd
    _initLCD->_lcd_cmd
    ___flsub->___fladd
    ___flsub->___xxtofl
    ___flmul->___xxtofl

Critical Paths under _ISR in COMMON

    None.

Critical Paths under _main in BANK0

    _main->___fldiv
    _send_float->___fltol
    _lcd_write_int->_sprintf
    _sprintf->___lwmod
    ___flsub->___fladd
    ___flmul->___flsub
    ___fldiv->___flmul

Critical Paths under _ISR in BANK0

    None.

Critical Paths under _main in BANK1

    None.

Critical Paths under _ISR in BANK1

    None.

Critical Paths under _main in BANK3

    None.

Critical Paths under _ISR in BANK3

    None.

Critical Paths under _main in BANK2

    None.

Critical Paths under _ISR in BANK2

    None.

Call Graph Tables:

 ---------------------------------------------------------------------------------
 (Depth) Function   	        Calls       Base Space   Used Autos Params    Refs
 ---------------------------------------------------------------------------------
 (0) _main                                                 4     4      0   14692
                                             72 BANK0      4     4      0
                            ___fldiv
                            ___flmul
                            ___flsub
                            ___fltol
                           ___xxtofl
                            _initADC
                            _initLCD
                         _initSerial
                            _lcd_clr
                     _lcd_set_cursor
                     _lcd_write_char
                      _lcd_write_int
                   _lcd_write_string
                         _send_float
 ---------------------------------------------------------------------------------
 (1) _send_float                                           4     0      4     998
                                              5 BANK0      4     0      4
                            ___fltol
 ---------------------------------------------------------------------------------
 (2) ___fltol                                             11     7      4     787
                                              2 COMMON     6     2      4
                                              0 BANK0      5     5      0
 ---------------------------------------------------------------------------------
 (1) _lcd_write_int                                        8     8      0    2732
                                             19 BANK0      8     8      0
                   _lcd_write_string
                            _sprintf
 ---------------------------------------------------------------------------------
 (2) _sprintf                                             21    18      3    1548
                                              6 BANK0     13    10      3
                            ___lwdiv
                            ___lwmod
 ---------------------------------------------------------------------------------
 (3) ___lwmod                                              6     2      4     412
                                              0 BANK0      6     2      4
                            ___lwdiv (ARG)
 ---------------------------------------------------------------------------------
 (3) ___lwdiv                                              8     4      4     314
                                              2 COMMON     8     4      4
 ---------------------------------------------------------------------------------
 (1) _lcd_write_string                                     7     5      2    1061
                                              5 COMMON     5     3      2
                                              0 BANK0      2     2      0
                     _lcd_write_char
 ---------------------------------------------------------------------------------
 (2) _lcd_write_char                                       3     3      0      31
                                              2 COMMON     3     3      0
 ---------------------------------------------------------------------------------
 (1) _lcd_set_cursor                                       2     1      1     490
                                              5 COMMON     2     1      1
                            _lcd_cmd
 ---------------------------------------------------------------------------------
 (1) _lcd_clr                                              0     0      0      22
                            _lcd_cmd
 ---------------------------------------------------------------------------------
 (1) _initSerial                                           2     0      2      98
                                              2 COMMON     2     0      2
 ---------------------------------------------------------------------------------
 (1) _initLCD                                              2     2      0      22
                                              5 COMMON     2     2      0
                            _lcd_cmd
 ---------------------------------------------------------------------------------
 (2) _lcd_cmd                                              3     3      0      22
                                              2 COMMON     3     3      0
 ---------------------------------------------------------------------------------
 (1) _initADC                                              3     3      0      22
                                              2 COMMON     3     3      0
 ---------------------------------------------------------------------------------
 (1) ___xxtofl                                            14    10      4     626
                                              2 COMMON     8     4      4
                                              0 BANK0      6     6      0
 ---------------------------------------------------------------------------------
 (1) ___flsub                                              8     0      8    2485
                                             12 BANK0      8     0      8
                            ___fladd
                           ___xxtofl (ARG)
 ---------------------------------------------------------------------------------
 (2) ___fladd                                             20    12      8    2136
                                              2 COMMON     8     0      8
                                              0 BANK0     12    12      0
 ---------------------------------------------------------------------------------
 (1) ___flmul                                             26    18      8    3893
                                             20 BANK0     26    18      8
                          __Umul8_16
                            ___flsub (ARG)
                           ___xxtofl (ARG)
 ---------------------------------------------------------------------------------
 (2) __Umul8_16                                            9     7      2     980
                                              2 COMMON     4     2      2
                                              0 BANK0      5     5      0
 ---------------------------------------------------------------------------------
 (1) ___fldiv                                             26    18      8    1425
                                             46 BANK0     26    18      8
                            ___flmul (ARG)
 ---------------------------------------------------------------------------------
 Estimated maximum stack depth 3
 ---------------------------------------------------------------------------------
 (Depth) Function   	        Calls       Base Space   Used Autos Params    Refs
 ---------------------------------------------------------------------------------
 (4) _ISR                                                  2     2      0       0
                                              0 COMMON     2     2      0
 ---------------------------------------------------------------------------------
 Estimated maximum stack depth 4
 ---------------------------------------------------------------------------------

 Call Graph Graphs:

 _main (ROOT)
   ___fldiv
     ___flmul (ARG)
       __Umul8_16
       ___flsub (ARG)
         ___fladd
         ___xxtofl (ARG)
       ___xxtofl (ARG)
   ___flmul
     __Umul8_16
     ___flsub (ARG)
       ___fladd
       ___xxtofl (ARG)
     ___xxtofl (ARG)
   ___flsub
     ___fladd
     ___xxtofl (ARG)
   ___fltol
   ___xxtofl
   _initADC
   _initLCD
     _lcd_cmd
   _initSerial
   _lcd_clr
     _lcd_cmd
   _lcd_set_cursor
     _lcd_cmd
   _lcd_write_char
   _lcd_write_int
     _lcd_write_string
       _lcd_write_char
     _sprintf
       ___lwdiv
       ___lwmod
         ___lwdiv (ARG)
   _lcd_write_string
     _lcd_write_char
   _send_float
     ___fltol

 _ISR (ROOT)

 Address spaces:
Name               Size   Autos  Total    Cost      Usage
BITCOMMON            E      0       0       0        0.0%
EEDATA             100      0       0       0        0.0%
NULL                 0      0       0       0        0.0%
CODE                 0      0       0       0        0.0%
COMMON               E      A       C       1       85.7%
BITSFR0              0      0       0       1        0.0%
SFR0                 0      0       0       1        0.0%
BITSFR1              0      0       0       2        0.0%
SFR1                 0      0       0       2        0.0%
STACK                0      0       0       2        0.0%
ABS                  0      0      6C       3        0.0%
BITBANK0            50      0       0       4        0.0%
BITSFR3              0      0       0       4        0.0%
SFR3                 0      0       0       4        0.0%
BANK0               50     4C      50       5      100.0%
BITSFR2              0      0       0       5        0.0%
SFR2                 0      0       0       5        0.0%
BITBANK1            50      0       0       6        0.0%
BANK1               50      0      10       7       20.0%
BITBANK3            60      0       0       8        0.0%
BANK3               60      0       0       9        0.0%
BITBANK2            60      0       0      10        0.0%
BANK2               60      0       0      11        0.0%
DATA                 0      0      6C      12        0.0%


Microchip Technology PIC Macro Assembler V2.10 build 88905656 
Symbol Table                                                                                   Sat Feb 08 17:22:01 2020

             ___fldiv@aexp 0067               ___fldiv@bexp 0066                          pc 0002  
             ___fldiv@sign 005F                __CFG_CP$OFF 0000                         l99 09C4  
                       fsr 0004        __Umul8_16@word_mpld 0022                        l102 17B3  
                      l110 084C                        l105 1783                        l113 17C7  
                      l122 17FF                        l140 0A5D                        l141 0A62  
                      l150 0A8F                        l142 0A67                        l151 0A94  
                      l143 0A6C                        l119 0975                        l152 0A99  
                      l144 0A71                        l136 0A4E                        l153 0ADE  
                      l145 0A76                        l146 0A7B                        l138 0A53  
                      l147 0A80                        l139 0A58                        l148 0A85  
                      l172 08BF             lcd_cmd@command 0074                        l149 0A8A  
                      l173 08C2                        l174 08C5                        l182 17E1  
                      l176 08EB                        l610 0F4D                        l602 0FFF  
                      l179 17C8                        l620 0F93                        l292 07D1  
                      l614 0F71                        l631 0FF3                        l623 0FD1  
                      l632 0FFF                        l482 0A40                        l635 0870  
                      l723 0B03                        l492 0A40                        l661 0CE9  
                      l645 0BF7                        l725 0B9A                        l742 07E8  
                      l647 0D77                        l744 07FA                        l736 0B64  
                      l568 092F                        l593 0E82                        l737 0B70  
                      l729 0B48                        l489 0A2B                        l578 08AC  
                      l667 0D5B                        l691 0653                        l595 0E59  
                      l669 0D6B                        l685 06E7                        l589 0DDB  
                      l697 06DB               __CFG_CPD$OFF 0000                        _ISR 178C  
                      fsr0 0004                        _ttl 007A                        indf 0000  
             ___flmul@aexp 0042               ___flmul@bexp 0047               ___flmul@sign 0041  
             ___flmul@temp 004C               ___flmul@prod 0048            ?_lcd_set_cursor 0075  
             __CFG_LVP$OFF 0000                       ?_ISR 0070               ___fltol@exp1 0077  
                     l2000 0DB2                       l2010 0DC3                       l2002 0DB3  
                     l2100 0EE7                       l2020 0DE1                       l2012 0DC8  
                     l2004 0DB9                       l2110 0F55                       l2102 0F25  
                     l2030 0DF5                       l2022 0DE5                       l2014 0DD0  
                     l2006 0DBD                       l3000 03D9                       l2120 0F70  
                     l2112 0F5A                       l2104 0F2B                       l2040 0E09  
                     l2032 0DF9                       l2024 0DE9                       l2016 0DD1  
                     l2008 0DBE                       l2200 09B8                       l3010 03F4  
                     l3002 03E1                       l2122 0F75                       l2130 0F81  
                     l2106 0F30                       l2050 0E1D                       l2042 0E0D  
                     l2034 0DFD                       l2026 0DED                       l2018 0DD3  
                     l2202 09BE                       l2210 08C9                       l2300 0BED  
                     l3100 06D4                       l3020 0476                       l3012 0404  
                     l3004 03E6                       l2124 0F78                       l2116 0F63  
                     l2108 0F3F                       l2132 0F85                       l2060 0E5D  
                     l2052 0E21                       l2044 0E11                       l2036 0E01  
                     l2028 0DF1                       l2204 08AD                       l2302 0BEF  
                     l3102 06DF                       l3030 04E4                       l3022 0492  
                     l3014 0411                       l3006 03EB                       l2150 0FCD  
                     l2142 0F98                       l2134 0F86                       l2126 0F7A  
                     l2118 0F6C                       l2070 0E76                       l2062 0E66  
                     l2046 0E15                       l2038 0E05                       l2054 0E25  
                     l2206 08B7                       l2230 0833                       l3110 0029  
                     l2400 0D67                       l2320 0C38                       l2304 0BFF  
                     l2312 0C18                       l3040 0574                       l3032 04F4  
                     l3024 04AE                       l3016 042E                       l2160 0FE9  
                     l2152 0FD6                       l2144 0F9D                       l2136 0F8A  
                     l2128 0F7F                       l2080 0E94                       l2064 0E68  
                     l2072 0E7A                       l2056 0E26                       l2048 0E19  
                     l2208 08BB                       l2232 0838                       l3200 0378  
                     l3120 0043                       l3112 002A                       l2330 0C57  
                     l2322 0C40                       l2314 0C1D                       l2306 0C0B  
                     l3050 0608                       l3042 0584                       l3034 0511  
                     l3026 04B7                       l3018 044A                       l2162 0FED  
                     l2154 0FDB                       l2146 0FAB                       l2138 0F90  
                     l2090 0EBE                       l2082 0EAB                       l2074 0E86  
                     l2066 0E6C                       l2058 0E3D                       l2242 0A9E  
                     l2234 083F                       l3130 006A                       l3122 0048  
                     l3114 002B                       l3106 0024                       l2340 0C89  
                     l2332 0C69                       l2324 0C48                       l2308 0C0F  
                     l3060 062D                       l3052 0616                       l3044 05B1  
                     l3036 052A                       l3028 04C7                       l2164 0FEF  
                     l2156 0FE3                       l2148 0FAF                       l2092 0EC2  
                     l2084 0EAF                       l2076 0E8B                       l2068 0E6D  
                     l2260 0851                       l2244 0AD8                       l2228 177D  
                     l2236 0845                       l3140 00A5                       l3132 0072  
                     l3124 0050                       l3116 0035                       l3108 0028  
                     l2350 0CAA                       l2342 0C8A                       l2334 0C6D  
                     l2326 0C50                       l2318 0C26                       l2270 0BAC  
                     l3070 0650                       l3054 061F                       l3062 0633  
                     l3046 05D7                       l3038 0547                       l2166 0FFA  
                     l2158 0FE8                       l2094 0EC3                       l2086 0EB3  
                     l2246 0ADB                       l2238 0A42                       l2190 0993  
                     l3150 0179                       l3142 00A8                       l3134 007B  
                     l3126 0059                       l3118 003A                       l2360 0CC3  
                     l2352 0CAC                       l2344 0C98                       l2336 0C6E  
                     l2328 0C52                       l2280 0BC0                       l2272 0BAD  
                     l2264 0B9B                       l3080 066F                       l3064 0637  
                     l3056 0623                       l3048 05FF                       l2168 0FFE  
                     l2096 0ECC                       l2088 0EBC                       l2192 099C  
                     l2184 0976                       l3160 01C3                       l3152 018C  
                     l3144 00A9                       l3136 0081                       l3128 0061  
                     l2370 0CE6                       l2354 0CB5                       l2362 0CC9  
                     l2338 0C77                       l2346 0C9C                       l2290 0BD9  
                     l2274 0BB2                       l2282 0BC2                       l2266 0BA2  
                     l3090 06B5                       l3082 0688                       l3074 0658  
                     l3066 0638                       l3058 0624                       l2098 0ED1  
                     l2258 084D                       l2194 09A6                       l2186 097F  
                     l3330 08E6                       l3322 0715                       l3170 0206  
                     l3162 01CB                       l3154 01A9                       l3146 00FD  
                     l3138 0088                       l2380 0D05                       l2364 0CCD  
                     l2356 0CB9                       l2348 0CA2                       l2292 0BDA  
                     l2284 0BCA                       l2276 0BB7                       l2268 0BA8  
                     l3092 06BF                       l3076 065D                       l3084 068E  
                     l3068 063C                       l3332 0AA6                       l2196 09AC  
                     l2188 0985                       l3324 08D7                       l1820 08F7  
                     l3180 0282                       l3172 020D                       l3164 01DB  
                     l3156 01B5                       l3148 0110                       l2390 0D4E  
                     l2382 0D1E                       l2374 0CEE                       l2366 0CCE  
                     l2358 0CBA                       l2294 0BDF                       l2286 0BCF  
                     l2278 0BBF                       l3094 06C1                       l3086 069B  
                     l3078 066B                       l2550 0AEB                       l2198 09B2  
                     l3326 08DC                       l1830 091D                       l1822 08FE  
                     l1814 08EC                       l3190 033A                       l3182 0295  
                     l3174 022A                       l3166 01F5                       l3158 01BD  
                     l2392 0D52                       l2376 0CF3                       l2384 0D24  
                     l2368 0CD2                       l2296 0BE4                       l2288 0BD5  
                     l3096 06CF                       l3088 06A6                       l2560 0B19  
                     l2552 0AFB                       l3328 08E1                       l1832 091E  
                     l1824 0902                       l1816 08EE                       l3192 0340  
                     l3184 02FE                       l3176 022D                       l3168 0200  
                     l2394 0D5A                       l2386 0D31                       l2378 0D01  
                     l2298 0BEC                       l3098 06D3                       l2570 0B4F  
                     l2562 0B26                       l2554 0B0B                       l2546 0AE2  
                     l2810 17B5                       l1834 0925                       l1826 0906  
                     l1818 08F4                       l3194 0346                       l3186 0311  
                     l3178 022E                       l2396 0D61                       l2388 0D3F  
                     l2580 0B88                       l2572 0B5A                       l2564 0B2D  
                     l2548 0AE7                       l2812 17B8                       l1828 0917  
                     l1836 092B                       l2820 0879                       l2900 07BB  
                     l3196 034E                       l3188 032E                       l2398 0D65  
                     l2582 0B8D                       l2574 0B5E                       l2566 0B31  
                     l2558 0B14                       l1870 17A1                       l2814 17BA  
                     l2830 0895                       l2822 087C                       l2902 07CD  
                     l2910 09C5                       l3198 035E                       l2584 0B91  
                     l2576 0B68                       l2568 0B3F                       l1872 17A4  
                     l2816 17C4                       l2840 0930                       l2832 089B  
                     l2824 0883                       l2920 09F1                       l2912 09D2  
                     l2586 0B92                       l2578 0B72                       l1874 17A6  
                     l2842 0935                       l2834 08A2                       l2826 0887  
                     l2818 0871                       l2850 06F0                       l2922 09F9  
                     l1980 0D85                       l1876 17B0                       l2844 0951  
                     l2828 088B                       l2836 08A8                       l2860 0703  
                     l2852 06F6                       l2940 0A20                       l2932 0A07  
                     l2924 09FB                       l2916 09DB                       l2950 07DE  
                     l1990 0D9C                       l1982 0D89                       l2846 0959  
                     l2870 0734                       l2862 0720                       l2854 06FD  
                     l2942 0A30                       l2926 09FF                       l2934 0A19  
                     l2918 09F0                       l2952 07E2                       l1992 0D9D  
                     l1984 0D8A                       l1976 0D78                       l2872 0739  
                     l2864 0728                       l2856 0702                       l2848 06EB  
                     l2944 0A35                       l2960 17C8                       l2954 07F1  
                     l2946 07D5                       l2970 0394                       l1986 0D8F  
                     l1994 0D9F                       l1978 0D7F                       l2890 0772  
                     l2882 0757                       l2866 072C                       l2962 17CE  
                     l2956 07F6                       l2948 07D7                       l2980 03AB  
                     l2972 0398                       l1996 0DA7                       l1988 0D94  
                     l2892 0777                       l2884 0761                       l2868 0730  
                     l2964 17E5                       l2990 03C4                       l2982 03AD  
                     l2974 0399                       l2966 0387                       l1998 0DAC  
                     l2894 07A7                       l2886 0767                       l2878 073B  
                     l2992 03C5                       l2984 03B5                       l2976 039E  
                     l2968 038E                       l2896 07AE                       l2888 076E  
                     l2994 03CA                       l2986 03BA                       l2978 03A3  
                     l2898 07B2                       l2996 03CF                       l2988 03C0  
                     l2998 03D7                       STR_1 081A                       STR_2 0820  
                     STR_3 0826                       STR_4 082F                       STR_5 082D  
                     STR_6 082F                       STR_7 082F                       STR_8 082D  
                     STR_9 082F                       u2100 0DC8                       u2101 0DC7  
                     u2110 0DE1                       u2111 0DE0                       u2200 0E86  
                     u2120 0DE5                       u2040 0D89                       u2201 0E85  
                     u2121 0DE4                       u2041 0D88                       u2210 0E8B  
                     u2130 0E3D                       u2050 0D8F                       u2211 0E8A  
                     u2131 0E3C                       u2051 0D8E                       u2300 0F30  
                     u2140 0E46                       u2060 0D94                       u2301 0F2F  
                     u2221 0E9D                       u2141 0E44                       u2061 0D93  
                     u2310 0F55                       u2230 0EAF                       u2222 0EA4  
                     u2150 0E47                       u2070 0DB2                       u2311 0F54  
                     u2231 0EAE                       u2223 0EAB                       u2135 0E39  
                     u2071 0DB1                       u4000 0650                       u2400 0F97  
                     u2320 0F5A                       u2240 0EB3                       u2160 0E5D  
                     u2080 0DBD                       u4001 064F                       u2401 0F96  
                     u2321 0F59                       u2241 0EB2                       u2161 0E5C  
                     u2081 0DBC                       u4010 0657                       u2410 0F9D  
                     u2250 0EC2                       u2170 0E6C                       u2090 0DC3  
                     u4011 0656                       u2411 0F9C                       u2251 0EC1  
                     u2171 0E6B                       u2091 0DC2                       u4020 065D  
                     u2420 0FAF                       u2340 0F70                       u3300 0B5E  
                     u3220 0AE7                       u4100 020D                       u4021 065C  
                     u2421 0FAE                       u2341 0F6F                       u3301 0B5D  
                     u3221 0AE6                       u4101 020C                       u4030 066F  
                     u2430 0FBE                       u2350 0F75                       u2270 0EE7  
                     u2190 0E82                       u3310 0B64                       u3230 0AEB  
                     u1710 08F4                       u4110 034E                       u4031 066E  
                     u2351 0F74                       u2335 0F65                       u2271 0EE6  
                     u2191 0E81                       u3311 0B63                       u3231 0AEA  
                     u1711 08F3                       u4111 034D                       u2600 0BDF  
                     u4040 067E                       u2440 0FCD                       u2360 0F7F  
                     u3320 0B68                       u3240 0B0B                       u2601 0BDE  
                     u2441 0FCC                       u2361 0F7E                       u2281 0EFE  
                     u2273 0EE3                       u2265 0EC5                       u2185 0E6F  
                     u3321 0B67                       u3241 0B0A                       u2610 0BE4  
                     u4050 069B                       u2450 0FD6                       u2370 0F85  
                     u2290 0F12                       u2282 0EFF                       u3330 0B7D  
                     u2530 0838                       u1730 0906                       u3410 0879  
                     u2611 0BE3                       u4051 069A                       u2451 0FD5  
                     u2435 0FB9                       u2371 0F84                       u2291 0F13  
                     u2283 0F04                       u2531 0837                       u1731 0905  
                     u3411 0878                       u2700 0CA2                       u2620 0BFF  
                     u4060 06B5                       u2460 0FDB                       u2380 0F8A  
                     u2292 0F18                       u2284 0F05                       u3340 0B8D  
                     u3260 0B2C                       u2540 0845                       u3500 06F6  
                     u2701 0CA1                       u2621 0BFE                       u4061 06B4  
                     u4045 0679                       u2461 0FDA                       u2381 0F89  
                     u2293 0F19                       u2285 0F0A                       u3341 0B8C  
                     u3261 0B2B                       u2541 0844                       u1725 08F8  
                     u3501 06F5                       u2710 0CAA                       u2630 0C1D  
                     u4070 06D3                       u2470 0FE8                       u2390 0F90  
                     u2286 0F0B                       u3350 0B91                       u1750 0917  
                     u3430 088B                       u3510 0730                       u2711 0CA9  
                     u2631 0C1C                       u4071 06D2                       u4055 0697  
                     u2471 0FE7                       u2391 0F8F                       u3351 0B90  
                     u3335 0B78                       u3255 0B1E                       u1751 0916  
                     u3431 088A                       u3511 072F                       u4127 01FB  
                     u2800 0D05                       u2640 0C57                       u2560 0BAC  
                     u2480 0FED                       u3280 0B4E                       u3440 0895  
                     u3520 0756                       u3600 0A06                       u4080 0088  
                     u2801 0D04                       u2641 0C56                       u2561 0BAB  
                     u4065 06B1                       u2481 0FEC                       u3281 0B4D  
                     u1745 0907                       u3441 0894                       u3425 087D  
                     u3521 0755                       u3601 0A05                       u4137 037E  
                     u4081 0087                       u2810 0D14                       u2730 0CB9  
                     u2570 0BB2                       u2490 0FFE                       u1770 092B  
                     u3530 0761                       u4090 01CB                       u2731 0CB8  
                     u2571 0BB1                       u2491 0FFD                       u3275 0B40  
                     u4147 17BF                       u1771 092A                       u1755 0913  
                     u3531 0760                       u4091 01CA                       u2820 0D31  
                     u2580 0BB7                       u3460 08A8                       u3540 0767  
                     u3620 0A18                       u3700 17CE                       u2821 0D30  
                     u2725 0CAE                       u2581 0BB6                       u4157 097A  
                     u1765 091F                       u3461 08A7                       u3445 0891  
                     u3541 0766                       u3525 0752                       u3621 0A17  
                     u3701 17CD                       u2830 0D4E                       u2750 0CCD  
                     u2670 0C6D                       u2590 0BD9                       u3710 0398  
                     u3470 093F                       u3550 07BB                       u3630 0A1F  
                     u2831 0D4D                       u2815 0D0F                       u2751 0CCC  
                     u2671 0C6C                       u2655 0C59                       u2591 0BD8  
                     u3711 0397                       u3295 0B53                       u4167 0989  
                     u3455 089C                       u3551 07BA                       u3631 0A1E  
                     u3615 0A08                       u2840 0D65                       u2760 0CD2  
                     u3720 039E                       u3480 0963                       u3560 07CD  
                     u2841 0D64                       u2825 0D2D                       u2761 0CD1  
                     u2745 0CBC                       u2665 0C62                       u3801 0458  
                     u3721 039D                       u4177 0997                       u3561 07CC  
                     u2770 0CE6                       u2690 0C89                       u3802 045F  
                     u3730 03A3                       u3490 0975                       u3650 0A30  
                     u3570 09D2                       u2835 0D4A                       u2771 0CE5  
                     u2691 0C88                       u3811 0484                       u3803 0466  
                     u3731 03A2                       u4187 09A4                       u3491 0974  
                     u3651 0A2F                       u3571 09D1                       u2780 0CED  
                     u3900 05BD                       u3812 048B                       u3740 03C4  
                     u3660 0A35                       u3580 09E9                       u2781 0CEC  
                     u2685 0C70                       u3821 04A0                       u3813 0492  
                     u3741 03C3                       u4197 17AB                       u3661 0A34  
                     u3645 0A22                       u2790 0CF3                       u3670 07E2  
                     u3822 04A7                       u3750 03CA                       u3590 09FF  
                     u2791 0CF2                       u2695 0C85                       u3671 07E1  
                     u3911 05C9                       u3823 04AE                       u3751 03C9  
                     u3591 09FE                       u3920 05E5                       u3912 05D0  
                     u3760 03CF                       u3913 05D7                       u3905 05B8  
                     u3841 04D6                       u3761 03CE                       u3585 09E4  
                     u3690 07F6                       u3842 04DD                       u3770 03E6  
                     u3691 07F5                       u3931 05F1                       u3851 0503  
                     u3843 04E4                       u3835 04B0                       u3771 03E5  
                     u3932 05F8                       u3852 050A                       u3780 03EB  
                     u3685 07E9                       u3933 05FF                       u3925 05E0  
                     u3853 0511                       u3781 03EA                       i1l71 1797  
                     u3871 0539                       u3791 043C                       i1l72 1799  
                     u3960 0623                       u3872 0540                       u3792 0443  
                     u3961 0622                       u3945 0601                       u3881 0566  
                     u3873 0547                       u3865 0513                       u3793 044A  
                     u3882 056D                       u3955 0618                       u3891 0593  
                     u3883 0574                       u3980 0637                       u3892 059A  
                     u3981 0636                       u3893 05A1                       u3990 063C  
                     u3991 063B                       u3975 0626               __CFG_WRT$OFF 0000  
                     _adc1 00AC                       _adc2 00A8     __end_of_lcd_write_char 17C8  
                     _main 0024                       btemp 007E                       start 000C  
           ?_lcd_write_int 0070              __CFG_IESO$OFF 0000            ___fldiv@new_exp 0060  
                    ??_ISR 0070              ___fltol@sign1 0076            __end_of___fladd 1000  
                    ?_main 0070            __end_of___fldiv 0D78                      STR_10 082A  
            __CFG_WDTE$OFF 0000            __end_of___flmul 06E8            __end_of___flsub 0871  
          __end_of___fltol 0A41                      _ANSEL 0188            __end_of___lwdiv 0930  
          __end_of___lwmod 08AD                      _RCSTA 0018                      _SPBRG 0099  
                    _PORTA 0005                      _PORTB 0006                      _PORTC 0007  
                    _PORTD 0008                      _TRISA 0085                      _TRISB 0086  
                    _TRISC 0087                      _TRISD 0088                      _TXREG 0019  
                    _TXSTA 0098             __CFG_FCMEN$OFF 0000            __end_of_lcd_cmd 17B4  
          __end_of_lcd_clr 1784            __end_of_initADC 0ADF            __end_of_initLCD 09C5  
          __end_of_dpowers 081A                      _ready 006F             __CFG_BOREN$OFF 0000  
                    pclath 000A            ?_lcd_write_char 0070                      status 0003  
                    wtemp0 007E            __end_of_sprintf 07D2             __CFG_MCLRE$OFF 0000  
          __initialization 000F               __end_of_main 0387                     ??_main 0068  
                   _ADCON1 009F                     _ADRESH 001E                     i1l2590 178C  
                   i1l2592 1794                     u336_20 1794                     u336_21 1793  
          ??_lcd_write_int 0033           __end_of___xxtofl 0B9B          lcd_write_char@var 0074  
           __CFG_PWRTE$OFF 0000                  ??___fladd 0020                  ??___fldiv 0056  
                ??___flmul 003C                  ??___flsub 007A                  ??___fltol 0020  
                ??___lwdiv 0076                  ??___lwmod 0024   __end_of_lcd_write_string 0976  
                ??_lcd_cmd 0072                  ??_lcd_clr 0075                  ??_initADC 0072  
                ??_initLCD 0075         __size_of__Umul8_16 0029                     saved_w 007E  
                ??_sprintf 0029               ___xxtofl@arg 0022               ___xxtofl@exp 0021  
        lcd_write_string@i 0020               ___xxtofl@val 0072    __end_of__initialization 0020  
               ___fltol@f1 0072             __pcstackCOMMON 0070           ??_lcd_set_cursor 0076  
               __pbssBANK0 006C                 __pbssBANK1 00A0          __end_of__Umul8_16 07FB  
               __pmaintext 0024              initADC@analog 0074                 __pintentry 0004  
                ?___xxtofl 0072           ??_lcd_write_char 0072                 __stringtab 0800  
                  ___fladd 0D78                 _initSerial 08AD                    ___fldiv 0B9B  
                  ___flmul 0387                    ___flsub 084D                    ___fltol 09C5  
                  ___lwdiv 08EC                    ___lwmod 0871                    __ptext1 17C8  
                  __ptext2 09C5                    __ptext3 17E2                    __ptext4 06E8  
                  __ptext5 0871                    __ptext6 08EC                    __ptext7 0930  
                  __ptext8 17B4                    __ptext9 0832                    _lcd_cmd 17A0  
                  _lcd_clr 177D                    _initADC 0A41                    _initLCD 0976  
             __size_of_ISR 0014                    _entero1 006E                    _entero2 007B  
                  _dpowers 0810                 ??___xxtofl 0076                    _sprintf 06E8  
                  clrloop0 1785       end_of_initialization 0020                 _send_float 17C8  
                _PORTBbits 0006          ?_lcd_write_string 0075                ___fladd@grs 002B  
       ??_lcd_write_string 0077              ___xxtofl@sign 0020                ___fldiv@grs 0062  
              ___fldiv@rem 005B              send_float@msg 0025                ___flmul@grs 0043  
                _TXSTAbits 0098      __end_of_lcd_write_int 1800                ?_initSerial 0072  
              _BAUDCTLbits 0187        start_initialization 000F                __end_of_ISR 17A0  
              ?_send_float 0025   __CFG_FOSC$INTRC_NOCLKOUT 0000                  __Umul8_16 07D2  
                ___fladd@a 0076                  ___fladd@b 0072                  ___fldiv@a 004E  
                ___fldiv@b 0052         initSerial@baudrate 0072                  ___flmul@a 0038  
                ___flmul@b 0034                __pbssCOMMON 007A                  ___flsub@a 002C  
                ___flsub@b 0030                  ___latbits 0002              __pcstackBANK0 0020  
        __size_of___xxtofl 00BC        __size_of_initSerial 003F                sprintf@flag 002D  
              sprintf@prec 002E                  _decimale1 006D                  _decimale2 006C  
         ___lwdiv@dividend 0074                   ?___fladd 0072                   ?___fldiv 004E  
                 ?___flmul 0034                   ?___flsub 002C                   ?___fltol 0072  
               ?__Umul8_16 0072                   ?___lwdiv 0072                   ?___lwmod 0020  
                __pstrings 0800                   ?_lcd_cmd 0070                   ?_lcd_clr 0070  
                 ?_initADC 0070                   ?_initLCD 0070        __size_of_send_float 001A  
         ___lwdiv@quotient 0077                   ?_sprintf 0026    __size_of_lcd_set_cursor 001B  
        interrupt_function 0004                  clear_ram0 1784                   _PIE1bits 008C  
                 _PIR1bits 000C                 _ADCON0bits 001F                __stringbase 080F  
__size_of_lcd_write_string 0046    __size_of_lcd_write_char 0014               ??_initSerial 0074  
              ??__Umul8_16 0074           __size_of___fladd 0288           __size_of___fldiv 01DD  
         __size_of___flmul 0361           __size_of___flsub 0024           __size_of___fltol 007C  
         __size_of___lwdiv 0044           __size_of___lwmod 003C         __end_of__stringtab 0810  
         __size_of_lcd_cmd 0014           __size_of_lcd_clr 0007                 sprintf@val 002F  
       lcd_set_cursor@posx 0076         lcd_set_cursor@posy 0075           __size_of_initADC 009E  
                 _decimal1 00A4                   _decimal2 00A0           __size_of_initLCD 004F  
                 ___xxtofl 0ADF            ___lwdiv@divisor 0072            ___lwdiv@counter 0079  
                 __ptext10 177D                   __ptext11 08AD                   __ptext20 0B9B  
                 __ptext12 0976                   __ptext21 178C                   __ptext13 17A0  
                 __ptext14 0A41                   __ptext15 0ADF                   __ptext16 084D  
                 __ptext17 0D78                   __ptext18 0387                   __ptext19 07D2  
        __CFG_BOR4V$BOR40V 0000           __size_of_sprintf 00EA        lcd_write_int@buffer 0036  
       __end_of_initSerial 08EC               ??_send_float 0078              __size_of_main 0363  
      lcd_write_int@numero 003A         __end_of_send_float 17E2                 _INTCONbits 000B  
   __size_of_lcd_write_int 001E                   intlevel1 0000             _lcd_set_cursor 0832  
                sprintf@ap 002C                  sprintf@sp 0031           ___lwmod@dividend 0022  
                stringcode 080A     __Umul8_16@multiplicand 0072                   sprintf@c 0032  
                 sprintf@f 0026            ___lwmod@divisor 0020            ___lwmod@counter 0025  
                 stringdir 080A                   stringtab 0800     __end_of_lcd_set_cursor 084D  
            ___fladd@signs 0028           _lcd_write_string 0930               ___fladd@aexp 0029  
             ___fladd@bexp 002A       __Umul8_16@multiplier 0024             _lcd_write_char 17B4  
      lcd_write_string@var 0075              _lcd_write_int 17E2          __Umul8_16@product 0020  
