

Microchip MPLAB XC8 Assembler V2.10 build 88905656 
                                                                                               Sat Feb 08 22:37:14 2020

Microchip MPLAB XC8 C Compiler v2.10 (Free license) build 20190730164152 Og1 
     1                           	processor	16F887
     2                           	opt	pw 120
     3                           	opt	flic
     4                           	psect	strings,global,class=STRING,delta=2
     5                           	psect	cinit,global,class=CODE,merge=1,delta=2
     6                           	psect	bssCOMMON,global,class=COMMON,space=1,delta=1
     7                           	psect	bssBANK0,global,class=BANK0,space=1,delta=1
     8                           	psect	bssBANK1,global,class=BANK1,space=1,delta=1
     9                           	psect	clrtext,global,class=CODE,delta=2
    10                           	psect	cstackBANK1,global,class=BANK1,space=1,delta=1
    11                           	psect	cstackCOMMON,global,class=COMMON,space=1,delta=1
    12                           	psect	cstackBANK0,global,class=BANK0,space=1,delta=1
    13                           	psect	maintext,global,class=CODE,split=1,delta=2
    14                           	psect	text1,local,class=CODE,merge=1,delta=2
    15                           	psect	text2,local,class=CODE,merge=1,delta=2
    16                           	psect	text3,local,class=CODE,merge=1,delta=2
    17                           	psect	text4,local,class=CODE,merge=1,delta=2,group=1
    18                           	psect	text5,local,class=CODE,merge=1,delta=2,group=1
    19                           	psect	text6,local,class=CODE,merge=1,delta=2
    20                           	psect	text7,local,class=CODE,merge=1,delta=2
    21                           	psect	text8,local,class=CODE,merge=1,delta=2
    22                           	psect	text9,local,class=CODE,merge=1,delta=2
    23                           	psect	text10,local,class=CODE,merge=1,delta=2
    24                           	psect	text11,local,class=CODE,merge=1,delta=2
    25                           	psect	text12,local,class=CODE,merge=1,delta=2
    26                           	psect	text13,local,class=CODE,merge=1,delta=2
    27                           	psect	text14,local,class=CODE,merge=1,delta=2,group=1
    28                           	psect	text15,local,class=CODE,merge=1,delta=2,group=1
    29                           	psect	text16,local,class=CODE,merge=1,delta=2,group=1
    30                           	psect	text17,local,class=CODE,merge=1,delta=2,group=1
    31                           	psect	text18,local,class=CODE,merge=1,delta=2,group=1
    32                           	psect	text19,local,class=CODE,merge=1,delta=2,group=1
    33                           	psect	text20,local,class=CODE,merge=1,delta=2,group=1
    34                           	psect	text21,local,class=CODE,merge=1,delta=2
    35                           	psect	intentry,global,class=CODE,delta=2
    36                           	dabs	1,0x7E,2
    37  0000                     
    38                           ; Version 2.10
    39                           ; Generated 31/07/2019 GMT
    40                           ; 
    41                           ; Copyright © 2019, Microchip Technology Inc. and its subsidiaries ("Microchip")
    42                           ; All rights reserved.
    43                           ; 
    44                           ; This software is developed by Microchip Technology Inc. and its subsidiaries ("Microch
      +                          ip").
    45                           ; 
    46                           ; Redistribution and use in source and binary forms, with or without modification, are
    47                           ; permitted provided that the following conditions are met:
    48                           ; 
    49                           ;     1. Redistributions of source code must retain the above copyright notice, this lis
      +                          t of
    50                           ;        conditions and the following disclaimer.
    51                           ; 
    52                           ;     2. Redistributions in binary form must reproduce the above copyright notice, this 
      +                          list
    53                           ;        of conditions and the following disclaimer in the documentation and/or other
    54                           ;        materials provided with the distribution.
    55                           ; 
    56                           ;     3. Microchip's name may not be used to endorse or promote products derived from th
      +                          is
    57                           ;        software without specific prior written permission.
    58                           ; 
    59                           ; THIS SOFTWARE IS PROVIDED BY MICROCHIP "AS IS" AND ANY EXPRESS OR IMPLIED WARRANTIES,
    60                           ; INCLUDING, BUT NOT LIMITED TO, THE IMPLIED WARRANTIES OF MERCHANTABILITY AND FITNESS F
      +                          OR
    61                           ; PURPOSE ARE DISCLAIMED.  IN NO EVENT SHALL MICROCHIP BE LIABLE FOR ANY DIRECT, INDIREC
      +                          T,
    62                           ; INCIDENTAL, SPECIAL, EXEMPLARY, OR CONSEQUENTIAL DAMAGES (INCLUDING BUT NOT LIMITED TO
    63                           ; PROCUREMENT OF SUBSTITUTE GOODS OR SERVICES; LOSS OF USE, DATA OR PROFITS; OR BUSINESS
    64                           ; INTERRUPTION) HOWSOEVER CAUSED AND ON ANY THEORY OF LIABILITY, WHETHER IN CONTRACT, ST
      +                          RICT
    65                           ; LIABILITY, OR TORT (INCLUDING NEGLIGENCE OR OTHERWISE) ARISING IN ANY WAY OUT OF THE U
      +                          SE OF
    66                           ; THIS SOFTWARE, EVEN IF ADVISED OF THE POSSIBILITY OF SUCH DAMAGE.
    67                           ; 
    68                           ; 
    69                           ; Code-generator required, PIC16F887 Definitions
    70                           ; 
    71                           ; SFR Addresses
    72  0000                     	;# 
    73  0001                     	;# 
    74  0002                     	;# 
    75  0003                     	;# 
    76  0004                     	;# 
    77  0005                     	;# 
    78  0006                     	;# 
    79  0007                     	;# 
    80  0008                     	;# 
    81  0009                     	;# 
    82  000A                     	;# 
    83  000B                     	;# 
    84  000C                     	;# 
    85  000D                     	;# 
    86  000E                     	;# 
    87  000E                     	;# 
    88  000F                     	;# 
    89  0010                     	;# 
    90  0011                     	;# 
    91  0012                     	;# 
    92  0013                     	;# 
    93  0014                     	;# 
    94  0015                     	;# 
    95  0015                     	;# 
    96  0016                     	;# 
    97  0017                     	;# 
    98  0018                     	;# 
    99  0019                     	;# 
   100  001A                     	;# 
   101  001B                     	;# 
   102  001B                     	;# 
   103  001C                     	;# 
   104  001D                     	;# 
   105  001E                     	;# 
   106  001F                     	;# 
   107  0081                     	;# 
   108  0085                     	;# 
   109  0086                     	;# 
   110  0087                     	;# 
   111  0088                     	;# 
   112  0089                     	;# 
   113  008C                     	;# 
   114  008D                     	;# 
   115  008E                     	;# 
   116  008F                     	;# 
   117  0090                     	;# 
   118  0091                     	;# 
   119  0092                     	;# 
   120  0093                     	;# 
   121  0093                     	;# 
   122  0093                     	;# 
   123  0094                     	;# 
   124  0095                     	;# 
   125  0096                     	;# 
   126  0097                     	;# 
   127  0098                     	;# 
   128  0099                     	;# 
   129  009A                     	;# 
   130  009B                     	;# 
   131  009C                     	;# 
   132  009D                     	;# 
   133  009E                     	;# 
   134  009F                     	;# 
   135  0105                     	;# 
   136  0107                     	;# 
   137  0108                     	;# 
   138  0109                     	;# 
   139  010C                     	;# 
   140  010C                     	;# 
   141  010D                     	;# 
   142  010E                     	;# 
   143  010F                     	;# 
   144  0185                     	;# 
   145  0187                     	;# 
   146  0188                     	;# 
   147  0189                     	;# 
   148  018C                     	;# 
   149  018D                     	;# 
   150  0000                     	;# 
   151  0001                     	;# 
   152  0002                     	;# 
   153  0003                     	;# 
   154  0004                     	;# 
   155  0005                     	;# 
   156  0006                     	;# 
   157  0007                     	;# 
   158  0008                     	;# 
   159  0009                     	;# 
   160  000A                     	;# 
   161  000B                     	;# 
   162  000C                     	;# 
   163  000D                     	;# 
   164  000E                     	;# 
   165  000E                     	;# 
   166  000F                     	;# 
   167  0010                     	;# 
   168  0011                     	;# 
   169  0012                     	;# 
   170  0013                     	;# 
   171  0014                     	;# 
   172  0015                     	;# 
   173  0015                     	;# 
   174  0016                     	;# 
   175  0017                     	;# 
   176  0018                     	;# 
   177  0019                     	;# 
   178  001A                     	;# 
   179  001B                     	;# 
   180  001B                     	;# 
   181  001C                     	;# 
   182  001D                     	;# 
   183  001E                     	;# 
   184  001F                     	;# 
   185  0081                     	;# 
   186  0085                     	;# 
   187  0086                     	;# 
   188  0087                     	;# 
   189  0088                     	;# 
   190  0089                     	;# 
   191  008C                     	;# 
   192  008D                     	;# 
   193  008E                     	;# 
   194  008F                     	;# 
   195  0090                     	;# 
   196  0091                     	;# 
   197  0092                     	;# 
   198  0093                     	;# 
   199  0093                     	;# 
   200  0093                     	;# 
   201  0094                     	;# 
   202  0095                     	;# 
   203  0096                     	;# 
   204  0097                     	;# 
   205  0098                     	;# 
   206  0099                     	;# 
   207  009A                     	;# 
   208  009B                     	;# 
   209  009C                     	;# 
   210  009D                     	;# 
   211  009E                     	;# 
   212  009F                     	;# 
   213  0105                     	;# 
   214  0107                     	;# 
   215  0108                     	;# 
   216  0109                     	;# 
   217  010C                     	;# 
   218  010C                     	;# 
   219  010D                     	;# 
   220  010E                     	;# 
   221  010F                     	;# 
   222  0185                     	;# 
   223  0187                     	;# 
   224  0188                     	;# 
   225  0189                     	;# 
   226  018C                     	;# 
   227  018D                     	;# 
   228  0000                     	;# 
   229  0001                     	;# 
   230  0002                     	;# 
   231  0003                     	;# 
   232  0004                     	;# 
   233  0005                     	;# 
   234  0006                     	;# 
   235  0007                     	;# 
   236  0008                     	;# 
   237  0009                     	;# 
   238  000A                     	;# 
   239  000B                     	;# 
   240  000C                     	;# 
   241  000D                     	;# 
   242  000E                     	;# 
   243  000E                     	;# 
   244  000F                     	;# 
   245  0010                     	;# 
   246  0011                     	;# 
   247  0012                     	;# 
   248  0013                     	;# 
   249  0014                     	;# 
   250  0015                     	;# 
   251  0015                     	;# 
   252  0016                     	;# 
   253  0017                     	;# 
   254  0018                     	;# 
   255  0019                     	;# 
   256  001A                     	;# 
   257  001B                     	;# 
   258  001B                     	;# 
   259  001C                     	;# 
   260  001D                     	;# 
   261  001E                     	;# 
   262  001F                     	;# 
   263  0081                     	;# 
   264  0085                     	;# 
   265  0086                     	;# 
   266  0087                     	;# 
   267  0088                     	;# 
   268  0089                     	;# 
   269  008C                     	;# 
   270  008D                     	;# 
   271  008E                     	;# 
   272  008F                     	;# 
   273  0090                     	;# 
   274  0091                     	;# 
   275  0092                     	;# 
   276  0093                     	;# 
   277  0093                     	;# 
   278  0093                     	;# 
   279  0094                     	;# 
   280  0095                     	;# 
   281  0096                     	;# 
   282  0097                     	;# 
   283  0098                     	;# 
   284  0099                     	;# 
   285  009A                     	;# 
   286  009B                     	;# 
   287  009C                     	;# 
   288  009D                     	;# 
   289  009E                     	;# 
   290  009F                     	;# 
   291  0105                     	;# 
   292  0107                     	;# 
   293  0108                     	;# 
   294  0109                     	;# 
   295  010C                     	;# 
   296  010C                     	;# 
   297  010D                     	;# 
   298  010E                     	;# 
   299  010F                     	;# 
   300  0185                     	;# 
   301  0187                     	;# 
   302  0188                     	;# 
   303  0189                     	;# 
   304  018C                     	;# 
   305  018D                     	;# 
   306  0000                     	;# 
   307  0001                     	;# 
   308  0002                     	;# 
   309  0003                     	;# 
   310  0004                     	;# 
   311  0005                     	;# 
   312  0006                     	;# 
   313  0007                     	;# 
   314  0008                     	;# 
   315  0009                     	;# 
   316  000A                     	;# 
   317  000B                     	;# 
   318  000C                     	;# 
   319  000D                     	;# 
   320  000E                     	;# 
   321  000E                     	;# 
   322  000F                     	;# 
   323  0010                     	;# 
   324  0011                     	;# 
   325  0012                     	;# 
   326  0013                     	;# 
   327  0014                     	;# 
   328  0015                     	;# 
   329  0015                     	;# 
   330  0016                     	;# 
   331  0017                     	;# 
   332  0018                     	;# 
   333  0019                     	;# 
   334  001A                     	;# 
   335  001B                     	;# 
   336  001B                     	;# 
   337  001C                     	;# 
   338  001D                     	;# 
   339  001E                     	;# 
   340  001F                     	;# 
   341  0081                     	;# 
   342  0085                     	;# 
   343  0086                     	;# 
   344  0087                     	;# 
   345  0088                     	;# 
   346  0089                     	;# 
   347  008C                     	;# 
   348  008D                     	;# 
   349  008E                     	;# 
   350  008F                     	;# 
   351  0090                     	;# 
   352  0091                     	;# 
   353  0092                     	;# 
   354  0093                     	;# 
   355  0093                     	;# 
   356  0093                     	;# 
   357  0094                     	;# 
   358  0095                     	;# 
   359  0096                     	;# 
   360  0097                     	;# 
   361  0098                     	;# 
   362  0099                     	;# 
   363  009A                     	;# 
   364  009B                     	;# 
   365  009C                     	;# 
   366  009D                     	;# 
   367  009E                     	;# 
   368  009F                     	;# 
   369  0105                     	;# 
   370  0107                     	;# 
   371  0108                     	;# 
   372  0109                     	;# 
   373  010C                     	;# 
   374  010C                     	;# 
   375  010D                     	;# 
   376  010E                     	;# 
   377  010F                     	;# 
   378  0185                     	;# 
   379  0187                     	;# 
   380  0188                     	;# 
   381  0189                     	;# 
   382  018C                     	;# 
   383  018D                     	;# 
   384  0000                     	;# 
   385  0001                     	;# 
   386  0002                     	;# 
   387  0003                     	;# 
   388  0004                     	;# 
   389  0005                     	;# 
   390  0006                     	;# 
   391  0007                     	;# 
   392  0008                     	;# 
   393  0009                     	;# 
   394  000A                     	;# 
   395  000B                     	;# 
   396  000C                     	;# 
   397  000D                     	;# 
   398  000E                     	;# 
   399  000E                     	;# 
   400  000F                     	;# 
   401  0010                     	;# 
   402  0011                     	;# 
   403  0012                     	;# 
   404  0013                     	;# 
   405  0014                     	;# 
   406  0015                     	;# 
   407  0015                     	;# 
   408  0016                     	;# 
   409  0017                     	;# 
   410  0018                     	;# 
   411  0019                     	;# 
   412  001A                     	;# 
   413  001B                     	;# 
   414  001B                     	;# 
   415  001C                     	;# 
   416  001D                     	;# 
   417  001E                     	;# 
   418  001F                     	;# 
   419  0081                     	;# 
   420  0085                     	;# 
   421  0086                     	;# 
   422  0087                     	;# 
   423  0088                     	;# 
   424  0089                     	;# 
   425  008C                     	;# 
   426  008D                     	;# 
   427  008E                     	;# 
   428  008F                     	;# 
   429  0090                     	;# 
   430  0091                     	;# 
   431  0092                     	;# 
   432  0093                     	;# 
   433  0093                     	;# 
   434  0093                     	;# 
   435  0094                     	;# 
   436  0095                     	;# 
   437  0096                     	;# 
   438  0097                     	;# 
   439  0098                     	;# 
   440  0099                     	;# 
   441  009A                     	;# 
   442  009B                     	;# 
   443  009C                     	;# 
   444  009D                     	;# 
   445  009E                     	;# 
   446  009F                     	;# 
   447  0105                     	;# 
   448  0107                     	;# 
   449  0108                     	;# 
   450  0109                     	;# 
   451  010C                     	;# 
   452  010C                     	;# 
   453  010D                     	;# 
   454  010E                     	;# 
   455  010F                     	;# 
   456  0185                     	;# 
   457  0187                     	;# 
   458  0188                     	;# 
   459  0189                     	;# 
   460  018C                     	;# 
   461  018D                     	;# 
   462                           
   463                           	psect	strings
   464  1000                     __pstrings:	
   465  1000                     stringtab:	
   466  1000                     __stringtab:	
   467                           
   468                           ;	String table - string pointers are 1 byte each
   469  1000  1BFF               	btfsc	btemp+1,7
   470  1001  280A               	ljmp	stringcode
   471  1002  1383               	bcf	3,7
   472  1003  187F               	btfsc	btemp+1,0
   473  1004  1783               	bsf	3,7
   474  1005  0800               	movf	0,w
   475  1006  0A84               	incf	4,f
   476  1007  1903               	skipnz
   477  1008  0AFF               	incf	btemp+1,f
   478  1009  0008               	return
   479  100A                     stringcode:	
   480  100A                     stringdir:	
   481  100A  3010               	movlw	high stringdir
   482  100B  008A               	movwf	10
   483  100C  0804               	movf	4,w
   484  100D  0A84               	incf	4,f
   485  100E  0782               	addwf	2,f
   486  100F                     __stringbase:	
   487  100F  3400               	retlw	0
   488  1010                     __end_of__stringtab:	
   489  1010                     _dpowers:	
   490  1010  3401               	retlw	1
   491  1011  3400               	retlw	0
   492  1012  340A               	retlw	10
   493  1013  3400               	retlw	0
   494  1014  3464               	retlw	100
   495  1015  3400               	retlw	0
   496  1016  34E8               	retlw	232
   497  1017  3403               	retlw	3
   498  1018  3410               	retlw	16
   499  1019  3427               	retlw	39
   500  101A                     __end_of_dpowers:	
   501  0019                     _TXREG	set	25
   502  0018                     _RCSTA	set	24
   503  0006                     _PORTBbits	set	6
   504  001E                     _ADRESH	set	30
   505  0008                     _PORTD	set	8
   506  0007                     _PORTC	set	7
   507  0006                     _PORTB	set	6
   508  0005                     _PORTA	set	5
   509  001A                     _RCREG	set	26
   510  000C                     _PIR1bits	set	12
   511  001F                     _ADCON0bits	set	31
   512  000B                     _INTCONbits	set	11
   513  0098                     _TXSTAbits	set	152
   514  0099                     _SPBRG	set	153
   515  0098                     _TXSTA	set	152
   516  009F                     _ADCON1	set	159
   517  008C                     _PIE1bits	set	140
   518  0088                     _TRISD	set	136
   519  0087                     _TRISC	set	135
   520  0086                     _TRISB	set	134
   521  0085                     _TRISA	set	133
   522  0187                     _BAUDCTLbits	set	391
   523  0188                     _ANSEL	set	392
   524  101A                     STR_1:	
   525  101A  3450               	retlw	80	;'P'
   526  101B  344F               	retlw	79	;'O'
   527  101C  3454               	retlw	84	;'T'
   528  101D  3430               	retlw	48	;'0'
   529  101E  3431               	retlw	49	;'1'
   530  101F  3400               	retlw	0
   531  1020                     STR_2:	
   532  1020  3450               	retlw	80	;'P'
   533  1021  344F               	retlw	79	;'O'
   534  1022  3454               	retlw	84	;'T'
   535  1023  3430               	retlw	48	;'0'
   536  1024  3432               	retlw	50	;'2'
   537  1025  3400               	retlw	0
   538  1026                     STR_3:	
   539  1026  3454               	retlw	84	;'T'
   540  1027  3454               	retlw	84	;'T'
   541  1028  344C               	retlw	76	;'L'
   542  1029  3400               	retlw	0
   543  102A                     STR_10:	
   544  102A  3425               	retlw	37	;'%'
   545  102B  3464               	retlw	100	;'d'
   546  102C  3400               	retlw	0
   547  102D                     STR_5:	
   548  102D  3430               	retlw	48	;'0'
   549  102E  3400               	retlw	0
   550  102F                     STR_4:	
   551  102F  3456               	retlw	86	;'V'
   552  1030  3400               	retlw	0
   553  102D                     
   554                           ; #config settings
   555  0000                     
   556                           	psect	cinit
   557  000F                     start_initialization:	
   558  000F                     __initialization:	
   559                           
   560                           ; Clear objects allocated to COMMON
   561  000F  01F8               	clrf	__pbssCOMMON& (0+127)
   562  0010  01F9               	clrf	(__pbssCOMMON+1)& (0+127)
   563  0011  01FA               	clrf	(__pbssCOMMON+2)& (0+127)
   564                           
   565                           ; Clear objects allocated to BANK0
   566  0012  1283               	bcf	3,5	;RP0=0, select bank0
   567  0013  1303               	bcf	3,6	;RP1=0, select bank0
   568  0014  01EC               	clrf	__pbssBANK0& (0+127)
   569  0015  01ED               	clrf	(__pbssBANK0+1)& (0+127)
   570  0016  01EE               	clrf	(__pbssBANK0+2)& (0+127)
   571                           
   572                           ; Clear objects allocated to BANK1
   573  0017  1383               	bcf	3,7	;select IRP bank0
   574  0018  30A0               	movlw	low __pbssBANK1
   575  0019  0084               	movwf	4
   576  001A  30B0               	movlw	low (__pbssBANK1+16)
   577  001B  120A  118A  27F7  120A  118A  	fcall	clear_ram0
   578  0020                     end_of_initialization:	
   579                           ;End of C runtime variable initialization code
   580                           
   581  0020                     __end_of__initialization:	
   582  0020  0183               	clrf	3
   583  0021  120A  118A  2824   	ljmp	_main	;jump to C main() function
   584                           
   585                           	psect	bssCOMMON
   586  0078                     __pbssCOMMON:	
   587  0078                     _ttl:	
   588  0078                     	ds	1
   589  0079                     _decimale2:	
   590  0079                     	ds	1
   591  007A                     _decimale1:	
   592  007A                     	ds	1
   593                           
   594                           	psect	bssBANK0
   595  006C                     __pbssBANK0:	
   596  006C                     _entero2:	
   597  006C                     	ds	1
   598  006D                     _entero1:	
   599  006D                     	ds	1
   600  006E                     _ready:	
   601  006E                     	ds	1
   602                           
   603                           	psect	bssBANK1
   604  00A0                     __pbssBANK1:	
   605  00A0                     _decimal2:	
   606  00A0                     	ds	4
   607  00A4                     _decimal1:	
   608  00A4                     	ds	4
   609  00A8                     _adc2:	
   610  00A8                     	ds	4
   611  00AC                     _adc1:	
   612  00AC                     	ds	4
   613                           
   614                           	psect	clrtext
   615  07F7                     clear_ram0:	
   616                           ;	Called with FSR containing the base address, and
   617                           ;	W with the last address+1
   618                           
   619  07F7  0064               	clrwdt	;clear the watchdog before getting into this loop
   620  07F8                     clrloop0:	
   621  07F8  0180               	clrf	0	;clear RAM location pointed to by FSR
   622  07F9  0A84               	incf	4,f	;increment pointer
   623  07FA  0604               	xorwf	4,w	;XOR with final address
   624  07FB  1903               	btfsc	3,2	;have we reached the end yet?
   625  07FC  3400               	retlw	0	;all done for this memory range, return
   626  07FD  0604               	xorwf	4,w	;XOR again to restore value
   627  07FE  2FF8               	goto	clrloop0	;do the next byte
   628                           
   629                           	psect	cstackBANK1
   630  00B0                     __pcstackBANK1:	
   631  00B0                     ??_main:	
   632                           
   633                           ; 1 bytes @ 0x0
   634  00B0                     	ds	4
   635                           
   636                           	psect	cstackCOMMON
   637  0070                     __pcstackCOMMON:	
   638  0070                     ?_initLCD:	
   639  0070                     ?_lcd_clr:	
   640                           ; 1 bytes @ 0x0
   641                           
   642  0070                     ?_initADC:	
   643                           ; 1 bytes @ 0x0
   644                           
   645  0070                     ?_lcd_write_int:	
   646                           ; 1 bytes @ 0x0
   647                           
   648  0070                     ?_lcd_write_char:	
   649                           ; 1 bytes @ 0x0
   650                           
   651  0070                     ?_lcd_cmd:	
   652                           ; 1 bytes @ 0x0
   653                           
   654  0070                     ?_ISR:	
   655                           ; 1 bytes @ 0x0
   656                           
   657  0070                     ??_ISR:	
   658                           ; 1 bytes @ 0x0
   659                           
   660  0070                     ?_main:	
   661                           ; 1 bytes @ 0x0
   662                           
   663                           
   664                           ; 1 bytes @ 0x0
   665  0070                     	ds	3
   666  0073                     ?_initSerial:	
   667  0073                     ??_initADC:	
   668                           ; 1 bytes @ 0x3
   669                           
   670  0073                     ??_lcd_write_char:	
   671                           ; 1 bytes @ 0x3
   672                           
   673  0073                     ?_send_int:	
   674                           ; 1 bytes @ 0x3
   675                           
   676  0073                     ??_lcd_cmd:	
   677                           ; 1 bytes @ 0x3
   678                           
   679  0073                     ?__Umul8_16:	
   680                           ; 1 bytes @ 0x3
   681                           
   682  0073                     ?___lwdiv:	
   683                           ; 2 bytes @ 0x3
   684                           
   685  0073                     ?___fltol:	
   686                           ; 2 bytes @ 0x3
   687                           
   688  0073                     ?___xxtofl:	
   689                           ; 4 bytes @ 0x3
   690                           
   691  0073                     ___fladd@signs:	
   692                           ; 4 bytes @ 0x3
   693                           
   694  0073                     __Umul8_16@multiplicand:	
   695                           ; 1 bytes @ 0x3
   696                           
   697  0073                     initSerial@baudrate:	
   698                           ; 1 bytes @ 0x3
   699                           
   700  0073                     send_int@msg:	
   701                           ; 2 bytes @ 0x3
   702                           
   703  0073                     ___lwdiv@divisor:	
   704                           ; 2 bytes @ 0x3
   705                           
   706  0073                     ___fltol@f1:	
   707                           ; 2 bytes @ 0x3
   708                           
   709  0073                     ___xxtofl@val:	
   710                           ; 4 bytes @ 0x3
   711                           
   712                           
   713                           ; 4 bytes @ 0x3
   714  0073                     	ds	1
   715  0074                     ___fladd@aexp:	
   716                           
   717                           ; 1 bytes @ 0x4
   718  0074                     	ds	1
   719  0075                     ??_initSerial:	
   720  0075                     ??_send_int:	
   721                           ; 1 bytes @ 0x5
   722                           
   723  0075                     ??__Umul8_16:	
   724                           ; 1 bytes @ 0x5
   725                           
   726  0075                     lcd_cmd@command:	
   727                           ; 1 bytes @ 0x5
   728                           
   729  0075                     lcd_write_char@var:	
   730                           ; 1 bytes @ 0x5
   731                           
   732  0075                     initADC@analog:	
   733                           ; 1 bytes @ 0x5
   734                           
   735  0075                     ___fladd@bexp:	
   736                           ; 1 bytes @ 0x5
   737                           
   738  0075                     ___lwdiv@dividend:	
   739                           ; 1 bytes @ 0x5
   740                           
   741                           
   742                           ; 2 bytes @ 0x5
   743  0075                     	ds	1
   744  0076                     ??_initLCD:	
   745  0076                     ??_lcd_clr:	
   746                           ; 1 bytes @ 0x6
   747                           
   748  0076                     ?_lcd_set_cursor:	
   749                           ; 1 bytes @ 0x6
   750                           
   751  0076                     ?_lcd_write_string:	
   752                           ; 1 bytes @ 0x6
   753                           
   754  0076                     lcd_set_cursor@posy:	
   755                           ; 1 bytes @ 0x6
   756                           
   757  0076                     ___fladd@grs:	
   758                           ; 1 bytes @ 0x6
   759                           
   760  0076                     lcd_write_string@var:	
   761                           ; 1 bytes @ 0x6
   762                           
   763                           
   764                           ; 2 bytes @ 0x6
   765  0076                     	ds	1
   766  0077                     ??_lcd_set_cursor:	
   767  0077                     ??___lwdiv:	
   768                           ; 1 bytes @ 0x7
   769                           
   770  0077                     ??___flsub:	
   771                           ; 1 bytes @ 0x7
   772                           
   773  0077                     lcd_set_cursor@posx:	
   774                           ; 1 bytes @ 0x7
   775                           
   776                           
   777                           ; 1 bytes @ 0x7
   778  0077                     	ds	1
   779                           
   780                           	psect	cstackBANK0
   781  0020                     __pcstackBANK0:	
   782  0020                     ??_lcd_write_string:	
   783  0020                     ??___fltol:	
   784                           ; 1 bytes @ 0x0
   785                           
   786  0020                     ??___xxtofl:	
   787                           ; 1 bytes @ 0x0
   788                           
   789  0020                     ?___fladd:	
   790                           ; 1 bytes @ 0x0
   791                           
   792  0020                     ___lwdiv@counter:	
   793                           ; 4 bytes @ 0x0
   794                           
   795  0020                     __Umul8_16@product:	
   796                           ; 1 bytes @ 0x0
   797                           
   798  0020                     ___fladd@b:	
   799                           ; 2 bytes @ 0x0
   800                           
   801                           
   802                           ; 4 bytes @ 0x0
   803  0020                     	ds	1
   804  0021                     ___lwdiv@quotient:	
   805                           
   806                           ; 2 bytes @ 0x1
   807  0021                     	ds	1
   808  0022                     __Umul8_16@word_mpld:	
   809                           
   810                           ; 2 bytes @ 0x2
   811  0022                     	ds	1
   812  0023                     ?___lwmod:	
   813  0023                     lcd_write_string@i:	
   814                           ; 2 bytes @ 0x3
   815                           
   816  0023                     ___lwmod@divisor:	
   817                           ; 2 bytes @ 0x3
   818                           
   819                           
   820                           ; 2 bytes @ 0x3
   821  0023                     	ds	1
   822  0024                     ___xxtofl@sign:	
   823  0024                     __Umul8_16@multiplier:	
   824                           ; 1 bytes @ 0x4
   825                           
   826  0024                     ___fladd@a:	
   827                           ; 1 bytes @ 0x4
   828                           
   829                           
   830                           ; 4 bytes @ 0x4
   831  0024                     	ds	1
   832  0025                     ___fltol@sign1:	
   833  0025                     ___xxtofl@exp:	
   834                           ; 1 bytes @ 0x5
   835                           
   836  0025                     ___lwmod@dividend:	
   837                           ; 1 bytes @ 0x5
   838                           
   839                           
   840                           ; 2 bytes @ 0x5
   841  0025                     	ds	1
   842  0026                     ___fltol@exp1:	
   843  0026                     ___xxtofl@arg:	
   844                           ; 1 bytes @ 0x6
   845                           
   846                           
   847                           ; 4 bytes @ 0x6
   848  0026                     	ds	1
   849  0027                     ??___lwmod:	
   850                           
   851                           ; 1 bytes @ 0x7
   852  0027                     	ds	1
   853  0028                     ??___fladd:	
   854  0028                     ___lwmod@counter:	
   855                           ; 1 bytes @ 0x8
   856                           
   857                           
   858                           ; 1 bytes @ 0x8
   859  0028                     	ds	1
   860  0029                     ?_sprintf:	
   861  0029                     sprintf@f:	
   862                           ; 2 bytes @ 0x9
   863                           
   864                           
   865                           ; 1 bytes @ 0x9
   866  0029                     	ds	3
   867  002C                     ??_sprintf:	
   868                           
   869                           ; 1 bytes @ 0xC
   870  002C                     	ds	3
   871  002F                     sprintf@ap:	
   872                           
   873                           ; 1 bytes @ 0xF
   874  002F                     	ds	1
   875  0030                     ?___flsub:	
   876  0030                     sprintf@flag:	
   877                           ; 4 bytes @ 0x10
   878                           
   879  0030                     ___flsub@a:	
   880                           ; 1 bytes @ 0x10
   881                           
   882                           
   883                           ; 4 bytes @ 0x10
   884  0030                     	ds	1
   885  0031                     sprintf@prec:	
   886                           
   887                           ; 1 bytes @ 0x11
   888  0031                     	ds	1
   889  0032                     sprintf@val:	
   890                           
   891                           ; 2 bytes @ 0x12
   892  0032                     	ds	2
   893  0034                     sprintf@sp:	
   894  0034                     ___flsub@b:	
   895                           ; 1 bytes @ 0x14
   896                           
   897                           
   898                           ; 4 bytes @ 0x14
   899  0034                     	ds	1
   900  0035                     sprintf@c:	
   901                           
   902                           ; 1 bytes @ 0x15
   903  0035                     	ds	1
   904  0036                     ??_lcd_write_int:	
   905                           
   906                           ; 1 bytes @ 0x16
   907  0036                     	ds	2
   908  0038                     ?___flmul:	
   909  0038                     ___flmul@b:	
   910                           ; 4 bytes @ 0x18
   911                           
   912                           
   913                           ; 4 bytes @ 0x18
   914  0038                     	ds	1
   915  0039                     lcd_write_int@buffer:	
   916                           
   917                           ; 4 bytes @ 0x19
   918  0039                     	ds	3
   919  003C                     ___flmul@a:	
   920                           
   921                           ; 4 bytes @ 0x1C
   922  003C                     	ds	1
   923  003D                     lcd_write_int@numero:	
   924                           
   925                           ; 1 bytes @ 0x1D
   926  003D                     	ds	3
   927  0040                     ??___flmul:	
   928                           
   929                           ; 1 bytes @ 0x20
   930  0040                     	ds	5
   931  0045                     ___flmul@sign:	
   932                           
   933                           ; 1 bytes @ 0x25
   934  0045                     	ds	1
   935  0046                     ___flmul@grs:	
   936                           
   937                           ; 4 bytes @ 0x26
   938  0046                     	ds	4
   939  004A                     ___flmul@aexp:	
   940                           
   941                           ; 1 bytes @ 0x2A
   942  004A                     	ds	1
   943  004B                     ___flmul@bexp:	
   944                           
   945                           ; 1 bytes @ 0x2B
   946  004B                     	ds	1
   947  004C                     ___flmul@prod:	
   948                           
   949                           ; 4 bytes @ 0x2C
   950  004C                     	ds	4
   951  0050                     ___flmul@temp:	
   952                           
   953                           ; 2 bytes @ 0x30
   954  0050                     	ds	2
   955  0052                     ?___fldiv:	
   956  0052                     ___fldiv@a:	
   957                           ; 4 bytes @ 0x32
   958                           
   959                           
   960                           ; 4 bytes @ 0x32
   961  0052                     	ds	4
   962  0056                     ___fldiv@b:	
   963                           
   964                           ; 4 bytes @ 0x36
   965  0056                     	ds	4
   966  005A                     ??___fldiv:	
   967                           
   968                           ; 1 bytes @ 0x3A
   969  005A                     	ds	5
   970  005F                     ___fldiv@rem:	
   971                           
   972                           ; 4 bytes @ 0x3F
   973  005F                     	ds	4
   974  0063                     ___fldiv@sign:	
   975                           
   976                           ; 1 bytes @ 0x43
   977  0063                     	ds	1
   978  0064                     ___fldiv@new_exp:	
   979                           
   980                           ; 2 bytes @ 0x44
   981  0064                     	ds	2
   982  0066                     ___fldiv@grs:	
   983                           
   984                           ; 4 bytes @ 0x46
   985  0066                     	ds	4
   986  006A                     ___fldiv@bexp:	
   987                           
   988                           ; 1 bytes @ 0x4A
   989  006A                     	ds	1
   990  006B                     ___fldiv@aexp:	
   991                           
   992                           ; 1 bytes @ 0x4B
   993  006B                     	ds	1
   994                           
   995                           	psect	maintext
   996  0024                     __pmaintext:	
   997 ;;
   998 ;;Main: autosize = 0, tempsize = 4, incstack = 0, save=0
   999 ;;
  1000 ;; *************** function _main *****************
  1001 ;; Defined at:
  1002 ;;		line 52 in file "LCD.c"
  1003 ;; Parameters:    Size  Location     Type
  1004 ;;		None
  1005 ;; Auto vars:     Size  Location     Type
  1006 ;;		None
  1007 ;; Return value:  Size  Location     Type
  1008 ;;                  1    wreg      void 
  1009 ;; Registers used:
  1010 ;;		wreg, fsr0l, fsr0h, status,2, status,0, btemp+1, pclath, cstack
  1011 ;; Tracked objects:
  1012 ;;		On entry : B00/0
  1013 ;;		On exit  : 0/0
  1014 ;;		Unchanged: 0/0
  1015 ;; Data sizes:     COMMON   BANK0   BANK1   BANK3   BANK2
  1016 ;;      Params:         0       0       0       0       0
  1017 ;;      Locals:         0       0       0       0       0
  1018 ;;      Temps:          0       0       4       0       0
  1019 ;;      Totals:         0       0       4       0       0
  1020 ;;Total ram usage:        4 bytes
  1021 ;; Hardware stack levels required when called:    4
  1022 ;; This function calls:
  1023 ;;		___fldiv
  1024 ;;		___flmul
  1025 ;;		___flsub
  1026 ;;		___fltol
  1027 ;;		___xxtofl
  1028 ;;		_initADC
  1029 ;;		_initLCD
  1030 ;;		_initSerial
  1031 ;;		_lcd_clr
  1032 ;;		_lcd_set_cursor
  1033 ;;		_lcd_write_char
  1034 ;;		_lcd_write_int
  1035 ;;		_lcd_write_string
  1036 ;;		_send_int
  1037 ;; This function is called by:
  1038 ;;		Startup code after reset
  1039 ;; This function uses a non-reentrant model
  1040 ;;
  1041                           
  1042                           
  1043                           ;psect for function _main
  1044  0024                     _main:	
  1045  0024                     l3106:	
  1046                           ;incstack = 0
  1047                           ; Regs used in _main: [wreg-fsr0h+status,2+status,0+btemp+1+pclath+cstack]
  1048                           
  1049                           
  1050                           ;LCD.c: 53:     TRISA = 0b00000011;
  1051  0024  3003               	movlw	3
  1052  0025  1683               	bsf	3,5	;RP0=1, select bank1
  1053  0026  1303               	bcf	3,6	;RP1=0, select bank1
  1054  0027  0085               	movwf	5	;volatile
  1055  0028                     l3108:	
  1056                           
  1057                           ;LCD.c: 54:     TRISB = 0;
  1058  0028  0186               	clrf	6	;volatile
  1059  0029                     l3110:	
  1060                           
  1061                           ;LCD.c: 55:     TRISC = 0;
  1062  0029  0187               	clrf	7	;volatile
  1063  002A                     l3112:	
  1064                           
  1065                           ;LCD.c: 56:     TRISD = 0;
  1066  002A  0188               	clrf	8	;volatile
  1067  002B                     l3114:	
  1068                           
  1069                           ;LCD.c: 58:     ANSEL = 0b00000011;
  1070  002B  3003               	movlw	3
  1071  002C  1683               	bsf	3,5	;RP0=1, select bank3
  1072  002D  1703               	bsf	3,6	;RP1=1, select bank3
  1073  002E  0088               	movwf	8	;volatile
  1074                           
  1075                           ;LCD.c: 61:     PORTA = 0;
  1076  002F  1283               	bcf	3,5	;RP0=0, select bank0
  1077  0030  1303               	bcf	3,6	;RP1=0, select bank0
  1078  0031  0185               	clrf	5	;volatile
  1079                           
  1080                           ;LCD.c: 62:     PORTB = 0;
  1081  0032  0186               	clrf	6	;volatile
  1082                           
  1083                           ;LCD.c: 63:     PORTC = 0;
  1084  0033  0187               	clrf	7	;volatile
  1085                           
  1086                           ;LCD.c: 64:     PORTD = 0;
  1087  0034  0188               	clrf	8	;volatile
  1088  0035                     l3116:	
  1089                           
  1090                           ;LCD.c: 71:     initLCD();
  1091  0035  120A  158A  2122  120A  118A  	fcall	_initLCD
  1092  003A                     l3118:	
  1093                           
  1094                           ;LCD.c: 72:     initSerial(9600);
  1095  003A  3080               	movlw	128
  1096  003B  00F3               	movwf	initSerial@baudrate
  1097  003C  3025               	movlw	37
  1098  003D  00F4               	movwf	initSerial@baudrate+1
  1099  003E  120A  158A  2053  120A  118A  	fcall	_initSerial
  1100  0043                     l3120:	
  1101                           
  1102                           ;LCD.c: 73:     lcd_clr();
  1103  0043  160A  118A  2738  120A  118A  	fcall	_lcd_clr
  1104  0048                     l3122:	
  1105                           
  1106                           ;LCD.c: 74:     lcd_set_cursor(1,1);
  1107  0048  01F6               	clrf	lcd_set_cursor@posy
  1108  0049  0AF6               	incf	lcd_set_cursor@posy,f
  1109  004A  3001               	movlw	1
  1110  004B  160A  118A  275E  120A  118A  	fcall	_lcd_set_cursor
  1111  0050                     l3124:	
  1112                           
  1113                           ;LCD.c: 75:     lcd_write_string ("POT01");
  1114  0050  300B               	movlw	(low ((STR_1-__stringbase)| (0+32768)))& (0+255)
  1115  0051  00F6               	movwf	lcd_write_string@var
  1116  0052  3080               	movlw	128
  1117  0053  00F7               	movwf	lcd_write_string@var+1
  1118  0054  120A  158A  2096  120A  118A  	fcall	_lcd_write_string
  1119  0059                     l3126:	
  1120                           
  1121                           ;LCD.c: 76:     lcd_set_cursor(7,1);
  1122  0059  01F6               	clrf	lcd_set_cursor@posy
  1123  005A  0AF6               	incf	lcd_set_cursor@posy,f
  1124  005B  3007               	movlw	7
  1125  005C  160A  118A  275E  120A  118A  	fcall	_lcd_set_cursor
  1126  0061                     l3128:	
  1127                           
  1128                           ;LCD.c: 77:     lcd_write_string ("POT02");
  1129  0061  3011               	movlw	(low ((STR_2-__stringbase)| (0+32768)))& (0+255)
  1130  0062  00F6               	movwf	lcd_write_string@var
  1131  0063  3080               	movlw	128
  1132  0064  00F7               	movwf	lcd_write_string@var+1
  1133  0065  120A  158A  2096  120A  118A  	fcall	_lcd_write_string
  1134  006A                     l3130:	
  1135                           
  1136                           ;LCD.c: 78:     lcd_set_cursor(13,1);
  1137  006A  01F6               	clrf	lcd_set_cursor@posy
  1138  006B  0AF6               	incf	lcd_set_cursor@posy,f
  1139  006C  300D               	movlw	13
  1140  006D  160A  118A  275E  120A  118A  	fcall	_lcd_set_cursor
  1141  0072                     l3132:	
  1142                           
  1143                           ;LCD.c: 79:     lcd_write_string ("TTL");
  1144  0072  3017               	movlw	(low ((STR_3-__stringbase)| (0+32768)))& (0+255)
  1145  0073  00F6               	movwf	lcd_write_string@var
  1146  0074  3080               	movlw	128
  1147  0075  00F7               	movwf	lcd_write_string@var+1
  1148  0076  120A  158A  2096  120A  118A  	fcall	_lcd_write_string
  1149  007B                     l3134:	
  1150                           
  1151                           ;LCD.c: 82:         initADC(0);
  1152  007B  3000               	movlw	0
  1153  007C  120A  118A  2759  120A  118A  	fcall	_initADC
  1154  0081                     l3136:	
  1155                           
  1156                           ;LCD.c: 83:         if(ready){
  1157  0081  1283               	bcf	3,5	;RP0=0, select bank0
  1158  0082  1303               	bcf	3,6	;RP1=0, select bank0
  1159  0083  086E               	movf	_ready,w
  1160  0084  1903               	btfsc	3,2
  1161  0085  2887               	goto	u4441
  1162  0086  2888               	goto	u4440
  1163  0087                     u4441:	
  1164  0087  28AB               	goto	l3144
  1165  0088                     u4440:	
  1166  0088                     l3138:	
  1167                           
  1168                           ;LCD.c: 84:             adc1 = ADRESH;
  1169  0088  081E               	movf	30,w	;volatile
  1170  0089  1683               	bsf	3,5	;RP0=1, select bank1
  1171  008A  1303               	bcf	3,6	;RP1=0, select bank1
  1172  008B  00B0               	movwf	??_main^(0+128)
  1173  008C  01B1               	clrf	(??_main^(0+128)+1)
  1174  008D  01B2               	clrf	(??_main^(0+128)+2)
  1175  008E  01B3               	clrf	(??_main^(0+128)+3)
  1176  008F  0833               	movf	(??_main+3)^(0+128),w
  1177  0090  00F6               	movwf	___xxtofl@val+3
  1178  0091  0832               	movf	(??_main+2)^(0+128),w
  1179  0092  00F5               	movwf	___xxtofl@val+2
  1180  0093  0831               	movf	(??_main+1)^(0+128),w
  1181  0094  00F4               	movwf	___xxtofl@val+1
  1182  0095  0830               	movf	??_main^(0+128),w
  1183  0096  00F3               	movwf	___xxtofl@val
  1184  0097  3000               	movlw	0
  1185  0098  120A  158A  21ED  120A  118A  	fcall	___xxtofl
  1186  009D  0876               	movf	?___xxtofl+3,w
  1187  009E  1683               	bsf	3,5	;RP0=1, select bank1
  1188  009F  1303               	bcf	3,6	;RP1=0, select bank1
  1189  00A0  00AF               	movwf	(_adc1+3)^(0+128)
  1190  00A1  0875               	movf	?___xxtofl+2,w
  1191  00A2  00AE               	movwf	(_adc1+2)^(0+128)
  1192  00A3  0874               	movf	?___xxtofl+1,w
  1193  00A4  00AD               	movwf	(_adc1+1)^(0+128)
  1194  00A5  0873               	movf	?___xxtofl,w
  1195  00A6  00AC               	movwf	_adc1^(0+128)
  1196  00A7                     l3140:	
  1197                           
  1198                           ;LCD.c: 85:             ready = 0;
  1199  00A7  1283               	bcf	3,5	;RP0=0, select bank0
  1200  00A8  1303               	bcf	3,6	;RP1=0, select bank0
  1201  00A9  01EE               	clrf	_ready
  1202  00AA                     l3142:	
  1203                           
  1204                           ;LCD.c: 86:             ADCON0bits.GO_DONE = 1;
  1205  00AA  149F               	bsf	31,1	;volatile
  1206  00AB                     l3144:	
  1207                           
  1208                           ;LCD.c: 88:         adc1 = adc1 * 5/255;
  1209  00AB  3043               	movlw	67
  1210  00AC  00D5               	movwf	___fldiv@a+3
  1211  00AD  307F               	movlw	127
  1212  00AE  00D4               	movwf	___fldiv@a+2
  1213  00AF  3000               	movlw	0
  1214  00B0  00D3               	movwf	___fldiv@a+1
  1215  00B1  3000               	movlw	0
  1216  00B2  00D2               	movwf	___fldiv@a
  1217  00B3  3040               	movlw	64
  1218  00B4  00BB               	movwf	___flmul@b+3
  1219  00B5  30A0               	movlw	160
  1220  00B6  00BA               	movwf	___flmul@b+2
  1221  00B7  3000               	movlw	0
  1222  00B8  00B9               	movwf	___flmul@b+1
  1223  00B9  3000               	movlw	0
  1224  00BA  00B8               	movwf	___flmul@b
  1225  00BB  1683               	bsf	3,5	;RP0=1, select bank1
  1226  00BC  1303               	bcf	3,6	;RP1=0, select bank1
  1227  00BD  082F               	movf	(_adc1+3)^(0+128),w
  1228  00BE  1283               	bcf	3,5	;RP0=0, select bank0
  1229  00BF  1303               	bcf	3,6	;RP1=0, select bank0
  1230  00C0  00BF               	movwf	___flmul@a+3
  1231  00C1  1683               	bsf	3,5	;RP0=1, select bank1
  1232  00C2  1303               	bcf	3,6	;RP1=0, select bank1
  1233  00C3  082E               	movf	(_adc1+2)^(0+128),w
  1234  00C4  1283               	bcf	3,5	;RP0=0, select bank0
  1235  00C5  1303               	bcf	3,6	;RP1=0, select bank0
  1236  00C6  00BE               	movwf	___flmul@a+2
  1237  00C7  1683               	bsf	3,5	;RP0=1, select bank1
  1238  00C8  1303               	bcf	3,6	;RP1=0, select bank1
  1239  00C9  082D               	movf	(_adc1+1)^(0+128),w
  1240  00CA  1283               	bcf	3,5	;RP0=0, select bank0
  1241  00CB  1303               	bcf	3,6	;RP1=0, select bank0
  1242  00CC  00BD               	movwf	___flmul@a+1
  1243  00CD  1683               	bsf	3,5	;RP0=1, select bank1
  1244  00CE  1303               	bcf	3,6	;RP1=0, select bank1
  1245  00CF  082C               	movf	_adc1^(0+128),w
  1246  00D0  1283               	bcf	3,5	;RP0=0, select bank0
  1247  00D1  1303               	bcf	3,6	;RP1=0, select bank0
  1248  00D2  00BC               	movwf	___flmul@a
  1249  00D3  120A  118A  23F8  120A  118A  	fcall	___flmul
  1250  00D8  1283               	bcf	3,5	;RP0=0, select bank0
  1251  00D9  1303               	bcf	3,6	;RP1=0, select bank0
  1252  00DA  083B               	movf	?___flmul+3,w
  1253  00DB  00D9               	movwf	___fldiv@b+3
  1254  00DC  083A               	movf	?___flmul+2,w
  1255  00DD  00D8               	movwf	___fldiv@b+2
  1256  00DE  0839               	movf	?___flmul+1,w
  1257  00DF  00D7               	movwf	___fldiv@b+1
  1258  00E0  0838               	movf	?___flmul,w
  1259  00E1  00D6               	movwf	___fldiv@b
  1260  00E2  120A  158A  2393  120A  118A  	fcall	___fldiv
  1261  00E7  1283               	bcf	3,5	;RP0=0, select bank0
  1262  00E8  1303               	bcf	3,6	;RP1=0, select bank0
  1263  00E9  0855               	movf	?___fldiv+3,w
  1264  00EA  1683               	bsf	3,5	;RP0=1, select bank1
  1265  00EB  1303               	bcf	3,6	;RP1=0, select bank1
  1266  00EC  00AF               	movwf	(_adc1+3)^(0+128)
  1267  00ED  1283               	bcf	3,5	;RP0=0, select bank0
  1268  00EE  1303               	bcf	3,6	;RP1=0, select bank0
  1269  00EF  0854               	movf	?___fldiv+2,w
  1270  00F0  1683               	bsf	3,5	;RP0=1, select bank1
  1271  00F1  1303               	bcf	3,6	;RP1=0, select bank1
  1272  00F2  00AE               	movwf	(_adc1+2)^(0+128)
  1273  00F3  1283               	bcf	3,5	;RP0=0, select bank0
  1274  00F4  1303               	bcf	3,6	;RP1=0, select bank0
  1275  00F5  0853               	movf	?___fldiv+1,w
  1276  00F6  1683               	bsf	3,5	;RP0=1, select bank1
  1277  00F7  1303               	bcf	3,6	;RP1=0, select bank1
  1278  00F8  00AD               	movwf	(_adc1+1)^(0+128)
  1279  00F9  1283               	bcf	3,5	;RP0=0, select bank0
  1280  00FA  1303               	bcf	3,6	;RP1=0, select bank0
  1281  00FB  0852               	movf	?___fldiv,w
  1282  00FC  1683               	bsf	3,5	;RP0=1, select bank1
  1283  00FD  1303               	bcf	3,6	;RP1=0, select bank1
  1284  00FE  00AC               	movwf	_adc1^(0+128)
  1285  00FF                     l3146:	
  1286                           
  1287                           ;LCD.c: 89:         entero1 = adc1;
  1288  00FF  082F               	movf	(_adc1+3)^(0+128),w
  1289  0100  00F6               	movwf	___fltol@f1+3
  1290  0101  082E               	movf	(_adc1+2)^(0+128),w
  1291  0102  00F5               	movwf	___fltol@f1+2
  1292  0103  082D               	movf	(_adc1+1)^(0+128),w
  1293  0104  00F4               	movwf	___fltol@f1+1
  1294  0105  082C               	movf	_adc1^(0+128),w
  1295  0106  00F3               	movwf	___fltol@f1
  1296  0107  120A  158A  2171  120A  118A  	fcall	___fltol
  1297  010C  0873               	movf	?___fltol,w
  1298  010D  1683               	bsf	3,5	;RP0=1, select bank1
  1299  010E  1303               	bcf	3,6	;RP1=0, select bank1
  1300  010F  00B0               	movwf	??_main^(0+128)
  1301  0110  0830               	movf	??_main^(0+128),w
  1302  0111  1283               	bcf	3,5	;RP0=0, select bank0
  1303  0112  1303               	bcf	3,6	;RP1=0, select bank0
  1304  0113  00ED               	movwf	_entero1
  1305  0114                     l3148:	
  1306                           
  1307                           ;LCD.c: 90:         decimal1 = (adc1 - entero1)*100;
  1308  0114  3042               	movlw	66
  1309  0115  00BB               	movwf	___flmul@b+3
  1310  0116  30C8               	movlw	200
  1311  0117  00BA               	movwf	___flmul@b+2
  1312  0118  3000               	movlw	0
  1313  0119  00B9               	movwf	___flmul@b+1
  1314  011A  3000               	movlw	0
  1315  011B  00B8               	movwf	___flmul@b
  1316  011C  086D               	movf	_entero1,w
  1317  011D  1683               	bsf	3,5	;RP0=1, select bank1
  1318  011E  1303               	bcf	3,6	;RP1=0, select bank1
  1319  011F  00B0               	movwf	??_main^(0+128)
  1320  0120  01B1               	clrf	(??_main^(0+128)+1)
  1321  0121  01B2               	clrf	(??_main^(0+128)+2)
  1322  0122  01B3               	clrf	(??_main^(0+128)+3)
  1323  0123  0833               	movf	(??_main+3)^(0+128),w
  1324  0124  00F6               	movwf	___xxtofl@val+3
  1325  0125  0832               	movf	(??_main+2)^(0+128),w
  1326  0126  00F5               	movwf	___xxtofl@val+2
  1327  0127  0831               	movf	(??_main+1)^(0+128),w
  1328  0128  00F4               	movwf	___xxtofl@val+1
  1329  0129  0830               	movf	??_main^(0+128),w
  1330  012A  00F3               	movwf	___xxtofl@val
  1331  012B  3001               	movlw	1
  1332  012C  120A  158A  21ED  120A  118A  	fcall	___xxtofl
  1333  0131  0876               	movf	?___xxtofl+3,w
  1334  0132  1283               	bcf	3,5	;RP0=0, select bank0
  1335  0133  1303               	bcf	3,6	;RP1=0, select bank0
  1336  0134  00B3               	movwf	___flsub@a+3
  1337  0135  0875               	movf	?___xxtofl+2,w
  1338  0136  00B2               	movwf	___flsub@a+2
  1339  0137  0874               	movf	?___xxtofl+1,w
  1340  0138  00B1               	movwf	___flsub@a+1
  1341  0139  0873               	movf	?___xxtofl,w
  1342  013A  00B0               	movwf	___flsub@a
  1343  013B  1683               	bsf	3,5	;RP0=1, select bank1
  1344  013C  1303               	bcf	3,6	;RP1=0, select bank1
  1345  013D  082F               	movf	(_adc1+3)^(0+128),w
  1346  013E  1283               	bcf	3,5	;RP0=0, select bank0
  1347  013F  1303               	bcf	3,6	;RP1=0, select bank0
  1348  0140  00B7               	movwf	___flsub@b+3
  1349  0141  1683               	bsf	3,5	;RP0=1, select bank1
  1350  0142  1303               	bcf	3,6	;RP1=0, select bank1
  1351  0143  082E               	movf	(_adc1+2)^(0+128),w
  1352  0144  1283               	bcf	3,5	;RP0=0, select bank0
  1353  0145  1303               	bcf	3,6	;RP1=0, select bank0
  1354  0146  00B6               	movwf	___flsub@b+2
  1355  0147  1683               	bsf	3,5	;RP0=1, select bank1
  1356  0148  1303               	bcf	3,6	;RP1=0, select bank1
  1357  0149  082D               	movf	(_adc1+1)^(0+128),w
  1358  014A  1283               	bcf	3,5	;RP0=0, select bank0
  1359  014B  1303               	bcf	3,6	;RP1=0, select bank0
  1360  014C  00B5               	movwf	___flsub@b+1
  1361  014D  1683               	bsf	3,5	;RP0=1, select bank1
  1362  014E  1303               	bcf	3,6	;RP1=0, select bank1
  1363  014F  082C               	movf	_adc1^(0+128),w
  1364  0150  1283               	bcf	3,5	;RP0=0, select bank0
  1365  0151  1303               	bcf	3,6	;RP1=0, select bank0
  1366  0152  00B4               	movwf	___flsub@b
  1367  0153  160A  118A  27B3  120A  118A  	fcall	___flsub
  1368  0158  1283               	bcf	3,5	;RP0=0, select bank0
  1369  0159  1303               	bcf	3,6	;RP1=0, select bank0
  1370  015A  0833               	movf	?___flsub+3,w
  1371  015B  00BF               	movwf	___flmul@a+3
  1372  015C  0832               	movf	?___flsub+2,w
  1373  015D  00BE               	movwf	___flmul@a+2
  1374  015E  0831               	movf	?___flsub+1,w
  1375  015F  00BD               	movwf	___flmul@a+1
  1376  0160  0830               	movf	?___flsub,w
  1377  0161  00BC               	movwf	___flmul@a
  1378  0162  120A  118A  23F8  120A  118A  	fcall	___flmul
  1379  0167  1283               	bcf	3,5	;RP0=0, select bank0
  1380  0168  1303               	bcf	3,6	;RP1=0, select bank0
  1381  0169  083B               	movf	?___flmul+3,w
  1382  016A  1683               	bsf	3,5	;RP0=1, select bank1
  1383  016B  1303               	bcf	3,6	;RP1=0, select bank1
  1384  016C  00A7               	movwf	(_decimal1+3)^(0+128)
  1385  016D  1283               	bcf	3,5	;RP0=0, select bank0
  1386  016E  1303               	bcf	3,6	;RP1=0, select bank0
  1387  016F  083A               	movf	?___flmul+2,w
  1388  0170  1683               	bsf	3,5	;RP0=1, select bank1
  1389  0171  1303               	bcf	3,6	;RP1=0, select bank1
  1390  0172  00A6               	movwf	(_decimal1+2)^(0+128)
  1391  0173  1283               	bcf	3,5	;RP0=0, select bank0
  1392  0174  1303               	bcf	3,6	;RP1=0, select bank0
  1393  0175  0839               	movf	?___flmul+1,w
  1394  0176  1683               	bsf	3,5	;RP0=1, select bank1
  1395  0177  1303               	bcf	3,6	;RP1=0, select bank1
  1396  0178  00A5               	movwf	(_decimal1+1)^(0+128)
  1397  0179  1283               	bcf	3,5	;RP0=0, select bank0
  1398  017A  1303               	bcf	3,6	;RP1=0, select bank0
  1399  017B  0838               	movf	?___flmul,w
  1400  017C  1683               	bsf	3,5	;RP0=1, select bank1
  1401  017D  1303               	bcf	3,6	;RP1=0, select bank1
  1402  017E  00A4               	movwf	_decimal1^(0+128)
  1403  017F                     l3150:	
  1404                           
  1405                           ;LCD.c: 91:         decimale1 = decimal1;
  1406  017F  0827               	movf	(_decimal1+3)^(0+128),w
  1407  0180  00F6               	movwf	___fltol@f1+3
  1408  0181  0826               	movf	(_decimal1+2)^(0+128),w
  1409  0182  00F5               	movwf	___fltol@f1+2
  1410  0183  0825               	movf	(_decimal1+1)^(0+128),w
  1411  0184  00F4               	movwf	___fltol@f1+1
  1412  0185  0824               	movf	_decimal1^(0+128),w
  1413  0186  00F3               	movwf	___fltol@f1
  1414  0187  120A  158A  2171  120A  118A  	fcall	___fltol
  1415  018C  0873               	movf	?___fltol,w
  1416  018D  1683               	bsf	3,5	;RP0=1, select bank1
  1417  018E  1303               	bcf	3,6	;RP1=0, select bank1
  1418  018F  00B0               	movwf	??_main^(0+128)
  1419  0190  0830               	movf	??_main^(0+128),w
  1420  0191  00FA               	movwf	_decimale1
  1421  0192                     l3152:	
  1422                           
  1423                           ;LCD.c: 92:         lcd_set_cursor(1,2);
  1424  0192  3002               	movlw	2
  1425  0193  00B0               	movwf	??_main^(0+128)
  1426  0194  0830               	movf	??_main^(0+128),w
  1427  0195  00F6               	movwf	lcd_set_cursor@posy
  1428  0196  3001               	movlw	1
  1429  0197  160A  118A  275E  120A  118A  	fcall	_lcd_set_cursor
  1430  019C                     l3154:	
  1431                           
  1432                           ;LCD.c: 93:         lcd_write_int(entero1);
  1433  019C  1283               	bcf	3,5	;RP0=0, select bank0
  1434  019D  1303               	bcf	3,6	;RP1=0, select bank0
  1435  019E  086D               	movf	_entero1,w
  1436  019F  160A  118A  2795  120A  118A  	fcall	_lcd_write_int
  1437  01A4                     l3156:	
  1438                           
  1439                           ;LCD.c: 94:         lcd_write_char('.');
  1440  01A4  302E               	movlw	46
  1441  01A5  120A  158A  2003  120A  118A  	fcall	_lcd_write_char
  1442  01AA                     l3158:	
  1443                           
  1444                           ;LCD.c: 95:         if(decimale1 >= 10){
  1445  01AA  300A               	movlw	10
  1446  01AB  027A               	subwf	_decimale1,w
  1447  01AC  1C03               	skipc
  1448  01AD  29AF               	goto	u4451
  1449  01AE  29B0               	goto	u4450
  1450  01AF                     u4451:	
  1451  01AF  29C0               	goto	l3162
  1452  01B0                     u4450:	
  1453  01B0                     l3160:	
  1454                           
  1455                           ;LCD.c: 96:             lcd_write_int(decimale1);
  1456  01B0  087A               	movf	_decimale1,w
  1457  01B1  160A  118A  2795  120A  118A  	fcall	_lcd_write_int
  1458                           
  1459                           ;LCD.c: 97:             lcd_write_string("V");
  1460  01B6  3020               	movlw	(low ((STR_4-__stringbase)| (0+32768)))& (0+255)
  1461  01B7  00F6               	movwf	lcd_write_string@var
  1462  01B8  3080               	movlw	128
  1463  01B9  00F7               	movwf	lcd_write_string@var+1
  1464  01BA  120A  158A  2096  120A  118A  	fcall	_lcd_write_string
  1465                           
  1466                           ;LCD.c: 98:         }else{
  1467  01BF  29E0               	goto	l3170
  1468  01C0                     l3162:	
  1469                           
  1470                           ;LCD.c: 99:             lcd_write_string("0");
  1471  01C0  301E               	movlw	(low ((STR_5-__stringbase)| (0+32768)))& (0+255)
  1472  01C1  00F6               	movwf	lcd_write_string@var
  1473  01C2  3080               	movlw	128
  1474  01C3  00F7               	movwf	lcd_write_string@var+1
  1475  01C4  120A  158A  2096  120A  118A  	fcall	_lcd_write_string
  1476  01C9                     l3164:	
  1477                           
  1478                           ;LCD.c: 100:             send_int(0);
  1479  01C9  3000               	movlw	0
  1480  01CA  00F3               	movwf	send_int@msg
  1481  01CB  00F4               	movwf	send_int@msg+1
  1482  01CC  160A  118A  273F  120A  118A  	fcall	_send_int
  1483  01D1                     l3166:	
  1484                           
  1485                           ;LCD.c: 101:             lcd_write_int(decimale1);
  1486  01D1  087A               	movf	_decimale1,w
  1487  01D2  160A  118A  2795  120A  118A  	fcall	_lcd_write_int
  1488  01D7                     l3168:	
  1489                           
  1490                           ;LCD.c: 102:             lcd_write_string("V");
  1491  01D7  3020               	movlw	(low ((STR_4-__stringbase)| (0+32768)))& (0+255)
  1492  01D8  00F6               	movwf	lcd_write_string@var
  1493  01D9  3080               	movlw	128
  1494  01DA  00F7               	movwf	lcd_write_string@var+1
  1495  01DB  120A  158A  2096  120A  118A  	fcall	_lcd_write_string
  1496  01E0                     l3170:	
  1497                           
  1498                           ;LCD.c: 104:         _delay((unsigned long)((20)*(4000000/4000.0)));
  1499  01E0  301A               	movlw	26
  1500  01E1  1683               	bsf	3,5	;RP0=1, select bank1
  1501  01E2  1303               	bcf	3,6	;RP1=0, select bank1
  1502  01E3  00B1               	movwf	(??_main^(0+128)+1)
  1503  01E4  30F7               	movlw	247
  1504  01E5  00B0               	movwf	??_main^(0+128)
  1505  01E6                     u4517:	
  1506  01E6  0BB0               	decfsz	??_main^(0+128),f
  1507  01E7  29E6               	goto	u4517
  1508  01E8  0BB1               	decfsz	(??_main^(0+128)+1),f
  1509  01E9  29E6               	goto	u4517
  1510  01EA  29EB               	nop2
  1511  01EB                     l3172:	
  1512                           
  1513                           ;LCD.c: 106:         initADC(1);
  1514  01EB  3001               	movlw	1
  1515  01EC  120A  118A  2759  120A  118A  	fcall	_initADC
  1516  01F1                     l3174:	
  1517                           
  1518                           ;LCD.c: 107:         if(ready){
  1519  01F1  1283               	bcf	3,5	;RP0=0, select bank0
  1520  01F2  1303               	bcf	3,6	;RP1=0, select bank0
  1521  01F3  086E               	movf	_ready,w
  1522  01F4  1903               	btfsc	3,2
  1523  01F5  29F7               	goto	u4461
  1524  01F6  29F8               	goto	u4460
  1525  01F7                     u4461:	
  1526  01F7  2A1B               	goto	l3182
  1527  01F8                     u4460:	
  1528  01F8                     l3176:	
  1529                           
  1530                           ;LCD.c: 108:             adc2 = ADRESH;
  1531  01F8  081E               	movf	30,w	;volatile
  1532  01F9  1683               	bsf	3,5	;RP0=1, select bank1
  1533  01FA  1303               	bcf	3,6	;RP1=0, select bank1
  1534  01FB  00B0               	movwf	??_main^(0+128)
  1535  01FC  01B1               	clrf	(??_main^(0+128)+1)
  1536  01FD  01B2               	clrf	(??_main^(0+128)+2)
  1537  01FE  01B3               	clrf	(??_main^(0+128)+3)
  1538  01FF  0833               	movf	(??_main+3)^(0+128),w
  1539  0200  00F6               	movwf	___xxtofl@val+3
  1540  0201  0832               	movf	(??_main+2)^(0+128),w
  1541  0202  00F5               	movwf	___xxtofl@val+2
  1542  0203  0831               	movf	(??_main+1)^(0+128),w
  1543  0204  00F4               	movwf	___xxtofl@val+1
  1544  0205  0830               	movf	??_main^(0+128),w
  1545  0206  00F3               	movwf	___xxtofl@val
  1546  0207  3000               	movlw	0
  1547  0208  120A  158A  21ED  120A  118A  	fcall	___xxtofl
  1548  020D  0876               	movf	?___xxtofl+3,w
  1549  020E  1683               	bsf	3,5	;RP0=1, select bank1
  1550  020F  1303               	bcf	3,6	;RP1=0, select bank1
  1551  0210  00AB               	movwf	(_adc2+3)^(0+128)
  1552  0211  0875               	movf	?___xxtofl+2,w
  1553  0212  00AA               	movwf	(_adc2+2)^(0+128)
  1554  0213  0874               	movf	?___xxtofl+1,w
  1555  0214  00A9               	movwf	(_adc2+1)^(0+128)
  1556  0215  0873               	movf	?___xxtofl,w
  1557  0216  00A8               	movwf	_adc2^(0+128)
  1558  0217                     l3178:	
  1559                           
  1560                           ;LCD.c: 109:             ready = 0;
  1561  0217  1283               	bcf	3,5	;RP0=0, select bank0
  1562  0218  1303               	bcf	3,6	;RP1=0, select bank0
  1563  0219  01EE               	clrf	_ready
  1564  021A                     l3180:	
  1565                           
  1566                           ;LCD.c: 110:             ADCON0bits.GO_DONE = 1;
  1567  021A  149F               	bsf	31,1	;volatile
  1568  021B                     l3182:	
  1569                           
  1570                           ;LCD.c: 112:         adc2 = adc2 * 5/255;
  1571  021B  3043               	movlw	67
  1572  021C  00D5               	movwf	___fldiv@a+3
  1573  021D  307F               	movlw	127
  1574  021E  00D4               	movwf	___fldiv@a+2
  1575  021F  3000               	movlw	0
  1576  0220  00D3               	movwf	___fldiv@a+1
  1577  0221  3000               	movlw	0
  1578  0222  00D2               	movwf	___fldiv@a
  1579  0223  3040               	movlw	64
  1580  0224  00BB               	movwf	___flmul@b+3
  1581  0225  30A0               	movlw	160
  1582  0226  00BA               	movwf	___flmul@b+2
  1583  0227  3000               	movlw	0
  1584  0228  00B9               	movwf	___flmul@b+1
  1585  0229  3000               	movlw	0
  1586  022A  00B8               	movwf	___flmul@b
  1587  022B  1683               	bsf	3,5	;RP0=1, select bank1
  1588  022C  1303               	bcf	3,6	;RP1=0, select bank1
  1589  022D  082B               	movf	(_adc2+3)^(0+128),w
  1590  022E  1283               	bcf	3,5	;RP0=0, select bank0
  1591  022F  1303               	bcf	3,6	;RP1=0, select bank0
  1592  0230  00BF               	movwf	___flmul@a+3
  1593  0231  1683               	bsf	3,5	;RP0=1, select bank1
  1594  0232  1303               	bcf	3,6	;RP1=0, select bank1
  1595  0233  082A               	movf	(_adc2+2)^(0+128),w
  1596  0234  1283               	bcf	3,5	;RP0=0, select bank0
  1597  0235  1303               	bcf	3,6	;RP1=0, select bank0
  1598  0236  00BE               	movwf	___flmul@a+2
  1599  0237  1683               	bsf	3,5	;RP0=1, select bank1
  1600  0238  1303               	bcf	3,6	;RP1=0, select bank1
  1601  0239  0829               	movf	(_adc2+1)^(0+128),w
  1602  023A  1283               	bcf	3,5	;RP0=0, select bank0
  1603  023B  1303               	bcf	3,6	;RP1=0, select bank0
  1604  023C  00BD               	movwf	___flmul@a+1
  1605  023D  1683               	bsf	3,5	;RP0=1, select bank1
  1606  023E  1303               	bcf	3,6	;RP1=0, select bank1
  1607  023F  0828               	movf	_adc2^(0+128),w
  1608  0240  1283               	bcf	3,5	;RP0=0, select bank0
  1609  0241  1303               	bcf	3,6	;RP1=0, select bank0
  1610  0242  00BC               	movwf	___flmul@a
  1611  0243  120A  118A  23F8  120A  118A  	fcall	___flmul
  1612  0248  1283               	bcf	3,5	;RP0=0, select bank0
  1613  0249  1303               	bcf	3,6	;RP1=0, select bank0
  1614  024A  083B               	movf	?___flmul+3,w
  1615  024B  00D9               	movwf	___fldiv@b+3
  1616  024C  083A               	movf	?___flmul+2,w
  1617  024D  00D8               	movwf	___fldiv@b+2
  1618  024E  0839               	movf	?___flmul+1,w
  1619  024F  00D7               	movwf	___fldiv@b+1
  1620  0250  0838               	movf	?___flmul,w
  1621  0251  00D6               	movwf	___fldiv@b
  1622  0252  120A  158A  2393  120A  118A  	fcall	___fldiv
  1623  0257  1283               	bcf	3,5	;RP0=0, select bank0
  1624  0258  1303               	bcf	3,6	;RP1=0, select bank0
  1625  0259  0855               	movf	?___fldiv+3,w
  1626  025A  1683               	bsf	3,5	;RP0=1, select bank1
  1627  025B  1303               	bcf	3,6	;RP1=0, select bank1
  1628  025C  00AB               	movwf	(_adc2+3)^(0+128)
  1629  025D  1283               	bcf	3,5	;RP0=0, select bank0
  1630  025E  1303               	bcf	3,6	;RP1=0, select bank0
  1631  025F  0854               	movf	?___fldiv+2,w
  1632  0260  1683               	bsf	3,5	;RP0=1, select bank1
  1633  0261  1303               	bcf	3,6	;RP1=0, select bank1
  1634  0262  00AA               	movwf	(_adc2+2)^(0+128)
  1635  0263  1283               	bcf	3,5	;RP0=0, select bank0
  1636  0264  1303               	bcf	3,6	;RP1=0, select bank0
  1637  0265  0853               	movf	?___fldiv+1,w
  1638  0266  1683               	bsf	3,5	;RP0=1, select bank1
  1639  0267  1303               	bcf	3,6	;RP1=0, select bank1
  1640  0268  00A9               	movwf	(_adc2+1)^(0+128)
  1641  0269  1283               	bcf	3,5	;RP0=0, select bank0
  1642  026A  1303               	bcf	3,6	;RP1=0, select bank0
  1643  026B  0852               	movf	?___fldiv,w
  1644  026C  1683               	bsf	3,5	;RP0=1, select bank1
  1645  026D  1303               	bcf	3,6	;RP1=0, select bank1
  1646  026E  00A8               	movwf	_adc2^(0+128)
  1647  026F                     l3184:	
  1648                           
  1649                           ;LCD.c: 113:         entero2 = adc2;
  1650  026F  082B               	movf	(_adc2+3)^(0+128),w
  1651  0270  00F6               	movwf	___fltol@f1+3
  1652  0271  082A               	movf	(_adc2+2)^(0+128),w
  1653  0272  00F5               	movwf	___fltol@f1+2
  1654  0273  0829               	movf	(_adc2+1)^(0+128),w
  1655  0274  00F4               	movwf	___fltol@f1+1
  1656  0275  0828               	movf	_adc2^(0+128),w
  1657  0276  00F3               	movwf	___fltol@f1
  1658  0277  120A  158A  2171  120A  118A  	fcall	___fltol
  1659  027C  0873               	movf	?___fltol,w
  1660  027D  1683               	bsf	3,5	;RP0=1, select bank1
  1661  027E  1303               	bcf	3,6	;RP1=0, select bank1
  1662  027F  00B0               	movwf	??_main^(0+128)
  1663  0280  0830               	movf	??_main^(0+128),w
  1664  0281  1283               	bcf	3,5	;RP0=0, select bank0
  1665  0282  1303               	bcf	3,6	;RP1=0, select bank0
  1666  0283  00EC               	movwf	_entero2
  1667  0284                     l3186:	
  1668                           
  1669                           ;LCD.c: 114:         decimal2 = (adc2 - entero2)*100;
  1670  0284  3042               	movlw	66
  1671  0285  00BB               	movwf	___flmul@b+3
  1672  0286  30C8               	movlw	200
  1673  0287  00BA               	movwf	___flmul@b+2
  1674  0288  3000               	movlw	0
  1675  0289  00B9               	movwf	___flmul@b+1
  1676  028A  3000               	movlw	0
  1677  028B  00B8               	movwf	___flmul@b
  1678  028C  086C               	movf	_entero2,w
  1679  028D  1683               	bsf	3,5	;RP0=1, select bank1
  1680  028E  1303               	bcf	3,6	;RP1=0, select bank1
  1681  028F  00B0               	movwf	??_main^(0+128)
  1682  0290  01B1               	clrf	(??_main^(0+128)+1)
  1683  0291  01B2               	clrf	(??_main^(0+128)+2)
  1684  0292  01B3               	clrf	(??_main^(0+128)+3)
  1685  0293  0833               	movf	(??_main+3)^(0+128),w
  1686  0294  00F6               	movwf	___xxtofl@val+3
  1687  0295  0832               	movf	(??_main+2)^(0+128),w
  1688  0296  00F5               	movwf	___xxtofl@val+2
  1689  0297  0831               	movf	(??_main+1)^(0+128),w
  1690  0298  00F4               	movwf	___xxtofl@val+1
  1691  0299  0830               	movf	??_main^(0+128),w
  1692  029A  00F3               	movwf	___xxtofl@val
  1693  029B  3001               	movlw	1
  1694  029C  120A  158A  21ED  120A  118A  	fcall	___xxtofl
  1695  02A1  0876               	movf	?___xxtofl+3,w
  1696  02A2  1283               	bcf	3,5	;RP0=0, select bank0
  1697  02A3  1303               	bcf	3,6	;RP1=0, select bank0
  1698  02A4  00B3               	movwf	___flsub@a+3
  1699  02A5  0875               	movf	?___xxtofl+2,w
  1700  02A6  00B2               	movwf	___flsub@a+2
  1701  02A7  0874               	movf	?___xxtofl+1,w
  1702  02A8  00B1               	movwf	___flsub@a+1
  1703  02A9  0873               	movf	?___xxtofl,w
  1704  02AA  00B0               	movwf	___flsub@a
  1705  02AB  1683               	bsf	3,5	;RP0=1, select bank1
  1706  02AC  1303               	bcf	3,6	;RP1=0, select bank1
  1707  02AD  082B               	movf	(_adc2+3)^(0+128),w
  1708  02AE  1283               	bcf	3,5	;RP0=0, select bank0
  1709  02AF  1303               	bcf	3,6	;RP1=0, select bank0
  1710  02B0  00B7               	movwf	___flsub@b+3
  1711  02B1  1683               	bsf	3,5	;RP0=1, select bank1
  1712  02B2  1303               	bcf	3,6	;RP1=0, select bank1
  1713  02B3  082A               	movf	(_adc2+2)^(0+128),w
  1714  02B4  1283               	bcf	3,5	;RP0=0, select bank0
  1715  02B5  1303               	bcf	3,6	;RP1=0, select bank0
  1716  02B6  00B6               	movwf	___flsub@b+2
  1717  02B7  1683               	bsf	3,5	;RP0=1, select bank1
  1718  02B8  1303               	bcf	3,6	;RP1=0, select bank1
  1719  02B9  0829               	movf	(_adc2+1)^(0+128),w
  1720  02BA  1283               	bcf	3,5	;RP0=0, select bank0
  1721  02BB  1303               	bcf	3,6	;RP1=0, select bank0
  1722  02BC  00B5               	movwf	___flsub@b+1
  1723  02BD  1683               	bsf	3,5	;RP0=1, select bank1
  1724  02BE  1303               	bcf	3,6	;RP1=0, select bank1
  1725  02BF  0828               	movf	_adc2^(0+128),w
  1726  02C0  1283               	bcf	3,5	;RP0=0, select bank0
  1727  02C1  1303               	bcf	3,6	;RP1=0, select bank0
  1728  02C2  00B4               	movwf	___flsub@b
  1729  02C3  160A  118A  27B3  120A  118A  	fcall	___flsub
  1730  02C8  1283               	bcf	3,5	;RP0=0, select bank0
  1731  02C9  1303               	bcf	3,6	;RP1=0, select bank0
  1732  02CA  0833               	movf	?___flsub+3,w
  1733  02CB  00BF               	movwf	___flmul@a+3
  1734  02CC  0832               	movf	?___flsub+2,w
  1735  02CD  00BE               	movwf	___flmul@a+2
  1736  02CE  0831               	movf	?___flsub+1,w
  1737  02CF  00BD               	movwf	___flmul@a+1
  1738  02D0  0830               	movf	?___flsub,w
  1739  02D1  00BC               	movwf	___flmul@a
  1740  02D2  120A  118A  23F8  120A  118A  	fcall	___flmul
  1741  02D7  1283               	bcf	3,5	;RP0=0, select bank0
  1742  02D8  1303               	bcf	3,6	;RP1=0, select bank0
  1743  02D9  083B               	movf	?___flmul+3,w
  1744  02DA  1683               	bsf	3,5	;RP0=1, select bank1
  1745  02DB  1303               	bcf	3,6	;RP1=0, select bank1
  1746  02DC  00A3               	movwf	(_decimal2+3)^(0+128)
  1747  02DD  1283               	bcf	3,5	;RP0=0, select bank0
  1748  02DE  1303               	bcf	3,6	;RP1=0, select bank0
  1749  02DF  083A               	movf	?___flmul+2,w
  1750  02E0  1683               	bsf	3,5	;RP0=1, select bank1
  1751  02E1  1303               	bcf	3,6	;RP1=0, select bank1
  1752  02E2  00A2               	movwf	(_decimal2+2)^(0+128)
  1753  02E3  1283               	bcf	3,5	;RP0=0, select bank0
  1754  02E4  1303               	bcf	3,6	;RP1=0, select bank0
  1755  02E5  0839               	movf	?___flmul+1,w
  1756  02E6  1683               	bsf	3,5	;RP0=1, select bank1
  1757  02E7  1303               	bcf	3,6	;RP1=0, select bank1
  1758  02E8  00A1               	movwf	(_decimal2+1)^(0+128)
  1759  02E9  1283               	bcf	3,5	;RP0=0, select bank0
  1760  02EA  1303               	bcf	3,6	;RP1=0, select bank0
  1761  02EB  0838               	movf	?___flmul,w
  1762  02EC  1683               	bsf	3,5	;RP0=1, select bank1
  1763  02ED  1303               	bcf	3,6	;RP1=0, select bank1
  1764  02EE  00A0               	movwf	_decimal2^(0+128)
  1765  02EF                     l3188:	
  1766                           
  1767                           ;LCD.c: 115:         decimale2 = decimal2;
  1768  02EF  0823               	movf	(_decimal2+3)^(0+128),w
  1769  02F0  00F6               	movwf	___fltol@f1+3
  1770  02F1  0822               	movf	(_decimal2+2)^(0+128),w
  1771  02F2  00F5               	movwf	___fltol@f1+2
  1772  02F3  0821               	movf	(_decimal2+1)^(0+128),w
  1773  02F4  00F4               	movwf	___fltol@f1+1
  1774  02F5  0820               	movf	_decimal2^(0+128),w
  1775  02F6  00F3               	movwf	___fltol@f1
  1776  02F7  120A  158A  2171  120A  118A  	fcall	___fltol
  1777  02FC  0873               	movf	?___fltol,w
  1778  02FD  1683               	bsf	3,5	;RP0=1, select bank1
  1779  02FE  1303               	bcf	3,6	;RP1=0, select bank1
  1780  02FF  00B0               	movwf	??_main^(0+128)
  1781  0300  0830               	movf	??_main^(0+128),w
  1782  0301  00F9               	movwf	_decimale2
  1783  0302                     l3190:	
  1784                           
  1785                           ;LCD.c: 116:         lcd_set_cursor(7,2);
  1786  0302  3002               	movlw	2
  1787  0303  00B0               	movwf	??_main^(0+128)
  1788  0304  0830               	movf	??_main^(0+128),w
  1789  0305  00F6               	movwf	lcd_set_cursor@posy
  1790  0306  3007               	movlw	7
  1791  0307  160A  118A  275E  120A  118A  	fcall	_lcd_set_cursor
  1792  030C                     l3192:	
  1793                           
  1794                           ;LCD.c: 117:         lcd_write_int(entero2);
  1795  030C  1283               	bcf	3,5	;RP0=0, select bank0
  1796  030D  1303               	bcf	3,6	;RP1=0, select bank0
  1797  030E  086C               	movf	_entero2,w
  1798  030F  160A  118A  2795  120A  118A  	fcall	_lcd_write_int
  1799  0314                     l3194:	
  1800                           
  1801                           ;LCD.c: 118:         lcd_write_char('.');
  1802  0314  302E               	movlw	46
  1803  0315  120A  158A  2003  120A  118A  	fcall	_lcd_write_char
  1804  031A                     l3196:	
  1805                           
  1806                           ;LCD.c: 119:         if(decimale2 >= 10){
  1807  031A  300A               	movlw	10
  1808  031B  0279               	subwf	_decimale2,w
  1809  031C  1C03               	skipc
  1810  031D  2B1F               	goto	u4471
  1811  031E  2B20               	goto	u4470
  1812  031F                     u4471:	
  1813  031F  2B30               	goto	l3200
  1814  0320                     u4470:	
  1815  0320                     l3198:	
  1816                           
  1817                           ;LCD.c: 120:             lcd_write_int(decimale2);
  1818  0320  0879               	movf	_decimale2,w
  1819  0321  160A  118A  2795  120A  118A  	fcall	_lcd_write_int
  1820                           
  1821                           ;LCD.c: 121:             lcd_write_string("V");
  1822  0326  3020               	movlw	(low ((STR_4-__stringbase)| (0+32768)))& (0+255)
  1823  0327  00F6               	movwf	lcd_write_string@var
  1824  0328  3080               	movlw	128
  1825  0329  00F7               	movwf	lcd_write_string@var+1
  1826  032A  120A  158A  2096  120A  118A  	fcall	_lcd_write_string
  1827                           
  1828                           ;LCD.c: 122:         }else{
  1829  032F  2B48               	goto	l3202
  1830  0330                     l3200:	
  1831                           
  1832                           ;LCD.c: 123:             lcd_write_string("0");
  1833  0330  301E               	movlw	(low ((STR_5-__stringbase)| (0+32768)))& (0+255)
  1834  0331  00F6               	movwf	lcd_write_string@var
  1835  0332  3080               	movlw	128
  1836  0333  00F7               	movwf	lcd_write_string@var+1
  1837  0334  120A  158A  2096  120A  118A  	fcall	_lcd_write_string
  1838                           
  1839                           ;LCD.c: 124:             lcd_write_int(decimale2);
  1840  0339  0879               	movf	_decimale2,w
  1841  033A  160A  118A  2795  120A  118A  	fcall	_lcd_write_int
  1842                           
  1843                           ;LCD.c: 125:             lcd_write_string("V");
  1844  033F  3020               	movlw	(low ((STR_4-__stringbase)| (0+32768)))& (0+255)
  1845  0340  00F6               	movwf	lcd_write_string@var
  1846  0341  3080               	movlw	128
  1847  0342  00F7               	movwf	lcd_write_string@var+1
  1848  0343  120A  158A  2096  120A  118A  	fcall	_lcd_write_string
  1849  0348                     l3202:	
  1850                           
  1851                           ;LCD.c: 127:         _delay((unsigned long)((20)*(4000000/4000.0)));
  1852  0348  301A               	movlw	26
  1853  0349  1683               	bsf	3,5	;RP0=1, select bank1
  1854  034A  1303               	bcf	3,6	;RP1=0, select bank1
  1855  034B  00B1               	movwf	(??_main^(0+128)+1)
  1856  034C  30F7               	movlw	247
  1857  034D  00B0               	movwf	??_main^(0+128)
  1858  034E                     u4527:	
  1859  034E  0BB0               	decfsz	??_main^(0+128),f
  1860  034F  2B4E               	goto	u4527
  1861  0350  0BB1               	decfsz	(??_main^(0+128)+1),f
  1862  0351  2B4E               	goto	u4527
  1863  0352  2B53               	nop2
  1864  0353                     l3204:	
  1865                           
  1866                           ;LCD.c: 128:         if(ttl >=100){
  1867  0353  3064               	movlw	100
  1868  0354  0278               	subwf	_ttl,w
  1869  0355  1C03               	skipc
  1870  0356  2B58               	goto	u4481
  1871  0357  2B59               	goto	u4480
  1872  0358                     u4481:	
  1873  0358  2B6C               	goto	l3210
  1874  0359                     u4480:	
  1875  0359                     l3206:	
  1876                           
  1877                           ;LCD.c: 129:             lcd_set_cursor (13,2);
  1878  0359  3002               	movlw	2
  1879  035A  1683               	bsf	3,5	;RP0=1, select bank1
  1880  035B  1303               	bcf	3,6	;RP1=0, select bank1
  1881  035C  00B0               	movwf	??_main^(0+128)
  1882  035D  0830               	movf	??_main^(0+128),w
  1883  035E  00F6               	movwf	lcd_set_cursor@posy
  1884  035F  300D               	movlw	13
  1885  0360  160A  118A  275E  120A  118A  	fcall	_lcd_set_cursor
  1886  0365                     l3208:	
  1887                           
  1888                           ;LCD.c: 130:             lcd_write_int (ttl);
  1889  0365  0878               	movf	_ttl,w
  1890  0366  160A  118A  2795  120A  118A  	fcall	_lcd_write_int
  1891                           
  1892                           ;LCD.c: 131:         }else if (ttl < 100 && ttl >= 10){
  1893  036B  2BAF               	goto	l3222
  1894  036C                     l3210:	
  1895  036C  3064               	movlw	100
  1896  036D  0278               	subwf	_ttl,w
  1897  036E  1803               	skipnc
  1898  036F  2B71               	goto	u4491
  1899  0370  2B72               	goto	u4490
  1900  0371                     u4491:	
  1901  0371  2B91               	goto	l3218
  1902  0372                     u4490:	
  1903  0372                     l3212:	
  1904  0372  300A               	movlw	10
  1905  0373  0278               	subwf	_ttl,w
  1906  0374  1C03               	skipc
  1907  0375  2B77               	goto	u4501
  1908  0376  2B78               	goto	u4500
  1909  0377                     u4501:	
  1910  0377  2B91               	goto	l3218
  1911  0378                     u4500:	
  1912  0378                     l3214:	
  1913                           
  1914                           ;LCD.c: 132:             lcd_set_cursor (13,2);
  1915  0378  3002               	movlw	2
  1916  0379  1683               	bsf	3,5	;RP0=1, select bank1
  1917  037A  1303               	bcf	3,6	;RP1=0, select bank1
  1918  037B  00B0               	movwf	??_main^(0+128)
  1919  037C  0830               	movf	??_main^(0+128),w
  1920  037D  00F6               	movwf	lcd_set_cursor@posy
  1921  037E  300D               	movlw	13
  1922  037F  160A  118A  275E  120A  118A  	fcall	_lcd_set_cursor
  1923                           
  1924                           ;LCD.c: 133:             lcd_write_char('0');
  1925  0384  3030               	movlw	48
  1926  0385  120A  158A  2003  120A  118A  	fcall	_lcd_write_char
  1927  038A                     l3216:	
  1928                           
  1929                           ;LCD.c: 134:             lcd_write_int (ttl);
  1930  038A  0878               	movf	_ttl,w
  1931  038B  160A  118A  2795  120A  118A  	fcall	_lcd_write_int
  1932                           
  1933                           ;LCD.c: 135:         }else {
  1934  0390  2BAF               	goto	l3222
  1935  0391                     l3218:	
  1936                           
  1937                           ;LCD.c: 136:             lcd_set_cursor (13,2);
  1938  0391  3002               	movlw	2
  1939  0392  1683               	bsf	3,5	;RP0=1, select bank1
  1940  0393  1303               	bcf	3,6	;RP1=0, select bank1
  1941  0394  00B0               	movwf	??_main^(0+128)
  1942  0395  0830               	movf	??_main^(0+128),w
  1943  0396  00F6               	movwf	lcd_set_cursor@posy
  1944  0397  300D               	movlw	13
  1945  0398  160A  118A  275E  120A  118A  	fcall	_lcd_set_cursor
  1946                           
  1947                           ;LCD.c: 137:             lcd_write_char('0');
  1948  039D  3030               	movlw	48
  1949  039E  120A  158A  2003  120A  118A  	fcall	_lcd_write_char
  1950                           
  1951                           ;LCD.c: 138:             lcd_write_char('0');
  1952  03A3  3030               	movlw	48
  1953  03A4  120A  158A  2003  120A  118A  	fcall	_lcd_write_char
  1954  03A9                     l3220:	
  1955                           
  1956                           ;LCD.c: 139:             lcd_write_int (ttl);
  1957  03A9  0878               	movf	_ttl,w
  1958  03AA  160A  118A  2795  120A  118A  	fcall	_lcd_write_int
  1959  03AF                     l3222:	
  1960                           
  1961                           ;LCD.c: 143:         send_int(entero1);
  1962  03AF  1283               	bcf	3,5	;RP0=0, select bank0
  1963  03B0  1303               	bcf	3,6	;RP1=0, select bank0
  1964  03B1  086D               	movf	_entero1,w
  1965  03B2  1683               	bsf	3,5	;RP0=1, select bank1
  1966  03B3  1303               	bcf	3,6	;RP1=0, select bank1
  1967  03B4  00B0               	movwf	??_main^(0+128)
  1968  03B5  01B1               	clrf	(??_main^(0+128)+1)
  1969  03B6  0830               	movf	??_main^(0+128),w
  1970  03B7  00F3               	movwf	send_int@msg
  1971  03B8  0831               	movf	(??_main+1)^(0+128),w
  1972  03B9  00F4               	movwf	send_int@msg+1
  1973  03BA  160A  118A  273F  120A  118A  	fcall	_send_int
  1974  03BF                     l3224:	
  1975                           
  1976                           ;LCD.c: 144:         send_int(decimale1);
  1977  03BF  087A               	movf	_decimale1,w
  1978  03C0  1683               	bsf	3,5	;RP0=1, select bank1
  1979  03C1  1303               	bcf	3,6	;RP1=0, select bank1
  1980  03C2  00B0               	movwf	??_main^(0+128)
  1981  03C3  01B1               	clrf	(??_main^(0+128)+1)
  1982  03C4  0830               	movf	??_main^(0+128),w
  1983  03C5  00F3               	movwf	send_int@msg
  1984  03C6  0831               	movf	(??_main+1)^(0+128),w
  1985  03C7  00F4               	movwf	send_int@msg+1
  1986  03C8  160A  118A  273F  120A  118A  	fcall	_send_int
  1987  03CD                     l3226:	
  1988                           
  1989                           ;LCD.c: 145:         send_int(entero2);
  1990  03CD  1283               	bcf	3,5	;RP0=0, select bank0
  1991  03CE  1303               	bcf	3,6	;RP1=0, select bank0
  1992  03CF  086C               	movf	_entero2,w
  1993  03D0  1683               	bsf	3,5	;RP0=1, select bank1
  1994  03D1  1303               	bcf	3,6	;RP1=0, select bank1
  1995  03D2  00B0               	movwf	??_main^(0+128)
  1996  03D3  01B1               	clrf	(??_main^(0+128)+1)
  1997  03D4  0830               	movf	??_main^(0+128),w
  1998  03D5  00F3               	movwf	send_int@msg
  1999  03D6  0831               	movf	(??_main+1)^(0+128),w
  2000  03D7  00F4               	movwf	send_int@msg+1
  2001  03D8  160A  118A  273F  120A  118A  	fcall	_send_int
  2002  03DD                     l3228:	
  2003                           
  2004                           ;LCD.c: 146:         send_int(decimale2);
  2005  03DD  0879               	movf	_decimale2,w
  2006  03DE  1683               	bsf	3,5	;RP0=1, select bank1
  2007  03DF  1303               	bcf	3,6	;RP1=0, select bank1
  2008  03E0  00B0               	movwf	??_main^(0+128)
  2009  03E1  01B1               	clrf	(??_main^(0+128)+1)
  2010  03E2  0830               	movf	??_main^(0+128),w
  2011  03E3  00F3               	movwf	send_int@msg
  2012  03E4  0831               	movf	(??_main+1)^(0+128),w
  2013  03E5  00F4               	movwf	send_int@msg+1
  2014  03E6  160A  118A  273F  120A  118A  	fcall	_send_int
  2015  03EB                     l3230:	
  2016                           
  2017                           ;LCD.c: 147:         send_int(255);
  2018  03EB  30FF               	movlw	255
  2019  03EC  00F3               	movwf	send_int@msg
  2020  03ED  3000               	movlw	0
  2021  03EE  00F4               	movwf	send_int@msg+1
  2022  03EF  160A  118A  273F  120A  118A  	fcall	_send_int
  2023  03F4  287B               	goto	l3134
  2024  03F5  120A  118A  280C   	ljmp	start
  2025  03F8                     __end_of_main:	
  2026                           
  2027                           	psect	text1
  2028  173F                     __ptext1:	
  2029 ;; *************** function _send_int *****************
  2030 ;; Defined at:
  2031 ;;		line 38 in file "Serial_Init.c"
  2032 ;; Parameters:    Size  Location     Type
  2033 ;;  msg             2    3[COMMON] int 
  2034 ;; Auto vars:     Size  Location     Type
  2035 ;;		None
  2036 ;; Return value:  Size  Location     Type
  2037 ;;                  1    wreg      void 
  2038 ;; Registers used:
  2039 ;;		wreg
  2040 ;; Tracked objects:
  2041 ;;		On entry : 0/0
  2042 ;;		On exit  : 0/0
  2043 ;;		Unchanged: 0/0
  2044 ;; Data sizes:     COMMON   BANK0   BANK1   BANK3   BANK2
  2045 ;;      Params:         2       0       0       0       0
  2046 ;;      Locals:         0       0       0       0       0
  2047 ;;      Temps:          0       0       0       0       0
  2048 ;;      Totals:         2       0       0       0       0
  2049 ;;Total ram usage:        2 bytes
  2050 ;; Hardware stack levels used:    1
  2051 ;; Hardware stack levels required when called:    1
  2052 ;; This function calls:
  2053 ;;		Nothing
  2054 ;; This function is called by:
  2055 ;;		_main
  2056 ;; This function uses a non-reentrant model
  2057 ;;
  2058                           
  2059                           
  2060                           ;psect for function _send_int
  2061  173F                     _send_int:	
  2062  173F                     l2180:	
  2063                           ;incstack = 0
  2064                           ; Regs used in _send_int: [wreg]
  2065                           
  2066  173F                     l189:	
  2067                           ;Serial_Init.c: 40:     }
  2068                           
  2069                           
  2070                           ;Serial_Init.c: 39:     while (TXSTAbits.TRMT == 0){
  2071  173F  1683               	bsf	3,5	;RP0=1, select bank1
  2072  1740  1303               	bcf	3,6	;RP1=0, select bank1
  2073  1741  1C98               	btfss	24,1	;volatile
  2074  1742  2F44               	goto	u2571
  2075  1743  2F45               	goto	u2570
  2076  1744                     u2571:	
  2077  1744  2F3F               	goto	l189
  2078  1745                     u2570:	
  2079  1745                     l2182:	
  2080                           
  2081                           ;Serial_Init.c: 41:     TXREG = msg;
  2082  1745  0873               	movf	send_int@msg,w
  2083  1746  1283               	bcf	3,5	;RP0=0, select bank0
  2084  1747  1303               	bcf	3,6	;RP1=0, select bank0
  2085  1748  0099               	movwf	25	;volatile
  2086  1749                     l192:	
  2087  1749  0008               	return
  2088  174A                     __end_of_send_int:	
  2089                           
  2090                           	psect	text2
  2091  1795                     __ptext2:	
  2092 ;; *************** function _lcd_write_int *****************
  2093 ;; Defined at:
  2094 ;;		line 65 in file "LCD_Init.c"
  2095 ;; Parameters:    Size  Location     Type
  2096 ;;  numero          1    wreg     unsigned char 
  2097 ;; Auto vars:     Size  Location     Type
  2098 ;;  numero          1   29[BANK0 ] unsigned char 
  2099 ;;  buffer          4   25[BANK0 ] unsigned char [4]
  2100 ;; Return value:  Size  Location     Type
  2101 ;;                  1    wreg      void 
  2102 ;; Registers used:
  2103 ;;		wreg, fsr0l, fsr0h, status,2, status,0, btemp+1, pclath, cstack
  2104 ;; Tracked objects:
  2105 ;;		On entry : 0/0
  2106 ;;		On exit  : 0/0
  2107 ;;		Unchanged: 0/0
  2108 ;; Data sizes:     COMMON   BANK0   BANK1   BANK3   BANK2
  2109 ;;      Params:         0       0       0       0       0
  2110 ;;      Locals:         0       5       0       0       0
  2111 ;;      Temps:          0       3       0       0       0
  2112 ;;      Totals:         0       8       0       0       0
  2113 ;;Total ram usage:        8 bytes
  2114 ;; Hardware stack levels used:    1
  2115 ;; Hardware stack levels required when called:    3
  2116 ;; This function calls:
  2117 ;;		_lcd_write_string
  2118 ;;		_sprintf
  2119 ;; This function is called by:
  2120 ;;		_main
  2121 ;; This function uses a non-reentrant model
  2122 ;;
  2123                           
  2124                           
  2125                           ;psect for function _lcd_write_int
  2126  1795                     _lcd_write_int:	
  2127                           
  2128                           ;incstack = 0
  2129                           ; Regs used in _lcd_write_int: [wreg-fsr0h+status,2+status,0+btemp+1+pclath+cstack]
  2130                           ;lcd_write_int@numero stored from wreg
  2131  1795  1283               	bcf	3,5	;RP0=0, select bank0
  2132  1796  1303               	bcf	3,6	;RP1=0, select bank0
  2133  1797  00BD               	movwf	lcd_write_int@numero
  2134  1798                     l3018:	
  2135                           
  2136                           ;LCD_Init.c: 66:     char buffer [4];;LCD_Init.c: 67:     sprintf (buffer, "%d", numero)
      +                          ;
  2137  1798  301B               	movlw	(low ((STR_10-__stringbase)| (0+32768)))& (0+255)
  2138  1799  00B6               	movwf	??_lcd_write_int
  2139  179A  0836               	movf	??_lcd_write_int,w
  2140  179B  00A9               	movwf	sprintf@f
  2141  179C  083D               	movf	lcd_write_int@numero,w
  2142  179D  00B7               	movwf	??_lcd_write_int+1
  2143  179E  01B8               	clrf	??_lcd_write_int+2
  2144  179F  0837               	movf	??_lcd_write_int+1,w
  2145  17A0  00AA               	movwf	?_sprintf+1
  2146  17A1  0838               	movf	??_lcd_write_int+2,w
  2147  17A2  00AB               	movwf	?_sprintf+2
  2148  17A3  3039               	movlw	(low (lcd_write_int@buffer| 0))& (0+255)
  2149  17A4  120A  158A  22A9  160A  118A  	fcall	_sprintf
  2150                           
  2151                           ;LCD_Init.c: 68:     lcd_write_string(buffer);
  2152  17A9  3039               	movlw	(low (lcd_write_int@buffer| 0))& (0+255)
  2153  17AA  00F6               	movwf	lcd_write_string@var
  2154  17AB  3000               	movlw	0
  2155  17AC  00F7               	movwf	lcd_write_string@var+1
  2156  17AD  120A  158A  2096  160A  118A  	fcall	_lcd_write_string
  2157  17B2                     l129:	
  2158  17B2  0008               	return
  2159  17B3                     __end_of_lcd_write_int:	
  2160                           
  2161                           	psect	text3
  2162  0AA9                     __ptext3:	
  2163 ;; *************** function _sprintf *****************
  2164 ;; Defined at:
  2165 ;;		line 505 in file "C:\Program Files (x86)\Microchip\xc8\v2.10\pic\sources\c90\common\doprnt.c"
  2166 ;; Parameters:    Size  Location     Type
  2167 ;;  sp              1    wreg     PTR unsigned char 
  2168 ;;		 -> lcd_write_int@buffer(4), 
  2169 ;;  f               1    9[BANK0 ] PTR const unsigned char 
  2170 ;;		 -> STR_10(3), 
  2171 ;; Auto vars:     Size  Location     Type
  2172 ;;  sp              1   20[BANK0 ] PTR unsigned char 
  2173 ;;		 -> lcd_write_int@buffer(4), 
  2174 ;;  tmpval          4    0        struct .
  2175 ;;  val             2   18[BANK0 ] unsigned int 
  2176 ;;  cp              2    0        PTR const unsigned char 
  2177 ;;  len             2    0        unsigned int 
  2178 ;;  c               1   21[BANK0 ] unsigned char 
  2179 ;;  prec            1   17[BANK0 ] char 
  2180 ;;  flag            1   16[BANK0 ] unsigned char 
  2181 ;;  ap              1   15[BANK0 ] PTR void [1]
  2182 ;;		 -> ?_sprintf(2), 
  2183 ;; Return value:  Size  Location     Type
  2184 ;;                  2    9[BANK0 ] int 
  2185 ;; Registers used:
  2186 ;;		wreg, fsr0l, fsr0h, status,2, status,0, btemp+1, pclath, cstack
  2187 ;; Tracked objects:
  2188 ;;		On entry : 0/0
  2189 ;;		On exit  : 0/0
  2190 ;;		Unchanged: 0/0
  2191 ;; Data sizes:     COMMON   BANK0   BANK1   BANK3   BANK2
  2192 ;;      Params:         0       3       0       0       0
  2193 ;;      Locals:         0       7       0       0       0
  2194 ;;      Temps:          0       3       0       0       0
  2195 ;;      Totals:         0      13       0       0       0
  2196 ;;Total ram usage:       13 bytes
  2197 ;; Hardware stack levels used:    1
  2198 ;; Hardware stack levels required when called:    2
  2199 ;; This function calls:
  2200 ;;		___lwdiv
  2201 ;;		___lwmod
  2202 ;; This function is called by:
  2203 ;;		_lcd_write_int
  2204 ;; This function uses a non-reentrant model
  2205 ;;
  2206                           
  2207                           
  2208                           ;psect for function _sprintf
  2209  0AA9                     _sprintf:	
  2210                           
  2211                           ;incstack = 0
  2212                           ; Regs used in _sprintf: [wreg-fsr0h+status,2+status,0+btemp+1+pclath+cstack]
  2213                           ;sprintf@sp stored from wreg
  2214  0AA9  1283               	bcf	3,5	;RP0=0, select bank0
  2215  0AAA  1303               	bcf	3,6	;RP1=0, select bank0
  2216  0AAB  00B4               	movwf	sprintf@sp
  2217  0AAC                     l2762:	
  2218                           
  2219                           ;C:\Program Files (x86)\Microchip\xc8\v2.10\pic\sources\c90\common\doprnt.c: 505: sprint
      +                          f(char * sp, const char * f, ...);C:\Program Files (x86)\Microchip\xc8\v2.10\pic\sources
      +                          \c90\common\doprnt.c: 506: {;C:\Program Files (x86)\Microchip\xc8\v2.10\pic\sources\c90\
      +                          common\doprnt.c: 507:  va_list ap;;C:\Program Files (x86)\Microchip\xc8\v2.10\pic\source
      +                          s\c90\common\doprnt.c: 512:  char c;;C:\Program Files (x86)\Microchip\xc8\v2.10\pic\sour
      +                          ces\c90\common\doprnt.c: 521:  signed char prec;;C:\Program Files (x86)\Microchip\xc8\v2
      +                          .10\pic\sources\c90\common\doprnt.c: 525:  unsigned char flag;
  2220  0AAC  302A               	movlw	(low ((?_sprintf| 0+1)))& (0+255)
  2221  0AAD  00AC               	movwf	??_sprintf
  2222  0AAE  082C               	movf	??_sprintf,w
  2223  0AAF  00AF               	movwf	sprintf@ap
  2224                           
  2225                           ;C:\Program Files (x86)\Microchip\xc8\v2.10\pic\sources\c90\common\doprnt.c: 553:  while
      +                          ((c = *f++)) {
  2226  0AB0  2B7C               	goto	l2814
  2227  0AB1                     l2764:	
  2228                           
  2229                           ;C:\Program Files (x86)\Microchip\xc8\v2.10\pic\sources\c90\common\doprnt.c: 555:   if(c
      +                           != '%')
  2230  0AB1  3025               	movlw	37
  2231  0AB2  0635               	xorwf	sprintf@c,w
  2232  0AB3  1903               	btfsc	3,2
  2233  0AB4  2AB6               	goto	u3671
  2234  0AB5  2AB7               	goto	u3670
  2235  0AB6                     u3671:	
  2236  0AB6  2AC3               	goto	l2770
  2237  0AB7                     u3670:	
  2238  0AB7                     l2766:	
  2239                           
  2240                           ;C:\Program Files (x86)\Microchip\xc8\v2.10\pic\sources\c90\common\doprnt.c: 557:   {;C:
      +                          \Program Files (x86)\Microchip\xc8\v2.10\pic\sources\c90\common\doprnt.c: 558:    ((*sp+
      +                          + = (c)));
  2241  0AB7  0835               	movf	sprintf@c,w
  2242  0AB8  00AC               	movwf	??_sprintf
  2243  0AB9  0834               	movf	sprintf@sp,w
  2244  0ABA  0084               	movwf	4
  2245  0ABB  082C               	movf	??_sprintf,w
  2246  0ABC  1383               	bcf	3,7	;select IRP bank0
  2247  0ABD  0080               	movwf	0
  2248  0ABE                     l2768:	
  2249  0ABE  3001               	movlw	1
  2250  0ABF  00AC               	movwf	??_sprintf
  2251  0AC0  082C               	movf	??_sprintf,w
  2252  0AC1  07B4               	addwf	sprintf@sp,f
  2253                           
  2254                           ;C:\Program Files (x86)\Microchip\xc8\v2.10\pic\sources\c90\common\doprnt.c: 559:    con
      +                          tinue;
  2255  0AC2  2B7C               	goto	l2814
  2256  0AC3                     l2770:	
  2257                           
  2258                           ;C:\Program Files (x86)\Microchip\xc8\v2.10\pic\sources\c90\common\doprnt.c: 565:   flag
      +                           = 0;
  2259  0AC3  01B0               	clrf	sprintf@flag
  2260  0AC4                     l2774:	
  2261                           ;C:\Program Files (x86)\Microchip\xc8\v2.10\pic\sources\c90\common\doprnt.c: 661:   swit
      +                          ch(c = *f++) {
  2262                           
  2263  0AC4  3001               	movlw	1
  2264  0AC5  07A9               	addwf	sprintf@f,f
  2265  0AC6  30FF               	movlw	-1
  2266  0AC7  0729               	addwf	sprintf@f,w
  2267  0AC8  0084               	movwf	4
  2268  0AC9  160A  118A  200A  120A  158A  	fcall	stringdir
  2269  0ACE  00B5               	movwf	sprintf@c
  2270  0ACF  00AC               	movwf	??_sprintf
  2271  0AD0  01AD               	clrf	??_sprintf+1
  2272                           
  2273                           ; Switch on 2 bytes has been partitioned into a top level switch of size 1, and 1 sub-sw
      +                          itches
  2274                           ; Switch size 1, requested type "simple"
  2275                           ; Number of cases is 1, Range of values is 0 to 0
  2276                           ; switch strategies available:
  2277                           ; Name         Instructions Cycles
  2278                           ; simple_byte            4     3 (average)
  2279                           ; direct_byte           11     8 (fixed)
  2280                           ; jumptable            260     6 (fixed)
  2281                           ;	Chosen strategy is simple_byte
  2282  0AD1  082D               	movf	??_sprintf+1,w
  2283  0AD2  3A00               	xorlw	0	; case 0
  2284  0AD3  1903               	skipnz
  2285  0AD4  2AD6               	goto	l3272
  2286  0AD5  2B7C               	goto	l2814
  2287  0AD6                     l3272:	
  2288                           
  2289                           ; Switch size 1, requested type "simple"
  2290                           ; Number of cases is 3, Range of values is 0 to 105
  2291                           ; switch strategies available:
  2292                           ; Name         Instructions Cycles
  2293                           ; simple_byte           10     6 (average)
  2294                           ; jumptable            260     6 (fixed)
  2295                           ;	Chosen strategy is simple_byte
  2296  0AD6  082C               	movf	??_sprintf,w
  2297  0AD7  3A00               	xorlw	0	; case 0
  2298  0AD8  1903               	skipnz
  2299  0AD9  2B8E               	goto	l2816
  2300  0ADA  3A64               	xorlw	100	; case 100
  2301  0ADB  1903               	skipnz
  2302  0ADC  2AE1               	goto	l2776
  2303  0ADD  3A0D               	xorlw	13	; case 105
  2304  0ADE  1903               	skipnz
  2305  0ADF  2AE1               	goto	l2776
  2306  0AE0  2B7C               	goto	l2814
  2307  0AE1                     l2776:	
  2308                           
  2309                           ;C:\Program Files (x86)\Microchip\xc8\v2.10\pic\sources\c90\common\doprnt.c: 1279:   {;C
      +                          :\Program Files (x86)\Microchip\xc8\v2.10\pic\sources\c90\common\doprnt.c: 1285:     val
      +                           = (unsigned int)(*(int *)__va_arg((*(int **)ap), (int)0));
  2310  0AE1  082F               	movf	sprintf@ap,w
  2311  0AE2  0084               	movwf	4
  2312  0AE3  1383               	bcf	3,7	;select IRP bank0
  2313  0AE4  0800               	movf	0,w
  2314  0AE5  00B2               	movwf	sprintf@val
  2315  0AE6  0A84               	incf	4,f
  2316  0AE7  0800               	movf	0,w
  2317  0AE8  00B3               	movwf	sprintf@val+1
  2318  0AE9                     l2778:	
  2319  0AE9  3002               	movlw	2
  2320  0AEA  00AC               	movwf	??_sprintf
  2321  0AEB  082C               	movf	??_sprintf,w
  2322  0AEC  07AF               	addwf	sprintf@ap,f
  2323  0AED                     l2780:	
  2324                           
  2325                           ;C:\Program Files (x86)\Microchip\xc8\v2.10\pic\sources\c90\common\doprnt.c: 1287:    if
      +                          ((int)val < 0) {
  2326  0AED  1FB3               	btfss	sprintf@val+1,7
  2327  0AEE  2AF0               	goto	u3681
  2328  0AEF  2AF1               	goto	u3680
  2329  0AF0                     u3681:	
  2330  0AF0  2AFA               	goto	l2786
  2331  0AF1                     u3680:	
  2332  0AF1                     l2782:	
  2333                           
  2334                           ;C:\Program Files (x86)\Microchip\xc8\v2.10\pic\sources\c90\common\doprnt.c: 1288:     f
      +                          lag |= 0x03;
  2335  0AF1  3003               	movlw	3
  2336  0AF2  00AC               	movwf	??_sprintf
  2337  0AF3  082C               	movf	??_sprintf,w
  2338  0AF4  04B0               	iorwf	sprintf@flag,f
  2339  0AF5                     l2784:	
  2340                           
  2341                           ;C:\Program Files (x86)\Microchip\xc8\v2.10\pic\sources\c90\common\doprnt.c: 1289:     v
      +                          al = -val;
  2342  0AF5  09B2               	comf	sprintf@val,f
  2343  0AF6  09B3               	comf	sprintf@val+1,f
  2344  0AF7  0AB2               	incf	sprintf@val,f
  2345  0AF8  1903               	skipnz
  2346  0AF9  0AB3               	incf	sprintf@val+1,f
  2347  0AFA                     l2786:	
  2348                           
  2349                           ;C:\Program Files (x86)\Microchip\xc8\v2.10\pic\sources\c90\common\doprnt.c: 1292:   };C
      +                          :\Program Files (x86)\Microchip\xc8\v2.10\pic\sources\c90\common\doprnt.c: 1331:    for(
      +                          c = 1 ; c != sizeof dpowers/sizeof dpowers[0] ; c++)
  2350  0AFA  01B5               	clrf	sprintf@c
  2351  0AFB  0AB5               	incf	sprintf@c,f
  2352  0AFC                     l2792:	
  2353                           
  2354                           ;C:\Program Files (x86)\Microchip\xc8\v2.10\pic\sources\c90\common\doprnt.c: 1332:     i
      +                          f(val < dpowers[c])
  2355  0AFC  0835               	movf	sprintf@c,w
  2356  0AFD  00AC               	movwf	??_sprintf
  2357  0AFE  072C               	addwf	??_sprintf,w
  2358  0AFF  3E01               	addlw	low ((_dpowers-__stringbase)| (0+32768))
  2359  0B00  0084               	movwf	4
  2360  0B01  160A  118A  200A  120A  158A  	fcall	stringdir
  2361  0B06  00AD               	movwf	??_sprintf+1
  2362  0B07  160A  118A  200A  120A  158A  	fcall	stringdir
  2363  0B0C  00AE               	movwf	??_sprintf+2
  2364  0B0D  082E               	movf	??_sprintf+2,w
  2365  0B0E  0233               	subwf	sprintf@val+1,w
  2366  0B0F  1D03               	skipz
  2367  0B10  2B13               	goto	u3695
  2368  0B11  082D               	movf	??_sprintf+1,w
  2369  0B12  0232               	subwf	sprintf@val,w
  2370  0B13                     u3695:	
  2371  0B13  1803               	skipnc
  2372  0B14  2B16               	goto	u3691
  2373  0B15  2B17               	goto	u3690
  2374  0B16                     u3691:	
  2375  0B16  2B18               	goto	l2796
  2376  0B17                     u3690:	
  2377  0B17  2B22               	goto	l2798
  2378  0B18                     l2796:	
  2379  0B18  3001               	movlw	1
  2380  0B19  00AC               	movwf	??_sprintf
  2381  0B1A  082C               	movf	??_sprintf,w
  2382  0B1B  07B5               	addwf	sprintf@c,f
  2383  0B1C  3005               	movlw	5
  2384  0B1D  0635               	xorwf	sprintf@c,w
  2385  0B1E  1D03               	btfss	3,2
  2386  0B1F  2B21               	goto	u3701
  2387  0B20  2B22               	goto	u3700
  2388  0B21                     u3701:	
  2389  0B21  2AFC               	goto	l2792
  2390  0B22                     u3700:	
  2391  0B22                     l2798:	
  2392                           
  2393                           ;C:\Program Files (x86)\Microchip\xc8\v2.10\pic\sources\c90\common\doprnt.c: 1448:   {;C
      +                          :\Program Files (x86)\Microchip\xc8\v2.10\pic\sources\c90\common\doprnt.c: 1464:    if(f
      +                          lag & 0x03)
  2394  0B22  0830               	movf	sprintf@flag,w
  2395  0B23  3903               	andlw	3
  2396  0B24  1903               	btfsc	3,2
  2397  0B25  2B27               	goto	u3711
  2398  0B26  2B28               	goto	u3710
  2399  0B27                     u3711:	
  2400  0B27  2B33               	goto	l2804
  2401  0B28                     u3710:	
  2402  0B28                     l2800:	
  2403                           
  2404                           ;C:\Program Files (x86)\Microchip\xc8\v2.10\pic\sources\c90\common\doprnt.c: 1465:     (
      +                          (*sp++ = ('-')));
  2405  0B28  302D               	movlw	45
  2406  0B29  00AC               	movwf	??_sprintf
  2407  0B2A  0834               	movf	sprintf@sp,w
  2408  0B2B  0084               	movwf	4
  2409  0B2C  082C               	movf	??_sprintf,w
  2410  0B2D  1383               	bcf	3,7	;select IRP bank0
  2411  0B2E  0080               	movwf	0
  2412  0B2F                     l2802:	
  2413  0B2F  3001               	movlw	1
  2414  0B30  00AC               	movwf	??_sprintf
  2415  0B31  082C               	movf	??_sprintf,w
  2416  0B32  07B4               	addwf	sprintf@sp,f
  2417  0B33                     l2804:	
  2418                           
  2419                           ;C:\Program Files (x86)\Microchip\xc8\v2.10\pic\sources\c90\common\doprnt.c: 1495:   };C
      +                          :\Program Files (x86)\Microchip\xc8\v2.10\pic\sources\c90\common\doprnt.c: 1498:   prec 
      +                          = c;
  2420  0B33  0835               	movf	sprintf@c,w
  2421  0B34  00AC               	movwf	??_sprintf
  2422  0B35  082C               	movf	??_sprintf,w
  2423  0B36  00B1               	movwf	sprintf@prec
  2424                           
  2425                           ;C:\Program Files (x86)\Microchip\xc8\v2.10\pic\sources\c90\common\doprnt.c: 1500:   whi
      +                          le(prec--) {
  2426  0B37  2B73               	goto	l2812
  2427  0B38                     l2806:	
  2428                           
  2429                           ;C:\Program Files (x86)\Microchip\xc8\v2.10\pic\sources\c90\common\doprnt.c: 1504:    {;
      +                          C:\Program Files (x86)\Microchip\xc8\v2.10\pic\sources\c90\common\doprnt.c: 1515:     c 
      +                          = (val / dpowers[(unsigned char)prec]) % 10 + '0';
  2430  0B38  300A               	movlw	10
  2431  0B39  00A3               	movwf	___lwmod@divisor
  2432  0B3A  3000               	movlw	0
  2433  0B3B  00A4               	movwf	___lwmod@divisor+1
  2434  0B3C  0831               	movf	sprintf@prec,w
  2435  0B3D  00AC               	movwf	??_sprintf
  2436  0B3E  072C               	addwf	??_sprintf,w
  2437  0B3F  3E01               	addlw	low ((_dpowers-__stringbase)| (0+32768))
  2438  0B40  0084               	movwf	4
  2439  0B41  160A  118A  200A  120A  158A  	fcall	stringdir
  2440  0B46  00F3               	movwf	___lwdiv@divisor
  2441  0B47  160A  118A  200A  120A  158A  	fcall	stringdir
  2442  0B4C  00F4               	movwf	___lwdiv@divisor+1
  2443  0B4D  0833               	movf	sprintf@val+1,w
  2444  0B4E  00F6               	movwf	___lwdiv@dividend+1
  2445  0B4F  0832               	movf	sprintf@val,w
  2446  0B50  00F5               	movwf	___lwdiv@dividend
  2447  0B51  120A  158A  20DC  120A  158A  	fcall	___lwdiv
  2448  0B56  0874               	movf	?___lwdiv+1,w
  2449  0B57  1283               	bcf	3,5	;RP0=0, select bank0
  2450  0B58  1303               	bcf	3,6	;RP1=0, select bank0
  2451  0B59  00A6               	movwf	___lwmod@dividend+1
  2452  0B5A  0873               	movf	?___lwdiv,w
  2453  0B5B  00A5               	movwf	___lwmod@dividend
  2454  0B5C  120A  158A  2017  120A  158A  	fcall	___lwmod
  2455  0B61  1283               	bcf	3,5	;RP0=0, select bank0
  2456  0B62  1303               	bcf	3,6	;RP1=0, select bank0
  2457  0B63  0823               	movf	?___lwmod,w
  2458  0B64  3E30               	addlw	48
  2459  0B65  00AD               	movwf	??_sprintf+1
  2460  0B66  082D               	movf	??_sprintf+1,w
  2461  0B67  00B5               	movwf	sprintf@c
  2462  0B68                     l2808:	
  2463                           
  2464                           ;C:\Program Files (x86)\Microchip\xc8\v2.10\pic\sources\c90\common\doprnt.c: 1549:    };
      +                          C:\Program Files (x86)\Microchip\xc8\v2.10\pic\sources\c90\common\doprnt.c: 1550:    ((*
      +                          sp++ = (c)));
  2465  0B68  0835               	movf	sprintf@c,w
  2466  0B69  00AC               	movwf	??_sprintf
  2467  0B6A  0834               	movf	sprintf@sp,w
  2468  0B6B  0084               	movwf	4
  2469  0B6C  082C               	movf	??_sprintf,w
  2470  0B6D  1383               	bcf	3,7	;select IRP bank0
  2471  0B6E  0080               	movwf	0
  2472  0B6F                     l2810:	
  2473  0B6F  3001               	movlw	1
  2474  0B70  00AC               	movwf	??_sprintf
  2475  0B71  082C               	movf	??_sprintf,w
  2476  0B72  07B4               	addwf	sprintf@sp,f
  2477  0B73                     l2812:	
  2478                           
  2479                           ;C:\Program Files (x86)\Microchip\xc8\v2.10\pic\sources\c90\common\doprnt.c: 1500:   whi
      +                          le(prec--) {
  2480  0B73  30FF               	movlw	255
  2481  0B74  00AC               	movwf	??_sprintf
  2482  0B75  082C               	movf	??_sprintf,w
  2483  0B76  07B1               	addwf	sprintf@prec,f
  2484  0B77  0A31               	incf	sprintf@prec,w
  2485  0B78  1D03               	btfss	3,2
  2486  0B79  2B7B               	goto	u3721
  2487  0B7A  2B7C               	goto	u3720
  2488  0B7B                     u3721:	
  2489  0B7B  2B38               	goto	l2806
  2490  0B7C                     u3720:	
  2491  0B7C                     l2814:	
  2492                           
  2493                           ;C:\Program Files (x86)\Microchip\xc8\v2.10\pic\sources\c90\common\doprnt.c: 553:  while
      +                          ((c = *f++)) {
  2494  0B7C  3001               	movlw	1
  2495  0B7D  07A9               	addwf	sprintf@f,f
  2496  0B7E  30FF               	movlw	-1
  2497  0B7F  0729               	addwf	sprintf@f,w
  2498  0B80  0084               	movwf	4
  2499  0B81  160A  118A  200A  120A  158A  	fcall	stringdir
  2500  0B86  00AC               	movwf	??_sprintf
  2501  0B87  082C               	movf	??_sprintf,w
  2502  0B88  00B5               	movwf	sprintf@c
  2503  0B89  0835               	movf	sprintf@c,w
  2504  0B8A  1D03               	btfss	3,2
  2505  0B8B  2B8D               	goto	u3731
  2506  0B8C  2B8E               	goto	u3730
  2507  0B8D                     u3731:	
  2508  0B8D  2AB1               	goto	l2764
  2509  0B8E                     u3730:	
  2510  0B8E                     l2816:	
  2511                           
  2512                           ;C:\Program Files (x86)\Microchip\xc8\v2.10\pic\sources\c90\common\doprnt.c: 1564:  *sp 
      +                          = 0;
  2513  0B8E  0834               	movf	sprintf@sp,w
  2514  0B8F  0084               	movwf	4
  2515  0B90  1383               	bcf	3,7	;select IRP bank0
  2516  0B91  0180               	clrf	0
  2517  0B92                     l302:	
  2518  0B92  0008               	return
  2519  0B93                     __end_of_sprintf:	
  2520                           
  2521                           	psect	text4
  2522  0817                     __ptext4:	
  2523 ;; *************** function ___lwmod *****************
  2524 ;; Defined at:
  2525 ;;		line 5 in file "C:\Program Files (x86)\Microchip\xc8\v2.10\pic\sources\c90\common\lwmod.c"
  2526 ;; Parameters:    Size  Location     Type
  2527 ;;  divisor         2    3[BANK0 ] unsigned int 
  2528 ;;  dividend        2    5[BANK0 ] unsigned int 
  2529 ;; Auto vars:     Size  Location     Type
  2530 ;;  counter         1    8[BANK0 ] unsigned char 
  2531 ;; Return value:  Size  Location     Type
  2532 ;;                  2    3[BANK0 ] unsigned int 
  2533 ;; Registers used:
  2534 ;;		wreg, status,2, status,0
  2535 ;; Tracked objects:
  2536 ;;		On entry : 0/0
  2537 ;;		On exit  : 0/0
  2538 ;;		Unchanged: 0/0
  2539 ;; Data sizes:     COMMON   BANK0   BANK1   BANK3   BANK2
  2540 ;;      Params:         0       4       0       0       0
  2541 ;;      Locals:         0       1       0       0       0
  2542 ;;      Temps:          0       1       0       0       0
  2543 ;;      Totals:         0       6       0       0       0
  2544 ;;Total ram usage:        6 bytes
  2545 ;; Hardware stack levels used:    1
  2546 ;; Hardware stack levels required when called:    1
  2547 ;; This function calls:
  2548 ;;		Nothing
  2549 ;; This function is called by:
  2550 ;;		_sprintf
  2551 ;; This function uses a non-reentrant model
  2552 ;;
  2553                           
  2554                           
  2555                           ;psect for function ___lwmod
  2556  0817                     ___lwmod:	
  2557  0817                     l1804:	
  2558                           ;incstack = 0
  2559                           ; Regs used in ___lwmod: [wreg+status,2+status,0]
  2560                           
  2561  0817  1283               	bcf	3,5	;RP0=0, select bank0
  2562  0818  1303               	bcf	3,6	;RP1=0, select bank0
  2563  0819  0823               	movf	___lwmod@divisor,w
  2564  081A  0424               	iorwf	___lwmod@divisor+1,w
  2565  081B  1903               	btfsc	3,2
  2566  081C  281E               	goto	u1861
  2567  081D  281F               	goto	u1860
  2568  081E                     u1861:	
  2569  081E  284E               	goto	l1822
  2570  081F                     u1860:	
  2571  081F                     l1806:	
  2572  081F  01A8               	clrf	___lwmod@counter
  2573  0820  0AA8               	incf	___lwmod@counter,f
  2574  0821  282D               	goto	l1812
  2575  0822                     l1808:	
  2576  0822  3001               	movlw	1
  2577  0823                     u1875:	
  2578  0823  1003               	clrc
  2579  0824  0DA3               	rlf	___lwmod@divisor,f
  2580  0825  0DA4               	rlf	___lwmod@divisor+1,f
  2581  0826  3EFF               	addlw	-1
  2582  0827  1D03               	skipz
  2583  0828  2823               	goto	u1875
  2584  0829                     l1810:	
  2585  0829  3001               	movlw	1
  2586  082A  00A7               	movwf	??___lwmod
  2587  082B  0827               	movf	??___lwmod,w
  2588  082C  07A8               	addwf	___lwmod@counter,f
  2589  082D                     l1812:	
  2590  082D  1FA4               	btfss	___lwmod@divisor+1,7
  2591  082E  2830               	goto	u1881
  2592  082F  2831               	goto	u1880
  2593  0830                     u1881:	
  2594  0830  2822               	goto	l1808
  2595  0831                     u1880:	
  2596  0831                     l1814:	
  2597  0831  0824               	movf	___lwmod@divisor+1,w
  2598  0832  0226               	subwf	___lwmod@dividend+1,w
  2599  0833  1D03               	skipz
  2600  0834  2837               	goto	u1895
  2601  0835  0823               	movf	___lwmod@divisor,w
  2602  0836  0225               	subwf	___lwmod@dividend,w
  2603  0837                     u1895:	
  2604  0837  1C03               	skipc
  2605  0838  283A               	goto	u1891
  2606  0839  283B               	goto	u1890
  2607  083A                     u1891:	
  2608  083A  2841               	goto	l1818
  2609  083B                     u1890:	
  2610  083B                     l1816:	
  2611  083B  0823               	movf	___lwmod@divisor,w
  2612  083C  02A5               	subwf	___lwmod@dividend,f
  2613  083D  0824               	movf	___lwmod@divisor+1,w
  2614  083E  1C03               	skipc
  2615  083F  03A6               	decf	___lwmod@dividend+1,f
  2616  0840  02A6               	subwf	___lwmod@dividend+1,f
  2617  0841                     l1818:	
  2618  0841  3001               	movlw	1
  2619  0842                     u1905:	
  2620  0842  1003               	clrc
  2621  0843  0CA4               	rrf	___lwmod@divisor+1,f
  2622  0844  0CA3               	rrf	___lwmod@divisor,f
  2623  0845  3EFF               	addlw	-1
  2624  0846  1D03               	skipz
  2625  0847  2842               	goto	u1905
  2626  0848                     l1820:	
  2627  0848  3001               	movlw	1
  2628  0849  02A8               	subwf	___lwmod@counter,f
  2629  084A  1D03               	btfss	3,2
  2630  084B  284D               	goto	u1911
  2631  084C  284E               	goto	u1910
  2632  084D                     u1911:	
  2633  084D  2831               	goto	l1814
  2634  084E                     u1910:	
  2635  084E                     l1822:	
  2636  084E  0826               	movf	___lwmod@dividend+1,w
  2637  084F  00A4               	movwf	?___lwmod+1
  2638  0850  0825               	movf	___lwmod@dividend,w
  2639  0851  00A3               	movwf	?___lwmod
  2640  0852                     l588:	
  2641  0852  0008               	return
  2642  0853                     __end_of___lwmod:	
  2643                           
  2644                           	psect	text5
  2645  08DC                     __ptext5:	
  2646 ;; *************** function ___lwdiv *****************
  2647 ;; Defined at:
  2648 ;;		line 5 in file "C:\Program Files (x86)\Microchip\xc8\v2.10\pic\sources\c90\common\lwdiv.c"
  2649 ;; Parameters:    Size  Location     Type
  2650 ;;  divisor         2    3[COMMON] unsigned int 
  2651 ;;  dividend        2    5[COMMON] unsigned int 
  2652 ;; Auto vars:     Size  Location     Type
  2653 ;;  quotient        2    1[BANK0 ] unsigned int 
  2654 ;;  counter         1    0[BANK0 ] unsigned char 
  2655 ;; Return value:  Size  Location     Type
  2656 ;;                  2    3[COMMON] unsigned int 
  2657 ;; Registers used:
  2658 ;;		wreg, status,2, status,0
  2659 ;; Tracked objects:
  2660 ;;		On entry : 0/0
  2661 ;;		On exit  : 0/0
  2662 ;;		Unchanged: 0/0
  2663 ;; Data sizes:     COMMON   BANK0   BANK1   BANK3   BANK2
  2664 ;;      Params:         4       0       0       0       0
  2665 ;;      Locals:         0       3       0       0       0
  2666 ;;      Temps:          1       0       0       0       0
  2667 ;;      Totals:         5       3       0       0       0
  2668 ;;Total ram usage:        8 bytes
  2669 ;; Hardware stack levels used:    1
  2670 ;; Hardware stack levels required when called:    1
  2671 ;; This function calls:
  2672 ;;		Nothing
  2673 ;; This function is called by:
  2674 ;;		_sprintf
  2675 ;; This function uses a non-reentrant model
  2676 ;;
  2677                           
  2678                           
  2679                           ;psect for function ___lwdiv
  2680  08DC                     ___lwdiv:	
  2681  08DC                     l2728:	
  2682                           ;incstack = 0
  2683                           ; Regs used in ___lwdiv: [wreg+status,2+status,0]
  2684                           
  2685  08DC  1283               	bcf	3,5	;RP0=0, select bank0
  2686  08DD  1303               	bcf	3,6	;RP1=0, select bank0
  2687  08DE  01A1               	clrf	___lwdiv@quotient
  2688  08DF  01A2               	clrf	___lwdiv@quotient+1
  2689  08E0                     l2730:	
  2690  08E0  0873               	movf	___lwdiv@divisor,w
  2691  08E1  0474               	iorwf	___lwdiv@divisor+1,w
  2692  08E2  1903               	btfsc	3,2
  2693  08E3  28E5               	goto	u3571
  2694  08E4  28E6               	goto	u3570
  2695  08E5                     u3571:	
  2696  08E5  291D               	goto	l2750
  2697  08E6                     u3570:	
  2698  08E6                     l2732:	
  2699  08E6  01A0               	clrf	___lwdiv@counter
  2700  08E7  0AA0               	incf	___lwdiv@counter,f
  2701  08E8  28F4               	goto	l2738
  2702  08E9                     l2734:	
  2703  08E9  3001               	movlw	1
  2704  08EA                     u3585:	
  2705  08EA  1003               	clrc
  2706  08EB  0DF3               	rlf	___lwdiv@divisor,f
  2707  08EC  0DF4               	rlf	___lwdiv@divisor+1,f
  2708  08ED  3EFF               	addlw	-1
  2709  08EE  1D03               	skipz
  2710  08EF  28EA               	goto	u3585
  2711  08F0                     l2736:	
  2712  08F0  3001               	movlw	1
  2713  08F1  00F7               	movwf	??___lwdiv
  2714  08F2  0877               	movf	??___lwdiv,w
  2715  08F3  07A0               	addwf	___lwdiv@counter,f
  2716  08F4                     l2738:	
  2717  08F4  1FF4               	btfss	___lwdiv@divisor+1,7
  2718  08F5  28F7               	goto	u3591
  2719  08F6  28F8               	goto	u3590
  2720  08F7                     u3591:	
  2721  08F7  28E9               	goto	l2734
  2722  08F8                     u3590:	
  2723  08F8                     l2740:	
  2724  08F8  3001               	movlw	1
  2725  08F9                     u3605:	
  2726  08F9  1003               	clrc
  2727  08FA  0DA1               	rlf	___lwdiv@quotient,f
  2728  08FB  0DA2               	rlf	___lwdiv@quotient+1,f
  2729  08FC  3EFF               	addlw	-1
  2730  08FD  1D03               	skipz
  2731  08FE  28F9               	goto	u3605
  2732  08FF  0874               	movf	___lwdiv@divisor+1,w
  2733  0900  0276               	subwf	___lwdiv@dividend+1,w
  2734  0901  1D03               	skipz
  2735  0902  2905               	goto	u3615
  2736  0903  0873               	movf	___lwdiv@divisor,w
  2737  0904  0275               	subwf	___lwdiv@dividend,w
  2738  0905                     u3615:	
  2739  0905  1C03               	skipc
  2740  0906  2908               	goto	u3611
  2741  0907  2909               	goto	u3610
  2742  0908                     u3611:	
  2743  0908  2910               	goto	l2746
  2744  0909                     u3610:	
  2745  0909                     l2742:	
  2746  0909  0873               	movf	___lwdiv@divisor,w
  2747  090A  02F5               	subwf	___lwdiv@dividend,f
  2748  090B  0874               	movf	___lwdiv@divisor+1,w
  2749  090C  1C03               	skipc
  2750  090D  03F6               	decf	___lwdiv@dividend+1,f
  2751  090E  02F6               	subwf	___lwdiv@dividend+1,f
  2752  090F                     l2744:	
  2753  090F  1421               	bsf	___lwdiv@quotient,0
  2754  0910                     l2746:	
  2755  0910  3001               	movlw	1
  2756  0911                     u3625:	
  2757  0911  1003               	clrc
  2758  0912  0CF4               	rrf	___lwdiv@divisor+1,f
  2759  0913  0CF3               	rrf	___lwdiv@divisor,f
  2760  0914  3EFF               	addlw	-1
  2761  0915  1D03               	skipz
  2762  0916  2911               	goto	u3625
  2763  0917                     l2748:	
  2764  0917  3001               	movlw	1
  2765  0918  02A0               	subwf	___lwdiv@counter,f
  2766  0919  1D03               	btfss	3,2
  2767  091A  291C               	goto	u3631
  2768  091B  291D               	goto	u3630
  2769  091C                     u3631:	
  2770  091C  28F8               	goto	l2740
  2771  091D                     u3630:	
  2772  091D                     l2750:	
  2773  091D  0822               	movf	___lwdiv@quotient+1,w
  2774  091E  00F4               	movwf	?___lwdiv+1
  2775  091F  0821               	movf	___lwdiv@quotient,w
  2776  0920  00F3               	movwf	?___lwdiv
  2777  0921                     l578:	
  2778  0921  0008               	return
  2779  0922                     __end_of___lwdiv:	
  2780                           
  2781                           	psect	text6
  2782  0896                     __ptext6:	
  2783 ;; *************** function _lcd_write_string *****************
  2784 ;; Defined at:
  2785 ;;		line 59 in file "LCD_Init.c"
  2786 ;; Parameters:    Size  Location     Type
  2787 ;;  var             2    6[COMMON] PTR unsigned char 
  2788 ;;		 -> lcd_write_int@buffer(4), STR_9(2), STR_8(2), STR_7(2), 
  2789 ;;		 -> STR_6(2), STR_5(2), STR_4(2), STR_3(4), 
  2790 ;;		 -> STR_2(6), STR_1(6), 
  2791 ;; Auto vars:     Size  Location     Type
  2792 ;;  i               2    3[BANK0 ] int 
  2793 ;; Return value:  Size  Location     Type
  2794 ;;                  1    wreg      void 
  2795 ;; Registers used:
  2796 ;;		wreg, fsr0l, fsr0h, status,2, status,0, btemp+1, pclath, cstack
  2797 ;; Tracked objects:
  2798 ;;		On entry : 0/0
  2799 ;;		On exit  : 0/0
  2800 ;;		Unchanged: 0/0
  2801 ;; Data sizes:     COMMON   BANK0   BANK1   BANK3   BANK2
  2802 ;;      Params:         2       0       0       0       0
  2803 ;;      Locals:         0       2       0       0       0
  2804 ;;      Temps:          0       3       0       0       0
  2805 ;;      Totals:         2       5       0       0       0
  2806 ;;Total ram usage:        7 bytes
  2807 ;; Hardware stack levels used:    1
  2808 ;; Hardware stack levels required when called:    2
  2809 ;; This function calls:
  2810 ;;		_lcd_write_char
  2811 ;; This function is called by:
  2812 ;;		_main
  2813 ;;		_lcd_write_int
  2814 ;; This function uses a non-reentrant model
  2815 ;;
  2816                           
  2817                           
  2818                           ;psect for function _lcd_write_string
  2819  0896                     _lcd_write_string:	
  2820  0896                     l2754:	
  2821                           ;incstack = 0
  2822                           ; Regs used in _lcd_write_string: [wreg-fsr0h+status,2+status,0+btemp+1+pclath+cstack]
  2823                           
  2824                           
  2825                           ;LCD_Init.c: 60:     int i;;LCD_Init.c: 61:  for(i=0;var[i]!='\0';i++)
  2826  0896  1283               	bcf	3,5	;RP0=0, select bank0
  2827  0897  1303               	bcf	3,6	;RP1=0, select bank0
  2828  0898  01A3               	clrf	lcd_write_string@i
  2829  0899  01A4               	clrf	lcd_write_string@i+1
  2830  089A  28BF               	goto	l2760
  2831  089B                     l2756:	
  2832                           
  2833                           ;LCD_Init.c: 62:     lcd_write_char(var[i]);
  2834  089B  0823               	movf	lcd_write_string@i,w
  2835  089C  0776               	addwf	lcd_write_string@var,w
  2836  089D  00A1               	movwf	??_lcd_write_string+1
  2837  089E  0877               	movf	lcd_write_string@var+1,w
  2838  089F  00A0               	movwf	??_lcd_write_string
  2839  08A0  1803               	skipnc
  2840  08A1  0AA0               	incf	??_lcd_write_string,f
  2841  08A2  1FA3               	btfss	lcd_write_string@i,7
  2842  08A3  28A5               	goto	u3640
  2843  08A4  03A0               	decf	??_lcd_write_string,f
  2844  08A5                     u3640:	
  2845  08A5  1283               	bcf	3,5	;RP0=0, select bank0
  2846  08A6  1303               	bcf	3,6	;RP1=0, select bank0
  2847  08A7  0820               	movf	??_lcd_write_string,w
  2848  08A8  00A2               	movwf	??_lcd_write_string+2
  2849  08A9  0822               	movf	??_lcd_write_string+2,w
  2850  08AA  00FF               	movwf	btemp+1
  2851  08AB  0821               	movf	??_lcd_write_string+1,w
  2852  08AC  0084               	movwf	4
  2853  08AD  160A  118A  2000  120A  158A  	fcall	stringtab
  2854  08B2  120A  158A  2003  120A  158A  	fcall	_lcd_write_char
  2855  08B7                     l2758:	
  2856  08B7  3001               	movlw	1
  2857  08B8  1283               	bcf	3,5	;RP0=0, select bank0
  2858  08B9  1303               	bcf	3,6	;RP1=0, select bank0
  2859  08BA  07A3               	addwf	lcd_write_string@i,f
  2860  08BB  1803               	skipnc
  2861  08BC  0AA4               	incf	lcd_write_string@i+1,f
  2862  08BD  3000               	movlw	0
  2863  08BE  07A4               	addwf	lcd_write_string@i+1,f
  2864  08BF                     l2760:	
  2865  08BF  0823               	movf	lcd_write_string@i,w
  2866  08C0  0776               	addwf	lcd_write_string@var,w
  2867  08C1  00A1               	movwf	??_lcd_write_string+1
  2868  08C2  0877               	movf	lcd_write_string@var+1,w
  2869  08C3  00A0               	movwf	??_lcd_write_string
  2870  08C4  1803               	skipnc
  2871  08C5  0AA0               	incf	??_lcd_write_string,f
  2872  08C6  1FA3               	btfss	lcd_write_string@i,7
  2873  08C7  28C9               	goto	u3650
  2874  08C8  03A0               	decf	??_lcd_write_string,f
  2875  08C9                     u3650:	
  2876  08C9  1283               	bcf	3,5	;RP0=0, select bank0
  2877  08CA  1303               	bcf	3,6	;RP1=0, select bank0
  2878  08CB  0820               	movf	??_lcd_write_string,w
  2879  08CC  00A2               	movwf	??_lcd_write_string+2
  2880  08CD  0822               	movf	??_lcd_write_string+2,w
  2881  08CE  00FF               	movwf	btemp+1
  2882  08CF  0821               	movf	??_lcd_write_string+1,w
  2883  08D0  0084               	movwf	4
  2884  08D1  160A  118A  2000  120A  158A  	fcall	stringtab
  2885  08D6  3A00               	xorlw	0
  2886  08D7  1D03               	skipz
  2887  08D8  28DA               	goto	u3661
  2888  08D9  28DB               	goto	u3660
  2889  08DA                     u3661:	
  2890  08DA  289B               	goto	l2756
  2891  08DB                     u3660:	
  2892  08DB                     l126:	
  2893  08DB  0008               	return
  2894  08DC                     __end_of_lcd_write_string:	
  2895                           
  2896                           	psect	text7
  2897  0803                     __ptext7:	
  2898 ;; *************** function _lcd_write_char *****************
  2899 ;; Defined at:
  2900 ;;		line 51 in file "LCD_Init.c"
  2901 ;; Parameters:    Size  Location     Type
  2902 ;;  var             1    wreg     unsigned char 
  2903 ;; Auto vars:     Size  Location     Type
  2904 ;;  var             1    5[COMMON] unsigned char 
  2905 ;; Return value:  Size  Location     Type
  2906 ;;                  1    wreg      void 
  2907 ;; Registers used:
  2908 ;;		wreg
  2909 ;; Tracked objects:
  2910 ;;		On entry : 0/0
  2911 ;;		On exit  : 0/0
  2912 ;;		Unchanged: 0/0
  2913 ;; Data sizes:     COMMON   BANK0   BANK1   BANK3   BANK2
  2914 ;;      Params:         0       0       0       0       0
  2915 ;;      Locals:         1       0       0       0       0
  2916 ;;      Temps:          2       0       0       0       0
  2917 ;;      Totals:         3       0       0       0       0
  2918 ;;Total ram usage:        3 bytes
  2919 ;; Hardware stack levels used:    1
  2920 ;; Hardware stack levels required when called:    1
  2921 ;; This function calls:
  2922 ;;		Nothing
  2923 ;; This function is called by:
  2924 ;;		_main
  2925 ;;		_lcd_write_string
  2926 ;; This function uses a non-reentrant model
  2927 ;;
  2928                           
  2929                           
  2930                           ;psect for function _lcd_write_char
  2931  0803                     _lcd_write_char:	
  2932                           
  2933                           ;incstack = 0
  2934                           ; Regs used in _lcd_write_char: [wreg]
  2935                           ;lcd_write_char@var stored from wreg
  2936  0803  00F5               	movwf	lcd_write_char@var
  2937  0804                     l1770:	
  2938                           
  2939                           ;LCD_Init.c: 52:     PORTBbits.RB6 = 1;
  2940  0804  1283               	bcf	3,5	;RP0=0, select bank0
  2941  0805  1303               	bcf	3,6	;RP1=0, select bank0
  2942  0806  1706               	bsf	6,6	;volatile
  2943  0807                     l1772:	
  2944                           
  2945                           ;LCD_Init.c: 53:     PORTD = var;
  2946  0807  0875               	movf	lcd_write_char@var,w
  2947  0808  0088               	movwf	8	;volatile
  2948  0809                     l1774:	
  2949                           
  2950                           ;LCD_Init.c: 54:     PORTBbits.RB7 = 1;
  2951  0809  1786               	bsf	6,7	;volatile
  2952                           
  2953                           ;LCD_Init.c: 55:     _delay((unsigned long)((4)*(4000000/4000.0)));
  2954  080A  3006               	movlw	6
  2955  080B  00F4               	movwf	??_lcd_write_char+1
  2956  080C  3030               	movlw	48
  2957  080D  00F3               	movwf	??_lcd_write_char
  2958  080E                     u4537:	
  2959  080E  0BF3               	decfsz	??_lcd_write_char,f
  2960  080F  280E               	goto	u4537
  2961  0810  0BF4               	decfsz	??_lcd_write_char+1,f
  2962  0811  280E               	goto	u4537
  2963  0812  0000               	nop
  2964  0813                     l1776:	
  2965                           
  2966                           ;LCD_Init.c: 56:     PORTBbits.RB7 = 0;
  2967  0813  1283               	bcf	3,5	;RP0=0, select bank0
  2968  0814  1303               	bcf	3,6	;RP1=0, select bank0
  2969  0815  1386               	bcf	6,7	;volatile
  2970  0816                     l120:	
  2971  0816  0008               	return
  2972  0817                     __end_of_lcd_write_char:	
  2973                           
  2974                           	psect	text8
  2975  175E                     __ptext8:	
  2976 ;; *************** function _lcd_set_cursor *****************
  2977 ;; Defined at:
  2978 ;;		line 42 in file "LCD_Init.c"
  2979 ;; Parameters:    Size  Location     Type
  2980 ;;  posx            1    wreg     unsigned char 
  2981 ;;  posy            1    6[COMMON] unsigned char 
  2982 ;; Auto vars:     Size  Location     Type
  2983 ;;  posx            1    7[COMMON] unsigned char 
  2984 ;; Return value:  Size  Location     Type
  2985 ;;                  1    wreg      void 
  2986 ;; Registers used:
  2987 ;;		wreg, status,2, status,0, pclath, cstack
  2988 ;; Tracked objects:
  2989 ;;		On entry : 0/0
  2990 ;;		On exit  : 0/0
  2991 ;;		Unchanged: 0/0
  2992 ;; Data sizes:     COMMON   BANK0   BANK1   BANK3   BANK2
  2993 ;;      Params:         1       0       0       0       0
  2994 ;;      Locals:         1       0       0       0       0
  2995 ;;      Temps:          0       0       0       0       0
  2996 ;;      Totals:         2       0       0       0       0
  2997 ;;Total ram usage:        2 bytes
  2998 ;; Hardware stack levels used:    1
  2999 ;; Hardware stack levels required when called:    2
  3000 ;; This function calls:
  3001 ;;		_lcd_cmd
  3002 ;; This function is called by:
  3003 ;;		_main
  3004 ;; This function uses a non-reentrant model
  3005 ;;
  3006                           
  3007                           
  3008                           ;psect for function _lcd_set_cursor
  3009  175E                     _lcd_set_cursor:	
  3010                           
  3011                           ;incstack = 0
  3012                           ; Regs used in _lcd_set_cursor: [wreg+status,2+status,0+pclath+cstack]
  3013                           ;lcd_set_cursor@posx stored from wreg
  3014  175E  00F7               	movwf	lcd_set_cursor@posx
  3015  175F                     l2156:	
  3016                           
  3017                           ;LCD_Init.c: 43:     if(posy == 1){
  3018  175F  0376               	decf	lcd_set_cursor@posy,w
  3019  1760  1D03               	btfss	3,2
  3020  1761  2F63               	goto	u2551
  3021  1762  2F64               	goto	u2550
  3022  1763                     u2551:	
  3023  1763  2F6B               	goto	l2160
  3024  1764                     u2550:	
  3025  1764                     l2158:	
  3026                           
  3027                           ;LCD_Init.c: 44:         lcd_cmd (0x80 + posx - 1);
  3028  1764  0877               	movf	lcd_set_cursor@posx,w
  3029  1765  3E7F               	addlw	127
  3030  1766  160A  118A  274A  160A  118A  	fcall	_lcd_cmd
  3031  176B                     l2160:	
  3032                           
  3033                           ;LCD_Init.c: 46:     if(posy == 2){
  3034  176B  3002               	movlw	2
  3035  176C  0676               	xorwf	lcd_set_cursor@posy,w
  3036  176D  1D03               	btfss	3,2
  3037  176E  2F70               	goto	u2561
  3038  176F  2F71               	goto	u2560
  3039  1770                     u2561:	
  3040  1770  2F78               	goto	l117
  3041  1771                     u2560:	
  3042  1771                     l2162:	
  3043                           
  3044                           ;LCD_Init.c: 47:         lcd_cmd (0xC0 + posx - 1);
  3045  1771  0877               	movf	lcd_set_cursor@posx,w
  3046  1772  3EBF               	addlw	191
  3047  1773  160A  118A  274A  160A  118A  	fcall	_lcd_cmd
  3048  1778                     l117:	
  3049  1778  0008               	return
  3050  1779                     __end_of_lcd_set_cursor:	
  3051                           
  3052                           	psect	text9
  3053  1738                     __ptext9:	
  3054 ;; *************** function _lcd_clr *****************
  3055 ;; Defined at:
  3056 ;;		line 38 in file "LCD_Init.c"
  3057 ;; Parameters:    Size  Location     Type
  3058 ;;		None
  3059 ;; Auto vars:     Size  Location     Type
  3060 ;;		None
  3061 ;; Return value:  Size  Location     Type
  3062 ;;                  1    wreg      void 
  3063 ;; Registers used:
  3064 ;;		wreg, status,2, status,0, pclath, cstack
  3065 ;; Tracked objects:
  3066 ;;		On entry : 0/0
  3067 ;;		On exit  : 0/0
  3068 ;;		Unchanged: 0/0
  3069 ;; Data sizes:     COMMON   BANK0   BANK1   BANK3   BANK2
  3070 ;;      Params:         0       0       0       0       0
  3071 ;;      Locals:         0       0       0       0       0
  3072 ;;      Temps:          0       0       0       0       0
  3073 ;;      Totals:         0       0       0       0       0
  3074 ;;Total ram usage:        0 bytes
  3075 ;; Hardware stack levels used:    1
  3076 ;; Hardware stack levels required when called:    2
  3077 ;; This function calls:
  3078 ;;		_lcd_cmd
  3079 ;; This function is called by:
  3080 ;;		_main
  3081 ;; This function uses a non-reentrant model
  3082 ;;
  3083                           
  3084                           
  3085                           ;psect for function _lcd_clr
  3086  1738                     _lcd_clr:	
  3087  1738                     l2154:	
  3088                           ;incstack = 0
  3089                           ; Regs used in _lcd_clr: [wreg+status,2+status,0+pclath+cstack]
  3090                           
  3091                           
  3092                           ;LCD_Init.c: 39:     lcd_cmd(0x01);
  3093  1738  3001               	movlw	1
  3094  1739  160A  118A  274A  160A  118A  	fcall	_lcd_cmd
  3095  173E                     l112:	
  3096  173E  0008               	return
  3097  173F                     __end_of_lcd_clr:	
  3098                           
  3099                           	psect	text10
  3100  0853                     __ptext10:	
  3101 ;; *************** function _initSerial *****************
  3102 ;; Defined at:
  3103 ;;		line 7 in file "Serial_Init.c"
  3104 ;; Parameters:    Size  Location     Type
  3105 ;;  baudrate        2    3[COMMON] unsigned int 
  3106 ;; Auto vars:     Size  Location     Type
  3107 ;;		None
  3108 ;; Return value:  Size  Location     Type
  3109 ;;                  1    wreg      void 
  3110 ;; Registers used:
  3111 ;;		wreg, status,2, status,0
  3112 ;; Tracked objects:
  3113 ;;		On entry : 0/0
  3114 ;;		On exit  : 0/0
  3115 ;;		Unchanged: 0/0
  3116 ;; Data sizes:     COMMON   BANK0   BANK1   BANK3   BANK2
  3117 ;;      Params:         2       0       0       0       0
  3118 ;;      Locals:         0       0       0       0       0
  3119 ;;      Temps:          0       0       0       0       0
  3120 ;;      Totals:         2       0       0       0       0
  3121 ;;Total ram usage:        2 bytes
  3122 ;; Hardware stack levels used:    1
  3123 ;; Hardware stack levels required when called:    1
  3124 ;; This function calls:
  3125 ;;		Nothing
  3126 ;; This function is called by:
  3127 ;;		_main
  3128 ;; This function uses a non-reentrant model
  3129 ;;
  3130                           
  3131                           
  3132                           ;psect for function _initSerial
  3133  0853                     _initSerial:	
  3134  0853                     l2132:	
  3135                           ;incstack = 0
  3136                           ; Regs used in _initSerial: [wreg+status,2+status,0]
  3137                           
  3138                           
  3139                           ;Serial_Init.c: 8:     TRISC = 0x80;
  3140  0853  3080               	movlw	128
  3141  0854  1683               	bsf	3,5	;RP0=1, select bank1
  3142  0855  1303               	bcf	3,6	;RP1=0, select bank1
  3143  0856  0087               	movwf	7	;volatile
  3144  0857                     l2134:	
  3145                           
  3146                           ;Serial_Init.c: 19:     PIE1bits.RCIE = 0;
  3147  0857  128C               	bcf	12,5	;volatile
  3148                           
  3149                           ;Serial_Init.c: 21:     TXSTA=0b00100110;
  3150  0858  3026               	movlw	38
  3151  0859  0098               	movwf	24	;volatile
  3152                           
  3153                           ;Serial_Init.c: 23:     RCSTA=0b10010000;
  3154  085A  3090               	movlw	144
  3155  085B  1283               	bcf	3,5	;RP0=0, select bank0
  3156  085C  1303               	bcf	3,6	;RP1=0, select bank0
  3157  085D  0098               	movwf	24	;volatile
  3158  085E                     l2136:	
  3159                           
  3160                           ;Serial_Init.c: 25:     BAUDCTLbits.BRG16 = 1;
  3161  085E  1683               	bsf	3,5	;RP0=1, select bank3
  3162  085F  1703               	bsf	3,6	;RP1=1, select bank3
  3163  0860  1587               	bsf	7,3	;volatile
  3164  0861                     l2138:	
  3165                           
  3166                           ;Serial_Init.c: 27:     if(baudrate == 9600){
  3167  0861  3080               	movlw	128
  3168  0862  0673               	xorwf	initSerial@baudrate,w
  3169  0863  3025               	movlw	37
  3170  0864  1903               	skipnz
  3171  0865  0674               	xorwf	initSerial@baudrate+1,w
  3172  0866  1D03               	btfss	3,2
  3173  0867  2869               	goto	u2511
  3174  0868  286A               	goto	u2510
  3175  0869                     u2511:	
  3176  0869  286F               	goto	l2142
  3177  086A                     u2510:	
  3178  086A                     l2140:	
  3179                           
  3180                           ;Serial_Init.c: 28:         SPBRG = 103;
  3181  086A  3067               	movlw	103
  3182  086B  1683               	bsf	3,5	;RP0=1, select bank1
  3183  086C  1303               	bcf	3,6	;RP1=0, select bank1
  3184  086D  0099               	movwf	25	;volatile
  3185                           
  3186                           ;Serial_Init.c: 29:     } else if (baudrate == 10417){
  3187  086E  2895               	goto	l186
  3188  086F                     l2142:	
  3189  086F  30B1               	movlw	177
  3190  0870  0673               	xorwf	initSerial@baudrate,w
  3191  0871  3028               	movlw	40
  3192  0872  1903               	skipnz
  3193  0873  0674               	xorwf	initSerial@baudrate+1,w
  3194  0874  1D03               	btfss	3,2
  3195  0875  2877               	goto	u2521
  3196  0876  2878               	goto	u2520
  3197  0877                     u2521:	
  3198  0877  287D               	goto	l2146
  3199  0878                     u2520:	
  3200  0878                     l2144:	
  3201                           
  3202                           ;Serial_Init.c: 30:         SPBRG = 95;
  3203  0878  305F               	movlw	95
  3204  0879  1683               	bsf	3,5	;RP0=1, select bank1
  3205  087A  1303               	bcf	3,6	;RP1=0, select bank1
  3206  087B  0099               	movwf	25	;volatile
  3207                           
  3208                           ;Serial_Init.c: 31:     } else if (baudrate == 19200){
  3209  087C  2895               	goto	l186
  3210  087D                     l2146:	
  3211  087D  304B               	movlw	75
  3212  087E  0674               	xorwf	initSerial@baudrate+1,w
  3213  087F  0473               	iorwf	initSerial@baudrate,w
  3214  0880  1D03               	btfss	3,2
  3215  0881  2883               	goto	u2531
  3216  0882  2884               	goto	u2530
  3217  0883                     u2531:	
  3218  0883  2889               	goto	l2150
  3219  0884                     u2530:	
  3220  0884                     l2148:	
  3221                           
  3222                           ;Serial_Init.c: 32:         SPBRG = 51;
  3223  0884  3033               	movlw	51
  3224  0885  1683               	bsf	3,5	;RP0=1, select bank1
  3225  0886  1303               	bcf	3,6	;RP1=0, select bank1
  3226  0887  0099               	movwf	25	;volatile
  3227                           
  3228                           ;Serial_Init.c: 33:     } else if (baudrate == 57600){
  3229  0888  2895               	goto	l186
  3230  0889                     l2150:	
  3231  0889  30E1               	movlw	225
  3232  088A  0674               	xorwf	initSerial@baudrate+1,w
  3233  088B  0473               	iorwf	initSerial@baudrate,w
  3234  088C  1D03               	btfss	3,2
  3235  088D  288F               	goto	u2541
  3236  088E  2890               	goto	u2540
  3237  088F                     u2541:	
  3238  088F  2895               	goto	l182
  3239  0890                     u2540:	
  3240  0890                     l2152:	
  3241                           
  3242                           ;Serial_Init.c: 34:         SPBRG = 16;
  3243  0890  3010               	movlw	16
  3244  0891  1683               	bsf	3,5	;RP0=1, select bank1
  3245  0892  1303               	bcf	3,6	;RP1=0, select bank1
  3246  0893  0099               	movwf	25	;volatile
  3247  0894  2895               	goto	l186
  3248  0895                     l182:	
  3249  0895                     l186:	
  3250  0895  0008               	return
  3251  0896                     __end_of_initSerial:	
  3252                           
  3253                           	psect	text11
  3254  0922                     __ptext11:	
  3255 ;; *************** function _initLCD *****************
  3256 ;; Defined at:
  3257 ;;		line 9 in file "LCD_Init.c"
  3258 ;; Parameters:    Size  Location     Type
  3259 ;;		None
  3260 ;; Auto vars:     Size  Location     Type
  3261 ;;		None
  3262 ;; Return value:  Size  Location     Type
  3263 ;;                  1    wreg      void 
  3264 ;; Registers used:
  3265 ;;		wreg, status,2, status,0, pclath, cstack
  3266 ;; Tracked objects:
  3267 ;;		On entry : 0/0
  3268 ;;		On exit  : 0/0
  3269 ;;		Unchanged: 0/0
  3270 ;; Data sizes:     COMMON   BANK0   BANK1   BANK3   BANK2
  3271 ;;      Params:         0       0       0       0       0
  3272 ;;      Locals:         0       0       0       0       0
  3273 ;;      Temps:          2       0       0       0       0
  3274 ;;      Totals:         2       0       0       0       0
  3275 ;;Total ram usage:        2 bytes
  3276 ;; Hardware stack levels used:    1
  3277 ;; Hardware stack levels required when called:    2
  3278 ;; This function calls:
  3279 ;;		_lcd_cmd
  3280 ;; This function is called by:
  3281 ;;		_main
  3282 ;; This function uses a non-reentrant model
  3283 ;;
  3284                           
  3285                           
  3286                           ;psect for function _initLCD
  3287  0922                     _initLCD:	
  3288  0922                     l2112:	
  3289                           ;incstack = 0
  3290                           ; Regs used in _initLCD: [wreg+status,2+status,0+pclath+cstack]
  3291                           
  3292                           
  3293                           ;LCD_Init.c: 10: _delay((unsigned long)((15)*(4000000/4000.0)));
  3294  0922  3014               	movlw	20
  3295  0923  00F7               	movwf	??_initLCD+1
  3296  0924  3079               	movlw	121
  3297  0925  00F6               	movwf	??_initLCD
  3298  0926                     u4547:	
  3299  0926  0BF6               	decfsz	??_initLCD,f
  3300  0927  2926               	goto	u4547
  3301  0928  0BF7               	decfsz	??_initLCD+1,f
  3302  0929  2926               	goto	u4547
  3303  092A  292B               	nop2
  3304  092B                     l2114:	
  3305                           
  3306                           ;LCD_Init.c: 12: lcd_cmd(0x030);
  3307  092B  3030               	movlw	48
  3308  092C  160A  118A  274A  120A  158A  	fcall	_lcd_cmd
  3309  0931                     l2116:	
  3310                           
  3311                           ;LCD_Init.c: 13: _delay((unsigned long)((5)*(4000000/4000.0)));
  3312  0931  3007               	movlw	7
  3313  0932  00F7               	movwf	??_initLCD+1
  3314  0933  307D               	movlw	125
  3315  0934  00F6               	movwf	??_initLCD
  3316  0935                     u4557:	
  3317  0935  0BF6               	decfsz	??_initLCD,f
  3318  0936  2935               	goto	u4557
  3319  0937  0BF7               	decfsz	??_initLCD+1,f
  3320  0938  2935               	goto	u4557
  3321                           
  3322                           ;LCD_Init.c: 15: lcd_cmd(0x030);
  3323  0939  3030               	movlw	48
  3324  093A  160A  118A  274A  120A  158A  	fcall	_lcd_cmd
  3325  093F                     l2118:	
  3326                           
  3327                           ;LCD_Init.c: 16: _delay((unsigned long)((11)*(4000000/4000.0)));
  3328  093F  300F               	movlw	15
  3329  0940  00F7               	movwf	??_initLCD+1
  3330  0941  3047               	movlw	71
  3331  0942  00F6               	movwf	??_initLCD
  3332  0943                     u4567:	
  3333  0943  0BF6               	decfsz	??_initLCD,f
  3334  0944  2943               	goto	u4567
  3335  0945  0BF7               	decfsz	??_initLCD+1,f
  3336  0946  2943               	goto	u4567
  3337  0947  2948               	nop2
  3338  0948                     l2120:	
  3339                           
  3340                           ;LCD_Init.c: 18: lcd_cmd(0x030);
  3341  0948  3030               	movlw	48
  3342  0949  160A  118A  274A  120A  158A  	fcall	_lcd_cmd
  3343                           
  3344                           ;LCD_Init.c: 19: _delay((unsigned long)((160)*(4000000/4000000.0)));
  3345  094E  3035               	movlw	53
  3346  094F  00F6               	movwf	??_initLCD
  3347  0950                     u4577:	
  3348  0950  0BF6               	decfsz	??_initLCD,f
  3349  0951  2950               	goto	u4577
  3350  0952                     l2122:	
  3351                           
  3352                           ;LCD_Init.c: 21: lcd_cmd(0x38);
  3353  0952  3038               	movlw	56
  3354  0953  160A  118A  274A  120A  158A  	fcall	_lcd_cmd
  3355  0958                     l2124:	
  3356                           
  3357                           ;LCD_Init.c: 22: lcd_cmd(0x10);
  3358  0958  3010               	movlw	16
  3359  0959  160A  118A  274A  120A  158A  	fcall	_lcd_cmd
  3360  095E                     l2126:	
  3361                           
  3362                           ;LCD_Init.c: 23: lcd_cmd(0x01);
  3363  095E  3001               	movlw	1
  3364  095F  160A  118A  274A  120A  158A  	fcall	_lcd_cmd
  3365  0964                     l2128:	
  3366                           
  3367                           ;LCD_Init.c: 24: lcd_cmd(0x06);
  3368  0964  3006               	movlw	6
  3369  0965  160A  118A  274A  120A  158A  	fcall	_lcd_cmd
  3370  096A                     l2130:	
  3371                           
  3372                           ;LCD_Init.c: 25: lcd_cmd(0x0C);
  3373  096A  300C               	movlw	12
  3374  096B  160A  118A  274A  120A  158A  	fcall	_lcd_cmd
  3375  0970                     l106:	
  3376  0970  0008               	return
  3377  0971                     __end_of_initLCD:	
  3378                           
  3379                           	psect	text12
  3380  174A                     __ptext12:	
  3381 ;; *************** function _lcd_cmd *****************
  3382 ;; Defined at:
  3383 ;;		line 30 in file "LCD_Init.c"
  3384 ;; Parameters:    Size  Location     Type
  3385 ;;  command         1    wreg     unsigned char 
  3386 ;; Auto vars:     Size  Location     Type
  3387 ;;  command         1    5[COMMON] unsigned char 
  3388 ;; Return value:  Size  Location     Type
  3389 ;;                  1    wreg      void 
  3390 ;; Registers used:
  3391 ;;		wreg
  3392 ;; Tracked objects:
  3393 ;;		On entry : 0/0
  3394 ;;		On exit  : 0/0
  3395 ;;		Unchanged: 0/0
  3396 ;; Data sizes:     COMMON   BANK0   BANK1   BANK3   BANK2
  3397 ;;      Params:         0       0       0       0       0
  3398 ;;      Locals:         1       0       0       0       0
  3399 ;;      Temps:          2       0       0       0       0
  3400 ;;      Totals:         3       0       0       0       0
  3401 ;;Total ram usage:        3 bytes
  3402 ;; Hardware stack levels used:    1
  3403 ;; Hardware stack levels required when called:    1
  3404 ;; This function calls:
  3405 ;;		Nothing
  3406 ;; This function is called by:
  3407 ;;		_initLCD
  3408 ;;		_lcd_clr
  3409 ;;		_lcd_set_cursor
  3410 ;; This function uses a non-reentrant model
  3411 ;;
  3412                           
  3413                           
  3414                           ;psect for function _lcd_cmd
  3415  174A                     _lcd_cmd:	
  3416                           
  3417                           ;incstack = 0
  3418                           ; Regs used in _lcd_cmd: [wreg]
  3419                           ;lcd_cmd@command stored from wreg
  3420  174A  00F5               	movwf	lcd_cmd@command
  3421  174B                     l1834:	
  3422                           
  3423                           ;LCD_Init.c: 31:     PORTBbits.RB6 = 0;
  3424  174B  1283               	bcf	3,5	;RP0=0, select bank0
  3425  174C  1303               	bcf	3,6	;RP1=0, select bank0
  3426  174D  1306               	bcf	6,6	;volatile
  3427  174E                     l1836:	
  3428                           
  3429                           ;LCD_Init.c: 32:     PORTD = command;
  3430  174E  0875               	movf	lcd_cmd@command,w
  3431  174F  0088               	movwf	8	;volatile
  3432  1750                     l1838:	
  3433                           
  3434                           ;LCD_Init.c: 33:     PORTBbits.RB7 = 1;
  3435  1750  1786               	bsf	6,7	;volatile
  3436                           
  3437                           ;LCD_Init.c: 34:     _delay((unsigned long)((4)*(4000000/4000.0)));
  3438  1751  3006               	movlw	6
  3439  1752  00F4               	movwf	??_lcd_cmd+1
  3440  1753  3030               	movlw	48
  3441  1754  00F3               	movwf	??_lcd_cmd
  3442  1755                     u4587:	
  3443  1755  0BF3               	decfsz	??_lcd_cmd,f
  3444  1756  2F55               	goto	u4587
  3445  1757  0BF4               	decfsz	??_lcd_cmd+1,f
  3446  1758  2F55               	goto	u4587
  3447  1759  0000               	nop
  3448  175A                     l1840:	
  3449                           
  3450                           ;LCD_Init.c: 35:     PORTBbits.RB7 = 0;
  3451  175A  1283               	bcf	3,5	;RP0=0, select bank0
  3452  175B  1303               	bcf	3,6	;RP1=0, select bank0
  3453  175C  1386               	bcf	6,7	;volatile
  3454  175D                     l109:	
  3455  175D  0008               	return
  3456  175E                     __end_of_lcd_cmd:	
  3457                           
  3458                           	psect	text13
  3459  0759                     __ptext13:	
  3460 ;; *************** function _initADC *****************
  3461 ;; Defined at:
  3462 ;;		line 5 in file "ADC_Init.c"
  3463 ;; Parameters:    Size  Location     Type
  3464 ;;  analog          1    wreg     unsigned char 
  3465 ;; Auto vars:     Size  Location     Type
  3466 ;;  analog          1    5[COMMON] unsigned char 
  3467 ;; Return value:  Size  Location     Type
  3468 ;;                  1    wreg      void 
  3469 ;; Registers used:
  3470 ;;		wreg, fsr0l, fsr0h, status,2, status,0
  3471 ;; Tracked objects:
  3472 ;;		On entry : 0/0
  3473 ;;		On exit  : 0/0
  3474 ;;		Unchanged: 0/0
  3475 ;; Data sizes:     COMMON   BANK0   BANK1   BANK3   BANK2
  3476 ;;      Params:         0       0       0       0       0
  3477 ;;      Locals:         1       0       0       0       0
  3478 ;;      Temps:          2       0       0       0       0
  3479 ;;      Totals:         3       0       0       0       0
  3480 ;;Total ram usage:        3 bytes
  3481 ;; Hardware stack levels used:    1
  3482 ;; Hardware stack levels required when called:    1
  3483 ;; This function calls:
  3484 ;;		Nothing
  3485 ;; This function is called by:
  3486 ;;		_main
  3487 ;; This function uses a non-reentrant model
  3488 ;;
  3489                           
  3490                           
  3491                           ;psect for function _initADC
  3492  0759                     _initADC:	
  3493                           
  3494                           ;incstack = 0
  3495                           ; Regs used in _initADC: [wreg-fsr0h+status,2+status,0]
  3496                           ;initADC@analog stored from wreg
  3497  0759  00F5               	movwf	initADC@analog
  3498  075A                     l2164:	
  3499                           
  3500                           ;ADC_Init.c: 6:     INTCONbits.GIE = 1;
  3501  075A  178B               	bsf	11,7	;volatile
  3502                           
  3503                           ;ADC_Init.c: 7:     INTCONbits.PEIE = 1;
  3504  075B  170B               	bsf	11,6	;volatile
  3505                           
  3506                           ;ADC_Init.c: 9:     PIE1bits.ADIE = 1;
  3507  075C  1683               	bsf	3,5	;RP0=1, select bank1
  3508  075D  1303               	bcf	3,6	;RP1=0, select bank1
  3509  075E  170C               	bsf	12,6	;volatile
  3510                           
  3511                           ;ADC_Init.c: 11:     PIR1bits.ADIF = 0;
  3512  075F  1283               	bcf	3,5	;RP0=0, select bank0
  3513  0760  1303               	bcf	3,6	;RP1=0, select bank0
  3514  0761  130C               	bcf	12,6	;volatile
  3515                           
  3516                           ;ADC_Init.c: 13:     ADCON0bits.ADCS1 = 0;
  3517  0762  139F               	bcf	31,7	;volatile
  3518                           
  3519                           ;ADC_Init.c: 14:     ADCON0bits.ADCS0 = 1;
  3520  0763  171F               	bsf	31,6	;volatile
  3521                           
  3522                           ;ADC_Init.c: 15:     ADCON0bits.ADON = 1;
  3523  0764  141F               	bsf	31,0	;volatile
  3524                           
  3525                           ;ADC_Init.c: 17:     switch(analog){
  3526  0765  2FB6               	goto	l2168
  3527  0766                     l143:	
  3528                           ;ADC_Init.c: 18:         case 0:
  3529                           
  3530                           
  3531                           ;ADC_Init.c: 19:             ADCON0bits.CHS3 = 0;
  3532  0766  129F               	bcf	31,5	;volatile
  3533                           
  3534                           ;ADC_Init.c: 20:             ADCON0bits.CHS2 = 0;
  3535  0767  121F               	bcf	31,4	;volatile
  3536                           
  3537                           ;ADC_Init.c: 21:             ADCON0bits.CHS1 = 0;
  3538  0768  119F               	bcf	31,3	;volatile
  3539                           
  3540                           ;ADC_Init.c: 22:             ADCON0bits.CHS0 = 0;
  3541  0769  111F               	bcf	31,2	;volatile
  3542                           
  3543                           ;ADC_Init.c: 23:             break;
  3544  076A  2FF0               	goto	l2170
  3545  076B                     l145:	
  3546                           ;ADC_Init.c: 25:         case 1:
  3547                           
  3548                           
  3549                           ;ADC_Init.c: 26:             ADCON0bits.CHS3 = 0;
  3550  076B  129F               	bcf	31,5	;volatile
  3551                           
  3552                           ;ADC_Init.c: 27:             ADCON0bits.CHS2 = 0;
  3553  076C  121F               	bcf	31,4	;volatile
  3554                           
  3555                           ;ADC_Init.c: 28:             ADCON0bits.CHS1 = 0;
  3556  076D  119F               	bcf	31,3	;volatile
  3557                           
  3558                           ;ADC_Init.c: 29:             ADCON0bits.CHS0 = 1;
  3559  076E  151F               	bsf	31,2	;volatile
  3560                           
  3561                           ;ADC_Init.c: 30:             break;
  3562  076F  2FF0               	goto	l2170
  3563  0770                     l146:	
  3564                           ;ADC_Init.c: 32:         case 2:
  3565                           
  3566                           
  3567                           ;ADC_Init.c: 33:             ADCON0bits.CHS3 = 0;
  3568  0770  129F               	bcf	31,5	;volatile
  3569                           
  3570                           ;ADC_Init.c: 34:             ADCON0bits.CHS2 = 0;
  3571  0771  121F               	bcf	31,4	;volatile
  3572                           
  3573                           ;ADC_Init.c: 35:             ADCON0bits.CHS1 = 1;
  3574  0772  159F               	bsf	31,3	;volatile
  3575                           
  3576                           ;ADC_Init.c: 36:             ADCON0bits.CHS0 = 0;
  3577  0773  111F               	bcf	31,2	;volatile
  3578                           
  3579                           ;ADC_Init.c: 37:             break;
  3580  0774  2FF0               	goto	l2170
  3581  0775                     l147:	
  3582                           ;ADC_Init.c: 39:         case 3:
  3583                           
  3584                           
  3585                           ;ADC_Init.c: 40:             ADCON0bits.CHS3 = 0;
  3586  0775  129F               	bcf	31,5	;volatile
  3587                           
  3588                           ;ADC_Init.c: 41:             ADCON0bits.CHS2 = 0;
  3589  0776  121F               	bcf	31,4	;volatile
  3590                           
  3591                           ;ADC_Init.c: 42:             ADCON0bits.CHS1 = 1;
  3592  0777  159F               	bsf	31,3	;volatile
  3593                           
  3594                           ;ADC_Init.c: 43:             ADCON0bits.CHS0 = 1;
  3595  0778  151F               	bsf	31,2	;volatile
  3596                           
  3597                           ;ADC_Init.c: 44:             break;
  3598  0779  2FF0               	goto	l2170
  3599  077A                     l148:	
  3600                           ;ADC_Init.c: 46:         case 4:
  3601                           
  3602                           
  3603                           ;ADC_Init.c: 47:             ADCON0bits.CHS3 = 0;
  3604  077A  129F               	bcf	31,5	;volatile
  3605                           
  3606                           ;ADC_Init.c: 48:             ADCON0bits.CHS2 = 1;
  3607  077B  161F               	bsf	31,4	;volatile
  3608                           
  3609                           ;ADC_Init.c: 49:             ADCON0bits.CHS1 = 0;
  3610  077C  119F               	bcf	31,3	;volatile
  3611                           
  3612                           ;ADC_Init.c: 50:             ADCON0bits.CHS0 = 0;
  3613  077D  111F               	bcf	31,2	;volatile
  3614                           
  3615                           ;ADC_Init.c: 51:             break;
  3616  077E  2FF0               	goto	l2170
  3617  077F                     l149:	
  3618                           ;ADC_Init.c: 53:         case 5:
  3619                           
  3620                           
  3621                           ;ADC_Init.c: 54:             ADCON0bits.CHS3 = 0;
  3622  077F  129F               	bcf	31,5	;volatile
  3623                           
  3624                           ;ADC_Init.c: 55:             ADCON0bits.CHS2 = 1;
  3625  0780  161F               	bsf	31,4	;volatile
  3626                           
  3627                           ;ADC_Init.c: 56:             ADCON0bits.CHS1 = 0;
  3628  0781  119F               	bcf	31,3	;volatile
  3629                           
  3630                           ;ADC_Init.c: 57:             ADCON0bits.CHS0 = 1;
  3631  0782  151F               	bsf	31,2	;volatile
  3632                           
  3633                           ;ADC_Init.c: 58:             break;
  3634  0783  2FF0               	goto	l2170
  3635  0784                     l150:	
  3636                           ;ADC_Init.c: 60:         case 6:
  3637                           
  3638                           
  3639                           ;ADC_Init.c: 61:             ADCON0bits.CHS3 = 0;
  3640  0784  129F               	bcf	31,5	;volatile
  3641                           
  3642                           ;ADC_Init.c: 62:             ADCON0bits.CHS2 = 1;
  3643  0785  161F               	bsf	31,4	;volatile
  3644                           
  3645                           ;ADC_Init.c: 63:             ADCON0bits.CHS1 = 1;
  3646  0786  159F               	bsf	31,3	;volatile
  3647                           
  3648                           ;ADC_Init.c: 64:             ADCON0bits.CHS0 = 0;
  3649  0787  111F               	bcf	31,2	;volatile
  3650                           
  3651                           ;ADC_Init.c: 65:             break;
  3652  0788  2FF0               	goto	l2170
  3653  0789                     l151:	
  3654                           ;ADC_Init.c: 67:         case 7:
  3655                           
  3656                           
  3657                           ;ADC_Init.c: 68:             ADCON0bits.CHS3 = 0;
  3658  0789  129F               	bcf	31,5	;volatile
  3659                           
  3660                           ;ADC_Init.c: 69:             ADCON0bits.CHS2 = 1;
  3661  078A  161F               	bsf	31,4	;volatile
  3662                           
  3663                           ;ADC_Init.c: 70:             ADCON0bits.CHS1 = 1;
  3664  078B  159F               	bsf	31,3	;volatile
  3665                           
  3666                           ;ADC_Init.c: 71:             ADCON0bits.CHS0 = 1;
  3667  078C  151F               	bsf	31,2	;volatile
  3668                           
  3669                           ;ADC_Init.c: 72:             break;
  3670  078D  2FF0               	goto	l2170
  3671  078E                     l152:	
  3672                           ;ADC_Init.c: 74:         case 8:
  3673                           
  3674                           
  3675                           ;ADC_Init.c: 75:             ADCON0bits.CHS3 = 1;
  3676  078E  169F               	bsf	31,5	;volatile
  3677                           
  3678                           ;ADC_Init.c: 76:             ADCON0bits.CHS2 = 0;
  3679  078F  121F               	bcf	31,4	;volatile
  3680                           
  3681                           ;ADC_Init.c: 77:             ADCON0bits.CHS1 = 0;
  3682  0790  119F               	bcf	31,3	;volatile
  3683                           
  3684                           ;ADC_Init.c: 78:             ADCON0bits.CHS0 = 0;
  3685  0791  111F               	bcf	31,2	;volatile
  3686                           
  3687                           ;ADC_Init.c: 79:             break;
  3688  0792  2FF0               	goto	l2170
  3689  0793                     l153:	
  3690                           ;ADC_Init.c: 81:         case 9:
  3691                           
  3692                           
  3693                           ;ADC_Init.c: 82:             ADCON0bits.CHS3 = 1;
  3694  0793  169F               	bsf	31,5	;volatile
  3695                           
  3696                           ;ADC_Init.c: 83:             ADCON0bits.CHS2 = 0;
  3697  0794  121F               	bcf	31,4	;volatile
  3698                           
  3699                           ;ADC_Init.c: 84:             ADCON0bits.CHS1 = 0;
  3700  0795  119F               	bcf	31,3	;volatile
  3701                           
  3702                           ;ADC_Init.c: 85:             ADCON0bits.CHS0 = 1;
  3703  0796  151F               	bsf	31,2	;volatile
  3704                           
  3705                           ;ADC_Init.c: 86:             break;
  3706  0797  2FF0               	goto	l2170
  3707  0798                     l154:	
  3708                           ;ADC_Init.c: 88:         case 10:
  3709                           
  3710                           
  3711                           ;ADC_Init.c: 89:             ADCON0bits.CHS3 = 1;
  3712  0798  169F               	bsf	31,5	;volatile
  3713                           
  3714                           ;ADC_Init.c: 90:             ADCON0bits.CHS2 = 0;
  3715  0799  121F               	bcf	31,4	;volatile
  3716                           
  3717                           ;ADC_Init.c: 91:             ADCON0bits.CHS1 = 1;
  3718  079A  159F               	bsf	31,3	;volatile
  3719                           
  3720                           ;ADC_Init.c: 92:             ADCON0bits.CHS0 = 0;
  3721  079B  111F               	bcf	31,2	;volatile
  3722                           
  3723                           ;ADC_Init.c: 93:             break;
  3724  079C  2FF0               	goto	l2170
  3725  079D                     l155:	
  3726                           ;ADC_Init.c: 95:         case 11:
  3727                           
  3728                           
  3729                           ;ADC_Init.c: 96:             ADCON0bits.CHS3 = 1;
  3730  079D  169F               	bsf	31,5	;volatile
  3731                           
  3732                           ;ADC_Init.c: 97:             ADCON0bits.CHS2 = 0;
  3733  079E  121F               	bcf	31,4	;volatile
  3734                           
  3735                           ;ADC_Init.c: 98:             ADCON0bits.CHS1 = 1;
  3736  079F  159F               	bsf	31,3	;volatile
  3737                           
  3738                           ;ADC_Init.c: 99:             ADCON0bits.CHS0 = 1;
  3739  07A0  151F               	bsf	31,2	;volatile
  3740                           
  3741                           ;ADC_Init.c: 100:             break;
  3742  07A1  2FF0               	goto	l2170
  3743  07A2                     l156:	
  3744                           ;ADC_Init.c: 102:         case 12:
  3745                           
  3746                           
  3747                           ;ADC_Init.c: 103:             ADCON0bits.CHS3 = 1;
  3748  07A2  169F               	bsf	31,5	;volatile
  3749                           
  3750                           ;ADC_Init.c: 104:             ADCON0bits.CHS2 = 1;
  3751  07A3  161F               	bsf	31,4	;volatile
  3752                           
  3753                           ;ADC_Init.c: 105:             ADCON0bits.CHS1 = 0;
  3754  07A4  119F               	bcf	31,3	;volatile
  3755                           
  3756                           ;ADC_Init.c: 106:             ADCON0bits.CHS0 = 0;
  3757  07A5  111F               	bcf	31,2	;volatile
  3758                           
  3759                           ;ADC_Init.c: 107:             break;
  3760  07A6  2FF0               	goto	l2170
  3761  07A7                     l157:	
  3762                           ;ADC_Init.c: 109:         case 13:
  3763                           
  3764                           
  3765                           ;ADC_Init.c: 110:             ADCON0bits.CHS3 = 1;
  3766  07A7  169F               	bsf	31,5	;volatile
  3767                           
  3768                           ;ADC_Init.c: 111:             ADCON0bits.CHS2 = 1;
  3769  07A8  161F               	bsf	31,4	;volatile
  3770                           
  3771                           ;ADC_Init.c: 112:             ADCON0bits.CHS1 = 0;
  3772  07A9  119F               	bcf	31,3	;volatile
  3773                           
  3774                           ;ADC_Init.c: 113:             ADCON0bits.CHS0 = 1;
  3775  07AA  151F               	bsf	31,2	;volatile
  3776                           
  3777                           ;ADC_Init.c: 114:             break;
  3778  07AB  2FF0               	goto	l2170
  3779  07AC                     l158:	
  3780                           ;ADC_Init.c: 116:         case 14:
  3781                           
  3782                           
  3783                           ;ADC_Init.c: 117:             ADCON0bits.CHS3 = 1;
  3784  07AC  169F               	bsf	31,5	;volatile
  3785                           
  3786                           ;ADC_Init.c: 118:             ADCON0bits.CHS2 = 1;
  3787  07AD  161F               	bsf	31,4	;volatile
  3788                           
  3789                           ;ADC_Init.c: 119:             ADCON0bits.CHS1 = 1;
  3790  07AE  159F               	bsf	31,3	;volatile
  3791                           
  3792                           ;ADC_Init.c: 120:             ADCON0bits.CHS0 = 0;
  3793  07AF  111F               	bcf	31,2	;volatile
  3794                           
  3795                           ;ADC_Init.c: 121:             break;
  3796  07B0  2FF0               	goto	l2170
  3797  07B1                     l159:	
  3798                           ;ADC_Init.c: 123:         case 15:
  3799                           
  3800                           
  3801                           ;ADC_Init.c: 124:             ADCON0bits.CHS3 = 1;
  3802  07B1  169F               	bsf	31,5	;volatile
  3803                           
  3804                           ;ADC_Init.c: 125:             ADCON0bits.CHS2 = 1;
  3805  07B2  161F               	bsf	31,4	;volatile
  3806                           
  3807                           ;ADC_Init.c: 126:             ADCON0bits.CHS1 = 1;
  3808  07B3  159F               	bsf	31,3	;volatile
  3809                           
  3810                           ;ADC_Init.c: 127:             ADCON0bits.CHS0 = 1;
  3811  07B4  151F               	bsf	31,2	;volatile
  3812                           
  3813                           ;ADC_Init.c: 128:             break;
  3814  07B5  2FF0               	goto	l2170
  3815  07B6                     l2168:	
  3816  07B6  0875               	movf	initADC@analog,w
  3817  07B7  00F3               	movwf	??_initADC
  3818  07B8  01F4               	clrf	??_initADC+1
  3819                           
  3820                           ; Switch on 2 bytes has been partitioned into a top level switch of size 1, and 1 sub-sw
      +                          itches
  3821                           ; Switch size 1, requested type "simple"
  3822                           ; Number of cases is 1, Range of values is 0 to 0
  3823                           ; switch strategies available:
  3824                           ; Name         Instructions Cycles
  3825                           ; simple_byte            4     3 (average)
  3826                           ; direct_byte           11     8 (fixed)
  3827                           ; jumptable            260     6 (fixed)
  3828                           ;	Chosen strategy is simple_byte
  3829  07B9  0874               	movf	??_initADC+1,w
  3830  07BA  3A00               	xorlw	0	; case 0
  3831  07BB  1903               	skipnz
  3832  07BC  2FBE               	goto	l3274
  3833  07BD  2FF0               	goto	l2170
  3834  07BE                     l3274:	
  3835                           
  3836                           ; Switch size 1, requested type "simple"
  3837                           ; Number of cases is 16, Range of values is 0 to 15
  3838                           ; switch strategies available:
  3839                           ; Name         Instructions Cycles
  3840                           ; simple_byte           49    25 (average)
  3841                           ; direct_byte           56     8 (fixed)
  3842                           ; jumptable            260     6 (fixed)
  3843                           ;	Chosen strategy is simple_byte
  3844  07BE  0873               	movf	??_initADC,w
  3845  07BF  3A00               	xorlw	0	; case 0
  3846  07C0  1903               	skipnz
  3847  07C1  2F66               	goto	l143
  3848  07C2  3A01               	xorlw	1	; case 1
  3849  07C3  1903               	skipnz
  3850  07C4  2F6B               	goto	l145
  3851  07C5  3A03               	xorlw	3	; case 2
  3852  07C6  1903               	skipnz
  3853  07C7  2F70               	goto	l146
  3854  07C8  3A01               	xorlw	1	; case 3
  3855  07C9  1903               	skipnz
  3856  07CA  2F75               	goto	l147
  3857  07CB  3A07               	xorlw	7	; case 4
  3858  07CC  1903               	skipnz
  3859  07CD  2F7A               	goto	l148
  3860  07CE  3A01               	xorlw	1	; case 5
  3861  07CF  1903               	skipnz
  3862  07D0  2F7F               	goto	l149
  3863  07D1  3A03               	xorlw	3	; case 6
  3864  07D2  1903               	skipnz
  3865  07D3  2F84               	goto	l150
  3866  07D4  3A01               	xorlw	1	; case 7
  3867  07D5  1903               	skipnz
  3868  07D6  2F89               	goto	l151
  3869  07D7  3A0F               	xorlw	15	; case 8
  3870  07D8  1903               	skipnz
  3871  07D9  2F8E               	goto	l152
  3872  07DA  3A01               	xorlw	1	; case 9
  3873  07DB  1903               	skipnz
  3874  07DC  2F93               	goto	l153
  3875  07DD  3A03               	xorlw	3	; case 10
  3876  07DE  1903               	skipnz
  3877  07DF  2F98               	goto	l154
  3878  07E0  3A01               	xorlw	1	; case 11
  3879  07E1  1903               	skipnz
  3880  07E2  2F9D               	goto	l155
  3881  07E3  3A07               	xorlw	7	; case 12
  3882  07E4  1903               	skipnz
  3883  07E5  2FA2               	goto	l156
  3884  07E6  3A01               	xorlw	1	; case 13
  3885  07E7  1903               	skipnz
  3886  07E8  2FA7               	goto	l157
  3887  07E9  3A03               	xorlw	3	; case 14
  3888  07EA  1903               	skipnz
  3889  07EB  2FAC               	goto	l158
  3890  07EC  3A01               	xorlw	1	; case 15
  3891  07ED  1903               	skipnz
  3892  07EE  2FB1               	goto	l159
  3893  07EF  2FF0               	goto	l2170
  3894  07F0                     l2170:	
  3895                           
  3896                           ;ADC_Init.c: 130:     ADCON1 = 0;
  3897  07F0  1683               	bsf	3,5	;RP0=1, select bank1
  3898  07F1  1303               	bcf	3,6	;RP1=0, select bank1
  3899  07F2  019F               	clrf	31	;volatile
  3900  07F3                     l2172:	
  3901                           
  3902                           ;ADC_Init.c: 132:     ADCON0bits.GO_DONE = 1;
  3903  07F3  1283               	bcf	3,5	;RP0=0, select bank0
  3904  07F4  1303               	bcf	3,6	;RP1=0, select bank0
  3905  07F5  149F               	bsf	31,1	;volatile
  3906  07F6                     l160:	
  3907  07F6  0008               	return
  3908  07F7                     __end_of_initADC:	
  3909                           
  3910                           	psect	text14
  3911  09ED                     __ptext14:	
  3912 ;; *************** function ___xxtofl *****************
  3913 ;; Defined at:
  3914 ;;		line 10 in file "C:\Program Files (x86)\Microchip\xc8\v2.10\pic\sources\c90\common\xxtofl.c"
  3915 ;; Parameters:    Size  Location     Type
  3916 ;;  sign            1    wreg     unsigned char 
  3917 ;;  val             4    3[COMMON] long 
  3918 ;; Auto vars:     Size  Location     Type
  3919 ;;  sign            1    4[BANK0 ] unsigned char 
  3920 ;;  arg             4    6[BANK0 ] unsigned long 
  3921 ;;  exp             1    5[BANK0 ] unsigned char 
  3922 ;; Return value:  Size  Location     Type
  3923 ;;                  4    3[COMMON] unsigned char 
  3924 ;; Registers used:
  3925 ;;		wreg, status,2, status,0
  3926 ;; Tracked objects:
  3927 ;;		On entry : 0/0
  3928 ;;		On exit  : 0/0
  3929 ;;		Unchanged: 0/0
  3930 ;; Data sizes:     COMMON   BANK0   BANK1   BANK3   BANK2
  3931 ;;      Params:         4       0       0       0       0
  3932 ;;      Locals:         0       6       0       0       0
  3933 ;;      Temps:          0       4       0       0       0
  3934 ;;      Totals:         4      10       0       0       0
  3935 ;;Total ram usage:       14 bytes
  3936 ;; Hardware stack levels used:    1
  3937 ;; Hardware stack levels required when called:    1
  3938 ;; This function calls:
  3939 ;;		Nothing
  3940 ;; This function is called by:
  3941 ;;		_main
  3942 ;; This function uses a non-reentrant model
  3943 ;;
  3944                           
  3945                           
  3946                           ;psect for function ___xxtofl
  3947  09ED                     ___xxtofl:	
  3948                           
  3949                           ;incstack = 0
  3950                           ; Regs used in ___xxtofl: [wreg+status,2+status,0]
  3951                           ;___xxtofl@sign stored from wreg
  3952  09ED  1283               	bcf	3,5	;RP0=0, select bank0
  3953  09EE  1303               	bcf	3,6	;RP1=0, select bank0
  3954  09EF  00A4               	movwf	___xxtofl@sign
  3955  09F0                     l3062:	
  3956  09F0  0824               	movf	___xxtofl@sign,w
  3957  09F1  1903               	btfsc	3,2
  3958  09F2  29F4               	goto	u4301
  3959  09F3  29F5               	goto	u4300
  3960  09F4                     u4301:	
  3961  09F4  2A09               	goto	l3068
  3962  09F5                     u4300:	
  3963  09F5                     l3064:	
  3964  09F5  1FF6               	btfss	___xxtofl@val+3,7
  3965  09F6  29F8               	goto	u4311
  3966  09F7  29F9               	goto	u4310
  3967  09F8                     u4311:	
  3968  09F8  2A09               	goto	l3068
  3969  09F9                     u4310:	
  3970  09F9                     l3066:	
  3971  09F9  0973               	comf	___xxtofl@val,w
  3972  09FA  00A6               	movwf	___xxtofl@arg
  3973  09FB  0974               	comf	___xxtofl@val+1,w
  3974  09FC  00A7               	movwf	___xxtofl@arg+1
  3975  09FD  0975               	comf	___xxtofl@val+2,w
  3976  09FE  00A8               	movwf	___xxtofl@arg+2
  3977  09FF  0976               	comf	___xxtofl@val+3,w
  3978  0A00  00A9               	movwf	___xxtofl@arg+3
  3979  0A01  0AA6               	incf	___xxtofl@arg,f
  3980  0A02  1903               	skipnz
  3981  0A03  0AA7               	incf	___xxtofl@arg+1,f
  3982  0A04  1903               	skipnz
  3983  0A05  0AA8               	incf	___xxtofl@arg+2,f
  3984  0A06  1903               	skipnz
  3985  0A07  0AA9               	incf	___xxtofl@arg+3,f
  3986  0A08  2A11               	goto	l733
  3987  0A09                     l3068:	
  3988  0A09  0876               	movf	___xxtofl@val+3,w
  3989  0A0A  00A9               	movwf	___xxtofl@arg+3
  3990  0A0B  0875               	movf	___xxtofl@val+2,w
  3991  0A0C  00A8               	movwf	___xxtofl@arg+2
  3992  0A0D  0874               	movf	___xxtofl@val+1,w
  3993  0A0E  00A7               	movwf	___xxtofl@arg+1
  3994  0A0F  0873               	movf	___xxtofl@val,w
  3995  0A10  00A6               	movwf	___xxtofl@arg
  3996  0A11                     l733:	
  3997  0A11  0876               	movf	___xxtofl@val+3,w
  3998  0A12  0475               	iorwf	___xxtofl@val+2,w
  3999  0A13  0474               	iorwf	___xxtofl@val+1,w
  4000  0A14  0473               	iorwf	___xxtofl@val,w
  4001  0A15  1D03               	skipz
  4002  0A16  2A18               	goto	u4321
  4003  0A17  2A19               	goto	u4320
  4004  0A18                     u4321:	
  4005  0A18  2A22               	goto	l3074
  4006  0A19                     u4320:	
  4007  0A19                     l3070:	
  4008  0A19  3000               	movlw	0
  4009  0A1A  00F6               	movwf	?___xxtofl+3
  4010  0A1B  3000               	movlw	0
  4011  0A1C  00F5               	movwf	?___xxtofl+2
  4012  0A1D  3000               	movlw	0
  4013  0A1E  00F4               	movwf	?___xxtofl+1
  4014  0A1F  3000               	movlw	0
  4015  0A20  00F3               	movwf	?___xxtofl
  4016  0A21  2AA8               	goto	l735
  4017  0A22                     l3074:	
  4018  0A22  3096               	movlw	150
  4019  0A23  00A0               	movwf	??___xxtofl
  4020  0A24  0820               	movf	??___xxtofl,w
  4021  0A25  00A5               	movwf	___xxtofl@exp
  4022  0A26  2A34               	goto	l3078
  4023  0A27                     l3076:	
  4024  0A27  3001               	movlw	1
  4025  0A28  00A0               	movwf	??___xxtofl
  4026  0A29  0820               	movf	??___xxtofl,w
  4027  0A2A  07A5               	addwf	___xxtofl@exp,f
  4028  0A2B  3001               	movlw	1
  4029  0A2C                     u4335:	
  4030  0A2C  1003               	clrc
  4031  0A2D  0CA9               	rrf	___xxtofl@arg+3,f
  4032  0A2E  0CA8               	rrf	___xxtofl@arg+2,f
  4033  0A2F  0CA7               	rrf	___xxtofl@arg+1,f
  4034  0A30  0CA6               	rrf	___xxtofl@arg,f
  4035  0A31  3EFF               	addlw	-1
  4036  0A32  1D03               	skipz
  4037  0A33  2A2C               	goto	u4335
  4038  0A34                     l3078:	
  4039  0A34  30FE               	movlw	254
  4040  0A35  0529               	andwf	___xxtofl@arg+3,w
  4041  0A36  1D03               	btfss	3,2
  4042  0A37  2A39               	goto	u4341
  4043  0A38  2A3A               	goto	u4340
  4044  0A39                     u4341:	
  4045  0A39  2A27               	goto	l3076
  4046  0A3A                     u4340:	
  4047  0A3A  2A56               	goto	l739
  4048  0A3B                     l3080:	
  4049  0A3B  3001               	movlw	1
  4050  0A3C  00A0               	movwf	??___xxtofl
  4051  0A3D  0820               	movf	??___xxtofl,w
  4052  0A3E  07A5               	addwf	___xxtofl@exp,f
  4053  0A3F                     l3082:	
  4054  0A3F  3001               	movlw	1
  4055  0A40  07A6               	addwf	___xxtofl@arg,f
  4056  0A41  3000               	movlw	0
  4057  0A42  1803               	skipnc
  4058  0A43  3001               	movlw	1
  4059  0A44  07A7               	addwf	___xxtofl@arg+1,f
  4060  0A45  3000               	movlw	0
  4061  0A46  1803               	skipnc
  4062  0A47  3001               	movlw	1
  4063  0A48  07A8               	addwf	___xxtofl@arg+2,f
  4064  0A49  3000               	movlw	0
  4065  0A4A  1803               	skipnc
  4066  0A4B  3001               	movlw	1
  4067  0A4C  07A9               	addwf	___xxtofl@arg+3,f
  4068  0A4D                     l3084:	
  4069  0A4D  3001               	movlw	1
  4070  0A4E                     u4355:	
  4071  0A4E  1003               	clrc
  4072  0A4F  0CA9               	rrf	___xxtofl@arg+3,f
  4073  0A50  0CA8               	rrf	___xxtofl@arg+2,f
  4074  0A51  0CA7               	rrf	___xxtofl@arg+1,f
  4075  0A52  0CA6               	rrf	___xxtofl@arg,f
  4076  0A53  3EFF               	addlw	-1
  4077  0A54  1D03               	skipz
  4078  0A55  2A4E               	goto	u4355
  4079  0A56                     l739:	
  4080  0A56  30FF               	movlw	255
  4081  0A57  0529               	andwf	___xxtofl@arg+3,w
  4082  0A58  1D03               	btfss	3,2
  4083  0A59  2A5B               	goto	u4361
  4084  0A5A  2A5C               	goto	u4360
  4085  0A5B                     u4361:	
  4086  0A5B  2A3B               	goto	l3080
  4087  0A5C                     u4360:	
  4088  0A5C  2A68               	goto	l3088
  4089  0A5D                     l3086:	
  4090  0A5D  3001               	movlw	1
  4091  0A5E  02A5               	subwf	___xxtofl@exp,f
  4092  0A5F  3001               	movlw	1
  4093  0A60  00A0               	movwf	??___xxtofl
  4094  0A61                     u4375:	
  4095  0A61  1003               	clrc
  4096  0A62  0DA6               	rlf	___xxtofl@arg,f
  4097  0A63  0DA7               	rlf	___xxtofl@arg+1,f
  4098  0A64  0DA8               	rlf	___xxtofl@arg+2,f
  4099  0A65  0DA9               	rlf	___xxtofl@arg+3,f
  4100  0A66  0BA0               	decfsz	??___xxtofl,f
  4101  0A67  2A61               	goto	u4375
  4102  0A68                     l3088:	
  4103  0A68  1BA8               	btfsc	___xxtofl@arg+2,7
  4104  0A69  2A6B               	goto	u4381
  4105  0A6A  2A6C               	goto	u4380
  4106  0A6B                     u4381:	
  4107  0A6B  2A72               	goto	l746
  4108  0A6C                     u4380:	
  4109  0A6C                     l3090:	
  4110  0A6C  3002               	movlw	2
  4111  0A6D  0225               	subwf	___xxtofl@exp,w
  4112  0A6E  1803               	skipnc
  4113  0A6F  2A71               	goto	u4391
  4114  0A70  2A72               	goto	u4390
  4115  0A71                     u4391:	
  4116  0A71  2A5D               	goto	l3086
  4117  0A72                     u4390:	
  4118  0A72                     l746:	
  4119  0A72  1825               	btfsc	___xxtofl@exp,0
  4120  0A73  2A75               	goto	u4401
  4121  0A74  2A76               	goto	u4400
  4122  0A75                     u4401:	
  4123  0A75  2A7E               	goto	l747
  4124  0A76                     u4400:	
  4125  0A76                     l3092:	
  4126  0A76  30FF               	movlw	255
  4127  0A77  05A6               	andwf	___xxtofl@arg,f
  4128  0A78  30FF               	movlw	255
  4129  0A79  05A7               	andwf	___xxtofl@arg+1,f
  4130  0A7A  307F               	movlw	127
  4131  0A7B  05A8               	andwf	___xxtofl@arg+2,f
  4132  0A7C  30FF               	movlw	255
  4133  0A7D  05A9               	andwf	___xxtofl@arg+3,f
  4134  0A7E                     l747:	
  4135  0A7E  1003               	clrc
  4136  0A7F  0CA5               	rrf	___xxtofl@exp,f
  4137  0A80                     l3094:	
  4138  0A80  0825               	movf	___xxtofl@exp,w
  4139  0A81  00A0               	movwf	??___xxtofl
  4140  0A82  01A1               	clrf	??___xxtofl+1
  4141  0A83  01A2               	clrf	??___xxtofl+2
  4142  0A84  01A3               	clrf	??___xxtofl+3
  4143  0A85  3018               	movlw	24
  4144  0A86                     u4415:	
  4145  0A86  1003               	clrc
  4146  0A87  0DA0               	rlf	??___xxtofl,f
  4147  0A88  0DA1               	rlf	??___xxtofl+1,f
  4148  0A89  0DA2               	rlf	??___xxtofl+2,f
  4149  0A8A  0DA3               	rlf	??___xxtofl+3,f
  4150  0A8B                     u4410:	
  4151  0A8B  3EFF               	addlw	-1
  4152  0A8C  1D03               	skipz
  4153  0A8D  2A86               	goto	u4415
  4154  0A8E  0820               	movf	??___xxtofl,w
  4155  0A8F  04A6               	iorwf	___xxtofl@arg,f
  4156  0A90  0821               	movf	??___xxtofl+1,w
  4157  0A91  04A7               	iorwf	___xxtofl@arg+1,f
  4158  0A92  0822               	movf	??___xxtofl+2,w
  4159  0A93  04A8               	iorwf	___xxtofl@arg+2,f
  4160  0A94  0823               	movf	??___xxtofl+3,w
  4161  0A95  04A9               	iorwf	___xxtofl@arg+3,f
  4162  0A96                     l3096:	
  4163  0A96  0824               	movf	___xxtofl@sign,w
  4164  0A97  1903               	btfsc	3,2
  4165  0A98  2A9A               	goto	u4421
  4166  0A99  2A9B               	goto	u4420
  4167  0A9A                     u4421:	
  4168  0A9A  2AA0               	goto	l3102
  4169  0A9B                     u4420:	
  4170  0A9B                     l3098:	
  4171  0A9B  1FF6               	btfss	___xxtofl@val+3,7
  4172  0A9C  2A9E               	goto	u4431
  4173  0A9D  2A9F               	goto	u4430
  4174  0A9E                     u4431:	
  4175  0A9E  2AA0               	goto	l3102
  4176  0A9F                     u4430:	
  4177  0A9F                     l3100:	
  4178  0A9F  17A9               	bsf	___xxtofl@arg+3,7
  4179  0AA0                     l3102:	
  4180  0AA0  0829               	movf	___xxtofl@arg+3,w
  4181  0AA1  00F6               	movwf	?___xxtofl+3
  4182  0AA2  0828               	movf	___xxtofl@arg+2,w
  4183  0AA3  00F5               	movwf	?___xxtofl+2
  4184  0AA4  0827               	movf	___xxtofl@arg+1,w
  4185  0AA5  00F4               	movwf	?___xxtofl+1
  4186  0AA6  0826               	movf	___xxtofl@arg,w
  4187  0AA7  00F3               	movwf	?___xxtofl
  4188  0AA8                     l735:	
  4189  0AA8  0008               	return
  4190  0AA9                     __end_of___xxtofl:	
  4191                           
  4192                           	psect	text15
  4193  0971                     __ptext15:	
  4194 ;; *************** function ___fltol *****************
  4195 ;; Defined at:
  4196 ;;		line 43 in file "C:\Program Files (x86)\Microchip\xc8\v2.10\pic\sources\c90\common\fltol.c"
  4197 ;; Parameters:    Size  Location     Type
  4198 ;;  f1              4    3[COMMON] unsigned char 
  4199 ;; Auto vars:     Size  Location     Type
  4200 ;;  exp1            1    6[BANK0 ] unsigned char 
  4201 ;;  sign1           1    5[BANK0 ] unsigned char 
  4202 ;; Return value:  Size  Location     Type
  4203 ;;                  4    3[COMMON] long 
  4204 ;; Registers used:
  4205 ;;		wreg, status,2, status,0
  4206 ;; Tracked objects:
  4207 ;;		On entry : 0/0
  4208 ;;		On exit  : 0/0
  4209 ;;		Unchanged: 0/0
  4210 ;; Data sizes:     COMMON   BANK0   BANK1   BANK3   BANK2
  4211 ;;      Params:         4       0       0       0       0
  4212 ;;      Locals:         0       2       0       0       0
  4213 ;;      Temps:          0       5       0       0       0
  4214 ;;      Totals:         4       7       0       0       0
  4215 ;;Total ram usage:       11 bytes
  4216 ;; Hardware stack levels used:    1
  4217 ;; Hardware stack levels required when called:    1
  4218 ;; This function calls:
  4219 ;;		Nothing
  4220 ;; This function is called by:
  4221 ;;		_main
  4222 ;; This function uses a non-reentrant model
  4223 ;;
  4224                           
  4225                           
  4226                           ;psect for function ___fltol
  4227  0971                     ___fltol:	
  4228  0971                     l3020:	
  4229                           ;incstack = 0
  4230                           ; Regs used in ___fltol: [wreg+status,2+status,0]
  4231                           
  4232  0971  1003               	clrc
  4233  0972  0D75               	rlf	___fltol@f1+2,w
  4234  0973  0D76               	rlf	___fltol@f1+3,w
  4235  0974  1283               	bcf	3,5	;RP0=0, select bank0
  4236  0975  1303               	bcf	3,6	;RP1=0, select bank0
  4237  0976  00A0               	movwf	??___fltol
  4238  0977  0820               	movf	??___fltol,w
  4239  0978  00A6               	movwf	___fltol@exp1
  4240  0979  0826               	movf	___fltol@exp1,w
  4241  097A  1D03               	btfss	3,2
  4242  097B  297D               	goto	u4201
  4243  097C  297E               	goto	u4200
  4244  097D                     u4201:	
  4245  097D  2987               	goto	l3026
  4246  097E                     u4200:	
  4247  097E                     l3022:	
  4248  097E  3000               	movlw	0
  4249  097F  00F6               	movwf	?___fltol+3
  4250  0980  3000               	movlw	0
  4251  0981  00F5               	movwf	?___fltol+2
  4252  0982  3000               	movlw	0
  4253  0983  00F4               	movwf	?___fltol+1
  4254  0984  3000               	movlw	0
  4255  0985  00F3               	movwf	?___fltol
  4256  0986  29EC               	goto	l492
  4257  0987                     l3026:	
  4258  0987  0873               	movf	___fltol@f1,w
  4259  0988  00A0               	movwf	??___fltol
  4260  0989  0874               	movf	___fltol@f1+1,w
  4261  098A  00A1               	movwf	??___fltol+1
  4262  098B  0875               	movf	___fltol@f1+2,w
  4263  098C  00A2               	movwf	??___fltol+2
  4264  098D  0876               	movf	___fltol@f1+3,w
  4265  098E  00A3               	movwf	??___fltol+3
  4266  098F  301F               	movlw	31
  4267  0990                     u4215:	
  4268  0990  1003               	clrc
  4269  0991  0CA3               	rrf	??___fltol+3,f
  4270  0992  0CA2               	rrf	??___fltol+2,f
  4271  0993  0CA1               	rrf	??___fltol+1,f
  4272  0994  0CA0               	rrf	??___fltol,f
  4273  0995                     u4210:	
  4274  0995  3EFF               	addlw	-1
  4275  0996  1D03               	skipz
  4276  0997  2990               	goto	u4215
  4277  0998  0820               	movf	??___fltol,w
  4278  0999  00A4               	movwf	??___fltol+4
  4279  099A  0824               	movf	??___fltol+4,w
  4280  099B  00A5               	movwf	___fltol@sign1
  4281  099C                     l3028:	
  4282  099C  17F5               	bsf	___fltol@f1+2,7
  4283  099D                     l3030:	
  4284  099D  30FF               	movlw	255
  4285  099E  05F3               	andwf	___fltol@f1,f
  4286  099F  30FF               	movlw	255
  4287  09A0  05F4               	andwf	___fltol@f1+1,f
  4288  09A1  30FF               	movlw	255
  4289  09A2  05F5               	andwf	___fltol@f1+2,f
  4290  09A3  3000               	movlw	0
  4291  09A4  05F6               	andwf	___fltol@f1+3,f
  4292  09A5                     l3032:	
  4293  09A5  3096               	movlw	150
  4294  09A6  02A6               	subwf	___fltol@exp1,f
  4295  09A7                     l3034:	
  4296  09A7  1FA6               	btfss	___fltol@exp1,7
  4297  09A8  29AA               	goto	u4221
  4298  09A9  29AB               	goto	u4220
  4299  09AA                     u4221:	
  4300  09AA  29C5               	goto	l3044
  4301  09AB                     u4220:	
  4302  09AB                     l3036:	
  4303  09AB  0826               	movf	___fltol@exp1,w
  4304  09AC  3A80               	xorlw	128
  4305  09AD  3E97               	addlw	151
  4306  09AE  1803               	skipnc
  4307  09AF  29B1               	goto	u4231
  4308  09B0  29B2               	goto	u4230
  4309  09B1                     u4231:	
  4310  09B1  29B3               	goto	l3042
  4311  09B2                     u4230:	
  4312  09B2  297E               	goto	l3022
  4313  09B3                     l3042:	
  4314  09B3  3001               	movlw	1
  4315  09B4                     u4245:	
  4316  09B4  1003               	clrc
  4317  09B5  0CF6               	rrf	___fltol@f1+3,f
  4318  09B6  0CF5               	rrf	___fltol@f1+2,f
  4319  09B7  0CF4               	rrf	___fltol@f1+1,f
  4320  09B8  0CF3               	rrf	___fltol@f1,f
  4321  09B9  3EFF               	addlw	-1
  4322  09BA  1D03               	skipz
  4323  09BB  29B4               	goto	u4245
  4324  09BC  3001               	movlw	1
  4325  09BD  00A0               	movwf	??___fltol
  4326  09BE  0820               	movf	??___fltol,w
  4327  09BF  07A6               	addwf	___fltol@exp1,f
  4328  09C0  1D03               	btfss	3,2
  4329  09C1  29C3               	goto	u4251
  4330  09C2  29C4               	goto	u4250
  4331  09C3                     u4251:	
  4332  09C3  29B3               	goto	l3042
  4333  09C4                     u4250:	
  4334  09C4  29DC               	goto	l3052
  4335  09C5                     l3044:	
  4336  09C5  3020               	movlw	32
  4337  09C6  0226               	subwf	___fltol@exp1,w
  4338  09C7  1C03               	skipc
  4339  09C8  29CA               	goto	u4261
  4340  09C9  29CB               	goto	u4260
  4341  09CA                     u4261:	
  4342  09CA  29D7               	goto	l499
  4343  09CB                     u4260:	
  4344  09CB  297E               	goto	l3022
  4345  09CC                     l3050:	
  4346  09CC  3001               	movlw	1
  4347  09CD  00A0               	movwf	??___fltol
  4348  09CE                     u4275:	
  4349  09CE  1003               	clrc
  4350  09CF  0DF3               	rlf	___fltol@f1,f
  4351  09D0  0DF4               	rlf	___fltol@f1+1,f
  4352  09D1  0DF5               	rlf	___fltol@f1+2,f
  4353  09D2  0DF6               	rlf	___fltol@f1+3,f
  4354  09D3  0BA0               	decfsz	??___fltol,f
  4355  09D4  29CE               	goto	u4275
  4356  09D5  3001               	movlw	1
  4357  09D6  02A6               	subwf	___fltol@exp1,f
  4358  09D7                     l499:	
  4359  09D7  0826               	movf	___fltol@exp1,w
  4360  09D8  1D03               	btfss	3,2
  4361  09D9  29DB               	goto	u4281
  4362  09DA  29DC               	goto	u4280
  4363  09DB                     u4281:	
  4364  09DB  29CC               	goto	l3050
  4365  09DC                     u4280:	
  4366  09DC                     l3052:	
  4367  09DC  0825               	movf	___fltol@sign1,w
  4368  09DD  1903               	btfsc	3,2
  4369  09DE  29E0               	goto	u4291
  4370  09DF  29E1               	goto	u4290
  4371  09E0                     u4291:	
  4372  09E0  29EC               	goto	l502
  4373  09E1                     u4290:	
  4374  09E1                     l3054:	
  4375  09E1  09F3               	comf	___fltol@f1,f
  4376  09E2  09F4               	comf	___fltol@f1+1,f
  4377  09E3  09F5               	comf	___fltol@f1+2,f
  4378  09E4  09F6               	comf	___fltol@f1+3,f
  4379  09E5  0AF3               	incf	___fltol@f1,f
  4380  09E6  1903               	skipnz
  4381  09E7  0AF4               	incf	___fltol@f1+1,f
  4382  09E8  1903               	skipnz
  4383  09E9  0AF5               	incf	___fltol@f1+2,f
  4384  09EA  1903               	skipnz
  4385  09EB  0AF6               	incf	___fltol@f1+3,f
  4386  09EC                     l502:	
  4387  09EC                     l492:	
  4388  09EC  0008               	return
  4389  09ED                     __end_of___fltol:	
  4390                           
  4391                           	psect	text16
  4392  17B3                     __ptext16:	
  4393 ;; *************** function ___flsub *****************
  4394 ;; Defined at:
  4395 ;;		line 242 in file "C:\Program Files (x86)\Microchip\xc8\v2.10\pic\sources\c90\common\sprcadd.c"
  4396 ;; Parameters:    Size  Location     Type
  4397 ;;  a               4   16[BANK0 ] long 
  4398 ;;  b               4   20[BANK0 ] long 
  4399 ;; Auto vars:     Size  Location     Type
  4400 ;;		None
  4401 ;; Return value:  Size  Location     Type
  4402 ;;                  4   16[BANK0 ] long 
  4403 ;; Registers used:
  4404 ;;		wreg, status,2, status,0, btemp+1, pclath, cstack
  4405 ;; Tracked objects:
  4406 ;;		On entry : 0/0
  4407 ;;		On exit  : 0/0
  4408 ;;		Unchanged: 0/0
  4409 ;; Data sizes:     COMMON   BANK0   BANK1   BANK3   BANK2
  4410 ;;      Params:         0       8       0       0       0
  4411 ;;      Locals:         0       0       0       0       0
  4412 ;;      Temps:          0       0       0       0       0
  4413 ;;      Totals:         0       8       0       0       0
  4414 ;;Total ram usage:        8 bytes
  4415 ;; Hardware stack levels used:    1
  4416 ;; Hardware stack levels required when called:    2
  4417 ;; This function calls:
  4418 ;;		___fladd
  4419 ;; This function is called by:
  4420 ;;		_main
  4421 ;; This function uses a non-reentrant model
  4422 ;;
  4423                           
  4424                           
  4425                           ;psect for function ___flsub
  4426  17B3                     ___flsub:	
  4427  17B3                     l3056:	
  4428                           ;incstack = 0
  4429                           ; Regs used in ___flsub: [wreg+status,2+status,0+btemp+1+pclath+cstack]
  4430                           
  4431  17B3  3080               	movlw	128
  4432  17B4  1283               	bcf	3,5	;RP0=0, select bank0
  4433  17B5  1303               	bcf	3,6	;RP1=0, select bank0
  4434  17B6  06B3               	xorwf	___flsub@a+3,f
  4435  17B7                     l3058:	
  4436  17B7  0837               	movf	___flsub@b+3,w
  4437  17B8  00A3               	movwf	___fladd@b+3
  4438  17B9  0836               	movf	___flsub@b+2,w
  4439  17BA  00A2               	movwf	___fladd@b+2
  4440  17BB  0835               	movf	___flsub@b+1,w
  4441  17BC  00A1               	movwf	___fladd@b+1
  4442  17BD  0834               	movf	___flsub@b,w
  4443  17BE  00A0               	movwf	___fladd@b
  4444  17BF  0833               	movf	___flsub@a+3,w
  4445  17C0  00A7               	movwf	___fladd@a+3
  4446  17C1  0832               	movf	___flsub@a+2,w
  4447  17C2  00A6               	movwf	___fladd@a+2
  4448  17C3  0831               	movf	___flsub@a+1,w
  4449  17C4  00A5               	movwf	___fladd@a+1
  4450  17C5  0830               	movf	___flsub@a,w
  4451  17C6  00A4               	movwf	___fladd@a
  4452  17C7  120A  158A  2570  160A  118A  	fcall	___fladd
  4453  17CC  1283               	bcf	3,5	;RP0=0, select bank0
  4454  17CD  1303               	bcf	3,6	;RP1=0, select bank0
  4455  17CE  0823               	movf	?___fladd+3,w
  4456  17CF  00B3               	movwf	?___flsub+3
  4457  17D0  0822               	movf	?___fladd+2,w
  4458  17D1  00B2               	movwf	?___flsub+2
  4459  17D2  0821               	movf	?___fladd+1,w
  4460  17D3  00B1               	movwf	?___flsub+1
  4461  17D4  0820               	movf	?___fladd,w
  4462  17D5  00B0               	movwf	?___flsub
  4463  17D6                     l645:	
  4464  17D6  0008               	return
  4465  17D7                     __end_of___flsub:	
  4466                           
  4467                           	psect	text17
  4468  0D70                     __ptext17:	
  4469 ;; *************** function ___fladd *****************
  4470 ;; Defined at:
  4471 ;;		line 10 in file "C:\Program Files (x86)\Microchip\xc8\v2.10\pic\sources\c90\common\sprcadd.c"
  4472 ;; Parameters:    Size  Location     Type
  4473 ;;  b               4    0[BANK0 ] long 
  4474 ;;  a               4    4[BANK0 ] long 
  4475 ;; Auto vars:     Size  Location     Type
  4476 ;;  grs             1    6[COMMON] unsigned char 
  4477 ;;  bexp            1    5[COMMON] unsigned char 
  4478 ;;  aexp            1    4[COMMON] unsigned char 
  4479 ;;  signs           1    3[COMMON] unsigned char 
  4480 ;; Return value:  Size  Location     Type
  4481 ;;                  4    0[BANK0 ] unsigned char 
  4482 ;; Registers used:
  4483 ;;		wreg, status,2, status,0, btemp+1
  4484 ;; Tracked objects:
  4485 ;;		On entry : 0/0
  4486 ;;		On exit  : 0/0
  4487 ;;		Unchanged: 0/0
  4488 ;; Data sizes:     COMMON   BANK0   BANK1   BANK3   BANK2
  4489 ;;      Params:         0       8       0       0       0
  4490 ;;      Locals:         4       0       0       0       0
  4491 ;;      Temps:          0       8       0       0       0
  4492 ;;      Totals:         4      16       0       0       0
  4493 ;;Total ram usage:       20 bytes
  4494 ;; Hardware stack levels used:    1
  4495 ;; Hardware stack levels required when called:    1
  4496 ;; This function calls:
  4497 ;;		Nothing
  4498 ;; This function is called by:
  4499 ;;		___flsub
  4500 ;; This function uses a non-reentrant model
  4501 ;;
  4502                           
  4503                           
  4504                           ;psect for function ___fladd
  4505  0D70                     ___fladd:	
  4506  0D70                     l2824:	
  4507                           ;incstack = 0
  4508                           ; Regs used in ___fladd: [wreg+status,2+status,0+btemp+1]
  4509                           
  4510  0D70  1283               	bcf	3,5	;RP0=0, select bank0
  4511  0D71  1303               	bcf	3,6	;RP1=0, select bank0
  4512  0D72  0823               	movf	___fladd@b+3,w
  4513  0D73  3980               	andlw	128
  4514  0D74  00A8               	movwf	??___fladd
  4515  0D75  0828               	movf	??___fladd,w
  4516  0D76  00F3               	movwf	___fladd@signs
  4517  0D77                     l2826:	
  4518  0D77  0823               	movf	___fladd@b+3,w
  4519  0D78  00A8               	movwf	??___fladd
  4520  0D79  0728               	addwf	??___fladd,w
  4521  0D7A  00A9               	movwf	??___fladd+1
  4522  0D7B  0829               	movf	??___fladd+1,w
  4523  0D7C  00F5               	movwf	___fladd@bexp
  4524  0D7D                     l2828:	
  4525  0D7D  1FA2               	btfss	___fladd@b+2,7
  4526  0D7E  2D80               	goto	u3741
  4527  0D7F  2D81               	goto	u3740
  4528  0D80                     u3741:	
  4529  0D80  2D82               	goto	l2832
  4530  0D81                     u3740:	
  4531  0D81                     l2830:	
  4532  0D81  1475               	bsf	___fladd@bexp,0
  4533  0D82                     l2832:	
  4534  0D82  0875               	movf	___fladd@bexp,w
  4535  0D83  1903               	btfsc	3,2
  4536  0D84  2D86               	goto	u3751
  4537  0D85  2D87               	goto	u3750
  4538  0D86                     u3751:	
  4539  0D86  2D97               	goto	l2842
  4540  0D87                     u3750:	
  4541  0D87                     l2834:	
  4542  0D87  0A75               	incf	___fladd@bexp,w
  4543  0D88  1D03               	btfss	3,2
  4544  0D89  2D8B               	goto	u3761
  4545  0D8A  2D8C               	goto	u3760
  4546  0D8B                     u3761:	
  4547  0D8B  2D94               	goto	l2838
  4548  0D8C                     u3760:	
  4549  0D8C                     l2836:	
  4550  0D8C  3000               	movlw	0
  4551  0D8D  00A3               	movwf	___fladd@b+3
  4552  0D8E  3000               	movlw	0
  4553  0D8F  00A2               	movwf	___fladd@b+2
  4554  0D90  3000               	movlw	0
  4555  0D91  00A1               	movwf	___fladd@b+1
  4556  0D92  3000               	movlw	0
  4557  0D93  00A0               	movwf	___fladd@b
  4558  0D94                     l2838:	
  4559  0D94  17A2               	bsf	___fladd@b+2,7
  4560  0D95                     l2840:	
  4561  0D95  01A3               	clrf	___fladd@b+3
  4562  0D96  2D9F               	goto	l2844
  4563  0D97                     l2842:	
  4564  0D97  3000               	movlw	0
  4565  0D98  00A3               	movwf	___fladd@b+3
  4566  0D99  3000               	movlw	0
  4567  0D9A  00A2               	movwf	___fladd@b+2
  4568  0D9B  3000               	movlw	0
  4569  0D9C  00A1               	movwf	___fladd@b+1
  4570  0D9D  3000               	movlw	0
  4571  0D9E  00A0               	movwf	___fladd@b
  4572  0D9F                     l2844:	
  4573  0D9F  0827               	movf	___fladd@a+3,w
  4574  0DA0  3980               	andlw	128
  4575  0DA1  00A8               	movwf	??___fladd
  4576  0DA2  0828               	movf	??___fladd,w
  4577  0DA3  00F4               	movwf	___fladd@aexp
  4578  0DA4                     l2846:	
  4579  0DA4  0874               	movf	___fladd@aexp,w
  4580  0DA5  0673               	xorwf	___fladd@signs,w
  4581  0DA6  1903               	skipnz
  4582  0DA7  2DA9               	goto	u3771
  4583  0DA8  2DAA               	goto	u3770
  4584  0DA9                     u3771:	
  4585  0DA9  2DAB               	goto	l2850
  4586  0DAA                     u3770:	
  4587  0DAA                     l2848:	
  4588  0DAA  1773               	bsf	___fladd@signs,6
  4589  0DAB                     l2850:	
  4590  0DAB  0827               	movf	___fladd@a+3,w
  4591  0DAC  00A8               	movwf	??___fladd
  4592  0DAD  0728               	addwf	??___fladd,w
  4593  0DAE  00A9               	movwf	??___fladd+1
  4594  0DAF  0829               	movf	??___fladd+1,w
  4595  0DB0  00F4               	movwf	___fladd@aexp
  4596  0DB1                     l2852:	
  4597  0DB1  1FA6               	btfss	___fladd@a+2,7
  4598  0DB2  2DB4               	goto	u3781
  4599  0DB3  2DB5               	goto	u3780
  4600  0DB4                     u3781:	
  4601  0DB4  2DB6               	goto	l2856
  4602  0DB5                     u3780:	
  4603  0DB5                     l2854:	
  4604  0DB5  1474               	bsf	___fladd@aexp,0
  4605  0DB6                     l2856:	
  4606  0DB6  0874               	movf	___fladd@aexp,w
  4607  0DB7  1903               	btfsc	3,2
  4608  0DB8  2DBA               	goto	u3791
  4609  0DB9  2DBB               	goto	u3790
  4610  0DBA                     u3791:	
  4611  0DBA  2DCB               	goto	l2866
  4612  0DBB                     u3790:	
  4613  0DBB                     l2858:	
  4614  0DBB  0A74               	incf	___fladd@aexp,w
  4615  0DBC  1D03               	btfss	3,2
  4616  0DBD  2DBF               	goto	u3801
  4617  0DBE  2DC0               	goto	u3800
  4618  0DBF                     u3801:	
  4619  0DBF  2DC8               	goto	l2862
  4620  0DC0                     u3800:	
  4621  0DC0                     l2860:	
  4622  0DC0  3000               	movlw	0
  4623  0DC1  00A7               	movwf	___fladd@a+3
  4624  0DC2  3000               	movlw	0
  4625  0DC3  00A6               	movwf	___fladd@a+2
  4626  0DC4  3000               	movlw	0
  4627  0DC5  00A5               	movwf	___fladd@a+1
  4628  0DC6  3000               	movlw	0
  4629  0DC7  00A4               	movwf	___fladd@a
  4630  0DC8                     l2862:	
  4631  0DC8  17A6               	bsf	___fladd@a+2,7
  4632  0DC9                     l2864:	
  4633  0DC9  01A7               	clrf	___fladd@a+3
  4634  0DCA  2DD3               	goto	l599
  4635  0DCB                     l2866:	
  4636  0DCB  3000               	movlw	0
  4637  0DCC  00A7               	movwf	___fladd@a+3
  4638  0DCD  3000               	movlw	0
  4639  0DCE  00A6               	movwf	___fladd@a+2
  4640  0DCF  3000               	movlw	0
  4641  0DD0  00A5               	movwf	___fladd@a+1
  4642  0DD1  3000               	movlw	0
  4643  0DD2  00A4               	movwf	___fladd@a
  4644  0DD3                     l599:	
  4645  0DD3  0875               	movf	___fladd@bexp,w
  4646  0DD4  0274               	subwf	___fladd@aexp,w
  4647  0DD5  1803               	skipnc
  4648  0DD6  2DD8               	goto	u3811
  4649  0DD7  2DD9               	goto	u3810
  4650  0DD8                     u3811:	
  4651  0DD8  2E1D               	goto	l2902
  4652  0DD9                     u3810:	
  4653  0DD9                     l2868:	
  4654  0DD9  1F73               	btfss	___fladd@signs,6
  4655  0DDA  2DDC               	goto	u3821
  4656  0DDB  2DDD               	goto	u3820
  4657  0DDC                     u3821:	
  4658  0DDC  2DE1               	goto	l2872
  4659  0DDD                     u3820:	
  4660  0DDD                     l2870:	
  4661  0DDD  3080               	movlw	128
  4662  0DDE  00A8               	movwf	??___fladd
  4663  0DDF  0828               	movf	??___fladd,w
  4664  0DE0  06F3               	xorwf	___fladd@signs,f
  4665  0DE1                     l2872:	
  4666  0DE1  0875               	movf	___fladd@bexp,w
  4667  0DE2  00A8               	movwf	??___fladd
  4668  0DE3  0828               	movf	??___fladd,w
  4669  0DE4  00F6               	movwf	___fladd@grs
  4670  0DE5                     l2874:	
  4671  0DE5  0874               	movf	___fladd@aexp,w
  4672  0DE6  00A8               	movwf	??___fladd
  4673  0DE7  0828               	movf	??___fladd,w
  4674  0DE8  00F5               	movwf	___fladd@bexp
  4675  0DE9                     l2876:	
  4676  0DE9  0876               	movf	___fladd@grs,w
  4677  0DEA  00A8               	movwf	??___fladd
  4678  0DEB  0828               	movf	??___fladd,w
  4679  0DEC  00F4               	movwf	___fladd@aexp
  4680  0DED                     l2878:	
  4681  0DED  0820               	movf	___fladd@b,w
  4682  0DEE  00A8               	movwf	??___fladd
  4683  0DEF  0828               	movf	??___fladd,w
  4684  0DF0  00F6               	movwf	___fladd@grs
  4685  0DF1                     l2880:	
  4686  0DF1  0824               	movf	___fladd@a,w
  4687  0DF2  00A8               	movwf	??___fladd
  4688  0DF3  0828               	movf	??___fladd,w
  4689  0DF4  00A0               	movwf	___fladd@b
  4690  0DF5                     l2882:	
  4691  0DF5  0876               	movf	___fladd@grs,w
  4692  0DF6  00A8               	movwf	??___fladd
  4693  0DF7  0828               	movf	??___fladd,w
  4694  0DF8  00A4               	movwf	___fladd@a
  4695  0DF9                     l2884:	
  4696  0DF9  0821               	movf	___fladd@b+1,w
  4697  0DFA  00A8               	movwf	??___fladd
  4698  0DFB  0828               	movf	??___fladd,w
  4699  0DFC  00F6               	movwf	___fladd@grs
  4700  0DFD                     l2886:	
  4701  0DFD  0825               	movf	___fladd@a+1,w
  4702  0DFE  00A8               	movwf	??___fladd
  4703  0DFF  0828               	movf	??___fladd,w
  4704  0E00  00A1               	movwf	___fladd@b+1
  4705  0E01                     l2888:	
  4706  0E01  0876               	movf	___fladd@grs,w
  4707  0E02  00A8               	movwf	??___fladd
  4708  0E03  0828               	movf	??___fladd,w
  4709  0E04  00A5               	movwf	___fladd@a+1
  4710  0E05                     l2890:	
  4711  0E05  0822               	movf	___fladd@b+2,w
  4712  0E06  00A8               	movwf	??___fladd
  4713  0E07  0828               	movf	??___fladd,w
  4714  0E08  00F6               	movwf	___fladd@grs
  4715  0E09                     l2892:	
  4716  0E09  0826               	movf	___fladd@a+2,w
  4717  0E0A  00A8               	movwf	??___fladd
  4718  0E0B  0828               	movf	??___fladd,w
  4719  0E0C  00A2               	movwf	___fladd@b+2
  4720  0E0D                     l2894:	
  4721  0E0D  0876               	movf	___fladd@grs,w
  4722  0E0E  00A8               	movwf	??___fladd
  4723  0E0F  0828               	movf	??___fladd,w
  4724  0E10  00A6               	movwf	___fladd@a+2
  4725  0E11                     l2896:	
  4726  0E11  0823               	movf	___fladd@b+3,w
  4727  0E12  00A8               	movwf	??___fladd
  4728  0E13  0828               	movf	??___fladd,w
  4729  0E14  00F6               	movwf	___fladd@grs
  4730  0E15                     l2898:	
  4731  0E15  0827               	movf	___fladd@a+3,w
  4732  0E16  00A8               	movwf	??___fladd
  4733  0E17  0828               	movf	??___fladd,w
  4734  0E18  00A3               	movwf	___fladd@b+3
  4735  0E19                     l2900:	
  4736  0E19  0876               	movf	___fladd@grs,w
  4737  0E1A  00A8               	movwf	??___fladd
  4738  0E1B  0828               	movf	??___fladd,w
  4739  0E1C  00A7               	movwf	___fladd@a+3
  4740  0E1D                     l2902:	
  4741  0E1D  01F6               	clrf	___fladd@grs
  4742  0E1E                     l2904:	
  4743  0E1E  0874               	movf	___fladd@aexp,w
  4744  0E1F  00A8               	movwf	??___fladd
  4745  0E20  01A9               	clrf	??___fladd+1
  4746  0E21  0829               	movf	??___fladd+1,w
  4747  0E22  00AB               	movwf	??___fladd+3
  4748  0E23  0875               	movf	___fladd@bexp,w
  4749  0E24  0228               	subwf	??___fladd,w
  4750  0E25  00AA               	movwf	??___fladd+2
  4751  0E26  1C03               	skipc
  4752  0E27  03AB               	decf	??___fladd+3,f
  4753  0E28  082B               	movf	??___fladd+3,w
  4754  0E29  3A80               	xorlw	128
  4755  0E2A  00FF               	movwf	btemp+1
  4756  0E2B  3080               	movlw	128
  4757  0E2C  027F               	subwf	btemp+1,w
  4758  0E2D  1D03               	skipz
  4759  0E2E  2E31               	goto	u3835
  4760  0E2F  301A               	movlw	26
  4761  0E30  022A               	subwf	??___fladd+2,w
  4762  0E31                     u3835:	
  4763  0E31  1C03               	skipc
  4764  0E32  2E34               	goto	u3831
  4765  0E33  2E35               	goto	u3830
  4766  0E34                     u3831:	
  4767  0E34  2E76               	goto	l2920
  4768  0E35                     u3830:	
  4769  0E35                     l2906:	
  4770  0E35  1283               	bcf	3,5	;RP0=0, select bank0
  4771  0E36  1303               	bcf	3,6	;RP1=0, select bank0
  4772  0E37  0823               	movf	___fladd@b+3,w
  4773  0E38  0422               	iorwf	___fladd@b+2,w
  4774  0E39  0421               	iorwf	___fladd@b+1,w
  4775  0E3A  0420               	iorwf	___fladd@b,w
  4776  0E3B  1D03               	skipz
  4777  0E3C  2E3E               	goto	u3841
  4778  0E3D  2E40               	goto	u3840
  4779  0E3E                     u3841:	
  4780  0E3E  3001               	movlw	1
  4781  0E3F  2E41               	goto	u3850
  4782  0E40                     u3840:	
  4783  0E40  3000               	movlw	0
  4784  0E41                     u3850:	
  4785  0E41  00A8               	movwf	??___fladd
  4786  0E42  0828               	movf	??___fladd,w
  4787  0E43  00F6               	movwf	___fladd@grs
  4788  0E44  3000               	movlw	0
  4789  0E45  00A3               	movwf	___fladd@b+3
  4790  0E46  3000               	movlw	0
  4791  0E47  00A2               	movwf	___fladd@b+2
  4792  0E48  3000               	movlw	0
  4793  0E49  00A1               	movwf	___fladd@b+1
  4794  0E4A  3000               	movlw	0
  4795  0E4B  00A0               	movwf	___fladd@b
  4796  0E4C  0874               	movf	___fladd@aexp,w
  4797  0E4D  00A8               	movwf	??___fladd
  4798  0E4E  0828               	movf	??___fladd,w
  4799  0E4F  00F5               	movwf	___fladd@bexp
  4800  0E50  2E7C               	goto	l603
  4801  0E51                     l605:	
  4802  0E51  1C76               	btfss	___fladd@grs,0
  4803  0E52  2E54               	goto	u3861
  4804  0E53  2E55               	goto	u3860
  4805  0E54                     u3861:	
  4806  0E54  2E60               	goto	l2910
  4807  0E55                     u3860:	
  4808  0E55                     l2908:	
  4809  0E55  0876               	movf	___fladd@grs,w
  4810  0E56  1283               	bcf	3,5	;RP0=0, select bank0
  4811  0E57  1303               	bcf	3,6	;RP1=0, select bank0
  4812  0E58  00A8               	movwf	??___fladd
  4813  0E59  1003               	clrc
  4814  0E5A  0C28               	rrf	??___fladd,w
  4815  0E5B  3801               	iorlw	1
  4816  0E5C  00A9               	movwf	??___fladd+1
  4817  0E5D  0829               	movf	??___fladd+1,w
  4818  0E5E  00F6               	movwf	___fladd@grs
  4819  0E5F  2E62               	goto	l2912
  4820  0E60                     l2910:	
  4821  0E60  1003               	clrc
  4822  0E61  0CF6               	rrf	___fladd@grs,f
  4823  0E62                     l2912:	
  4824  0E62  1283               	bcf	3,5	;RP0=0, select bank0
  4825  0E63  1303               	bcf	3,6	;RP1=0, select bank0
  4826  0E64  1C20               	btfss	___fladd@b,0
  4827  0E65  2E67               	goto	u3871
  4828  0E66  2E68               	goto	u3870
  4829  0E67                     u3871:	
  4830  0E67  2E69               	goto	l2916
  4831  0E68                     u3870:	
  4832  0E68                     l2914:	
  4833  0E68  17F6               	bsf	___fladd@grs,7
  4834  0E69                     l2916:	
  4835  0E69  3001               	movlw	1
  4836  0E6A  00A8               	movwf	??___fladd
  4837  0E6B                     u3885:	
  4838  0E6B  0D23               	rlf	___fladd@b+3,w
  4839  0E6C  0CA3               	rrf	___fladd@b+3,f
  4840  0E6D  0CA2               	rrf	___fladd@b+2,f
  4841  0E6E  0CA1               	rrf	___fladd@b+1,f
  4842  0E6F  0CA0               	rrf	___fladd@b,f
  4843  0E70  0BA8               	decfsz	??___fladd& (0+127),f
  4844  0E71  2E6B               	goto	u3885
  4845  0E72                     l2918:	
  4846  0E72  3001               	movlw	1
  4847  0E73  00A8               	movwf	??___fladd
  4848  0E74  0828               	movf	??___fladd,w
  4849  0E75  07F5               	addwf	___fladd@bexp,f
  4850  0E76                     l2920:	
  4851  0E76  0874               	movf	___fladd@aexp,w
  4852  0E77  0275               	subwf	___fladd@bexp,w
  4853  0E78  1C03               	skipc
  4854  0E79  2E7B               	goto	u3891
  4855  0E7A  2E7C               	goto	u3890
  4856  0E7B                     u3891:	
  4857  0E7B  2E51               	goto	l605
  4858  0E7C                     u3890:	
  4859  0E7C                     l603:	
  4860  0E7C  1B73               	btfsc	___fladd@signs,6
  4861  0E7D  2E7F               	goto	u3901
  4862  0E7E  2E80               	goto	u3900
  4863  0E7F                     u3901:	
  4864  0E7F  2ECF               	goto	l2946
  4865  0E80                     u3900:	
  4866  0E80                     l2922:	
  4867  0E80  0875               	movf	___fladd@bexp,w
  4868  0E81  1D03               	btfss	3,2
  4869  0E82  2E84               	goto	u3911
  4870  0E83  2E85               	goto	u3910
  4871  0E84                     u3911:	
  4872  0E84  2E90               	goto	l2928
  4873  0E85                     u3910:	
  4874  0E85                     l2924:	
  4875  0E85  3000               	movlw	0
  4876  0E86  1283               	bcf	3,5	;RP0=0, select bank0
  4877  0E87  1303               	bcf	3,6	;RP1=0, select bank0
  4878  0E88  00A3               	movwf	?___fladd+3
  4879  0E89  3000               	movlw	0
  4880  0E8A  00A2               	movwf	?___fladd+2
  4881  0E8B  3000               	movlw	0
  4882  0E8C  00A1               	movwf	?___fladd+1
  4883  0E8D  3000               	movlw	0
  4884  0E8E  00A0               	movwf	?___fladd
  4885  0E8F  2FFF               	goto	l612
  4886  0E90                     l2928:	
  4887  0E90  1283               	bcf	3,5	;RP0=0, select bank0
  4888  0E91  1303               	bcf	3,6	;RP1=0, select bank0
  4889  0E92  0824               	movf	___fladd@a,w
  4890  0E93  07A0               	addwf	___fladd@b,f
  4891  0E94  0825               	movf	___fladd@a+1,w
  4892  0E95  1103               	clrz
  4893  0E96  1803               	skipnc
  4894  0E97  3E01               	addlw	1
  4895  0E98  1903               	skipnz
  4896  0E99  2E9B               	goto	u3921
  4897  0E9A  07A1               	addwf	___fladd@b+1,f
  4898  0E9B                     u3921:	
  4899  0E9B  0826               	movf	___fladd@a+2,w
  4900  0E9C  1103               	clrz
  4901  0E9D  1803               	skipnc
  4902  0E9E  3E01               	addlw	1
  4903  0E9F  1903               	skipnz
  4904  0EA0  2EA2               	goto	u3922
  4905  0EA1  07A2               	addwf	___fladd@b+2,f
  4906  0EA2                     u3922:	
  4907  0EA2  0827               	movf	___fladd@a+3,w
  4908  0EA3  1103               	clrz
  4909  0EA4  1803               	skipnc
  4910  0EA5  3E01               	addlw	1
  4911  0EA6  1903               	skipnz
  4912  0EA7  2EA9               	goto	u3923
  4913  0EA8  07A3               	addwf	___fladd@b+3,f
  4914  0EA9                     u3923:	
  4915  0EA9                     l2930:	
  4916  0EA9  1C23               	btfss	___fladd@b+3,0
  4917  0EAA  2EAC               	goto	u3931
  4918  0EAB  2EAD               	goto	u3930
  4919  0EAC                     u3931:	
  4920  0EAC  2F85               	goto	l2980
  4921  0EAD                     u3930:	
  4922  0EAD                     l2932:	
  4923  0EAD  1C76               	btfss	___fladd@grs,0
  4924  0EAE  2EB0               	goto	u3941
  4925  0EAF  2EB1               	goto	u3940
  4926  0EB0                     u3941:	
  4927  0EB0  2EBA               	goto	l2936
  4928  0EB1                     u3940:	
  4929  0EB1                     l2934:	
  4930  0EB1  0876               	movf	___fladd@grs,w
  4931  0EB2  00A8               	movwf	??___fladd
  4932  0EB3  1003               	clrc
  4933  0EB4  0C28               	rrf	??___fladd,w
  4934  0EB5  3801               	iorlw	1
  4935  0EB6  00A9               	movwf	??___fladd+1
  4936  0EB7  0829               	movf	??___fladd+1,w
  4937  0EB8  00F6               	movwf	___fladd@grs
  4938  0EB9  2EBC               	goto	l2938
  4939  0EBA                     l2936:	
  4940  0EBA  1003               	clrc
  4941  0EBB  0CF6               	rrf	___fladd@grs,f
  4942  0EBC                     l2938:	
  4943  0EBC  1C20               	btfss	___fladd@b,0
  4944  0EBD  2EBF               	goto	u3951
  4945  0EBE  2EC0               	goto	u3950
  4946  0EBF                     u3951:	
  4947  0EBF  2EC1               	goto	l2942
  4948  0EC0                     u3950:	
  4949  0EC0                     l2940:	
  4950  0EC0  17F6               	bsf	___fladd@grs,7
  4951  0EC1                     l2942:	
  4952  0EC1  3001               	movlw	1
  4953  0EC2  00A8               	movwf	??___fladd
  4954  0EC3                     u3965:	
  4955  0EC3  0D23               	rlf	___fladd@b+3,w
  4956  0EC4  0CA3               	rrf	___fladd@b+3,f
  4957  0EC5  0CA2               	rrf	___fladd@b+2,f
  4958  0EC6  0CA1               	rrf	___fladd@b+1,f
  4959  0EC7  0CA0               	rrf	___fladd@b,f
  4960  0EC8  0BA8               	decfsz	??___fladd& (0+127),f
  4961  0EC9  2EC3               	goto	u3965
  4962  0ECA                     l2944:	
  4963  0ECA  3001               	movlw	1
  4964  0ECB  00A8               	movwf	??___fladd
  4965  0ECC  0828               	movf	??___fladd,w
  4966  0ECD  07F5               	addwf	___fladd@bexp,f
  4967  0ECE  2F85               	goto	l2980
  4968  0ECF                     l2946:	
  4969  0ECF  1283               	bcf	3,5	;RP0=0, select bank0
  4970  0ED0  1303               	bcf	3,6	;RP1=0, select bank0
  4971  0ED1  0823               	movf	___fladd@b+3,w
  4972  0ED2  3A80               	xorlw	128
  4973  0ED3  00FF               	movwf	btemp+1
  4974  0ED4  0827               	movf	___fladd@a+3,w
  4975  0ED5  3A80               	xorlw	128
  4976  0ED6  027F               	subwf	btemp+1,w
  4977  0ED7  1D03               	skipz
  4978  0ED8  2EE3               	goto	u3973
  4979  0ED9  0826               	movf	___fladd@a+2,w
  4980  0EDA  0222               	subwf	___fladd@b+2,w
  4981  0EDB  1D03               	skipz
  4982  0EDC  2EE3               	goto	u3973
  4983  0EDD  0825               	movf	___fladd@a+1,w
  4984  0EDE  0221               	subwf	___fladd@b+1,w
  4985  0EDF  1D03               	skipz
  4986  0EE0  2EE3               	goto	u3973
  4987  0EE1  0824               	movf	___fladd@a,w
  4988  0EE2  0220               	subwf	___fladd@b,w
  4989  0EE3                     u3973:	
  4990  0EE3  1803               	skipnc
  4991  0EE4  2EE6               	goto	u3971
  4992  0EE5  2EE7               	goto	u3970
  4993  0EE6                     u3971:	
  4994  0EE6  2F3F               	goto	l2956
  4995  0EE7                     u3970:	
  4996  0EE7                     l2948:	
  4997  0EE7  30FF               	movlw	255
  4998  0EE8  00A8               	movwf	??___fladd
  4999  0EE9  30FF               	movlw	255
  5000  0EEA  00A9               	movwf	??___fladd+1
  5001  0EEB  30FF               	movlw	255
  5002  0EEC  00AA               	movwf	??___fladd+2
  5003  0EED  30FF               	movlw	255
  5004  0EEE  00AB               	movwf	??___fladd+3
  5005  0EEF  0824               	movf	___fladd@a,w
  5006  0EF0  00AC               	movwf	??___fladd+4
  5007  0EF1  0825               	movf	___fladd@a+1,w
  5008  0EF2  00AD               	movwf	??___fladd+5
  5009  0EF3  0826               	movf	___fladd@a+2,w
  5010  0EF4  00AE               	movwf	??___fladd+6
  5011  0EF5  0827               	movf	___fladd@a+3,w
  5012  0EF6  00AF               	movwf	??___fladd+7
  5013  0EF7  0820               	movf	___fladd@b,w
  5014  0EF8  02AC               	subwf	??___fladd+4,f
  5015  0EF9  0821               	movf	___fladd@b+1,w
  5016  0EFA  1C03               	skipc
  5017  0EFB  0F21               	incfsz	___fladd@b+1,w
  5018  0EFC  2EFE               	goto	u3981
  5019  0EFD  2EFF               	goto	u3982
  5020  0EFE                     u3981:	
  5021  0EFE  02AD               	subwf	??___fladd+5,f
  5022  0EFF                     u3982:	
  5023  0EFF  0822               	movf	___fladd@b+2,w
  5024  0F00  1C03               	skipc
  5025  0F01  0F22               	incfsz	___fladd@b+2,w
  5026  0F02  2F04               	goto	u3983
  5027  0F03  2F05               	goto	u3984
  5028  0F04                     u3983:	
  5029  0F04  02AE               	subwf	??___fladd+6,f
  5030  0F05                     u3984:	
  5031  0F05  0823               	movf	___fladd@b+3,w
  5032  0F06  1C03               	skipc
  5033  0F07  0F23               	incfsz	___fladd@b+3,w
  5034  0F08  2F0A               	goto	u3985
  5035  0F09  2F0B               	goto	u3986
  5036  0F0A                     u3985:	
  5037  0F0A  02AF               	subwf	??___fladd+7,f
  5038  0F0B                     u3986:	
  5039  0F0B  082C               	movf	??___fladd+4,w
  5040  0F0C  07A8               	addwf	??___fladd,f
  5041  0F0D  082D               	movf	??___fladd+5,w
  5042  0F0E  1803               	skipnc
  5043  0F0F  0F2D               	incfsz	??___fladd+5,w
  5044  0F10  2F12               	goto	u3990
  5045  0F11  2F13               	goto	u3991
  5046  0F12                     u3990:	
  5047  0F12  07A9               	addwf	??___fladd+1,f
  5048  0F13                     u3991:	
  5049  0F13  082E               	movf	??___fladd+6,w
  5050  0F14  1803               	skipnc
  5051  0F15  0F2E               	incfsz	??___fladd+6,w
  5052  0F16  2F18               	goto	u3992
  5053  0F17  2F19               	goto	u3993
  5054  0F18                     u3992:	
  5055  0F18  07AA               	addwf	??___fladd+2,f
  5056  0F19                     u3993:	
  5057  0F19  082F               	movf	??___fladd+7,w
  5058  0F1A  1803               	skipnc
  5059  0F1B  0A2F               	incf	??___fladd+7,w
  5060  0F1C  07AB               	addwf	??___fladd+3,f
  5061  0F1D  082B               	movf	??___fladd+3,w
  5062  0F1E  00A3               	movwf	___fladd@b+3
  5063  0F1F  082A               	movf	??___fladd+2,w
  5064  0F20  00A2               	movwf	___fladd@b+2
  5065  0F21  0829               	movf	??___fladd+1,w
  5066  0F22  00A1               	movwf	___fladd@b+1
  5067  0F23  0828               	movf	??___fladd,w
  5068  0F24  00A0               	movwf	___fladd@b
  5069  0F25                     l2950:	
  5070  0F25  3080               	movlw	128
  5071  0F26  00A8               	movwf	??___fladd
  5072  0F27  0828               	movf	??___fladd,w
  5073  0F28  06F3               	xorwf	___fladd@signs,f
  5074  0F29  09F6               	comf	___fladd@grs,f
  5075  0F2A  0AF6               	incf	___fladd@grs,f
  5076  0F2B                     l2952:	
  5077  0F2B  0876               	movf	___fladd@grs,w
  5078  0F2C  1D03               	btfss	3,2
  5079  0F2D  2F2F               	goto	u4001
  5080  0F2E  2F30               	goto	u4000
  5081  0F2F                     u4001:	
  5082  0F2F  2F4D               	goto	l620
  5083  0F30                     u4000:	
  5084  0F30                     l2954:	
  5085  0F30  3001               	movlw	1
  5086  0F31  07A0               	addwf	___fladd@b,f
  5087  0F32  3000               	movlw	0
  5088  0F33  1803               	skipnc
  5089  0F34  3001               	movlw	1
  5090  0F35  07A1               	addwf	___fladd@b+1,f
  5091  0F36  3000               	movlw	0
  5092  0F37  1803               	skipnc
  5093  0F38  3001               	movlw	1
  5094  0F39  07A2               	addwf	___fladd@b+2,f
  5095  0F3A  3000               	movlw	0
  5096  0F3B  1803               	skipnc
  5097  0F3C  3001               	movlw	1
  5098  0F3D  07A3               	addwf	___fladd@b+3,f
  5099  0F3E  2F4D               	goto	l620
  5100  0F3F                     l2956:	
  5101  0F3F  0824               	movf	___fladd@a,w
  5102  0F40  02A0               	subwf	___fladd@b,f
  5103  0F41  0825               	movf	___fladd@a+1,w
  5104  0F42  1C03               	skipc
  5105  0F43  0F25               	incfsz	___fladd@a+1,w
  5106  0F44  02A1               	subwf	___fladd@b+1,f
  5107  0F45  0826               	movf	___fladd@a+2,w
  5108  0F46  1C03               	skipc
  5109  0F47  0F26               	incfsz	___fladd@a+2,w
  5110  0F48  02A2               	subwf	___fladd@b+2,f
  5111  0F49  0827               	movf	___fladd@a+3,w
  5112  0F4A  1C03               	skipc
  5113  0F4B  0F27               	incfsz	___fladd@a+3,w
  5114  0F4C  02A3               	subwf	___fladd@b+3,f
  5115  0F4D                     l620:	
  5116  0F4D  0823               	movf	___fladd@b+3,w
  5117  0F4E  0422               	iorwf	___fladd@b+2,w
  5118  0F4F  0421               	iorwf	___fladd@b+1,w
  5119  0F50  0420               	iorwf	___fladd@b,w
  5120  0F51  1D03               	skipz
  5121  0F52  2F54               	goto	u4011
  5122  0F53  2F55               	goto	u4010
  5123  0F54                     u4011:	
  5124  0F54  2F81               	goto	l2978
  5125  0F55                     u4010:	
  5126  0F55                     l2958:	
  5127  0F55  0876               	movf	___fladd@grs,w
  5128  0F56  1D03               	btfss	3,2
  5129  0F57  2F59               	goto	u4021
  5130  0F58  2F5A               	goto	u4020
  5131  0F59                     u4021:	
  5132  0F59  2F81               	goto	l2978
  5133  0F5A                     u4020:	
  5134  0F5A                     l2960:	
  5135  0F5A  3000               	movlw	0
  5136  0F5B  00A3               	movwf	?___fladd+3
  5137  0F5C  3000               	movlw	0
  5138  0F5D  00A2               	movwf	?___fladd+2
  5139  0F5E  3000               	movlw	0
  5140  0F5F  00A1               	movwf	?___fladd+1
  5141  0F60  3000               	movlw	0
  5142  0F61  00A0               	movwf	?___fladd
  5143  0F62  2FFF               	goto	l612
  5144  0F63                     l2964:	
  5145  0F63  3001               	movlw	1
  5146  0F64  00A8               	movwf	??___fladd
  5147  0F65                     u4035:	
  5148  0F65  1003               	clrc
  5149  0F66  0DA0               	rlf	___fladd@b,f
  5150  0F67  0DA1               	rlf	___fladd@b+1,f
  5151  0F68  0DA2               	rlf	___fladd@b+2,f
  5152  0F69  0DA3               	rlf	___fladd@b+3,f
  5153  0F6A  0BA8               	decfsz	??___fladd,f
  5154  0F6B  2F65               	goto	u4035
  5155  0F6C                     l2966:	
  5156  0F6C  1FF6               	btfss	___fladd@grs,7
  5157  0F6D  2F6F               	goto	u4041
  5158  0F6E  2F70               	goto	u4040
  5159  0F6F                     u4041:	
  5160  0F6F  2F71               	goto	l624
  5161  0F70                     u4040:	
  5162  0F70                     l2968:	
  5163  0F70  1420               	bsf	___fladd@b,0
  5164  0F71                     l624:	
  5165  0F71  1C76               	btfss	___fladd@grs,0
  5166  0F72  2F74               	goto	u4051
  5167  0F73  2F75               	goto	u4050
  5168  0F74                     u4051:	
  5169  0F74  2F78               	goto	l2972
  5170  0F75                     u4050:	
  5171  0F75                     l2970:	
  5172  0F75  1403               	setc
  5173  0F76  0DF6               	rlf	___fladd@grs,f
  5174  0F77  2F7A               	goto	l2974
  5175  0F78                     l2972:	
  5176  0F78  1003               	clrc
  5177  0F79  0DF6               	rlf	___fladd@grs,f
  5178  0F7A                     l2974:	
  5179  0F7A  0875               	movf	___fladd@bexp,w
  5180  0F7B  1903               	btfsc	3,2
  5181  0F7C  2F7E               	goto	u4061
  5182  0F7D  2F7F               	goto	u4060
  5183  0F7E                     u4061:	
  5184  0F7E  2F81               	goto	l2978
  5185  0F7F                     u4060:	
  5186  0F7F                     l2976:	
  5187  0F7F  3001               	movlw	1
  5188  0F80  02F5               	subwf	___fladd@bexp,f
  5189  0F81                     l2978:	
  5190  0F81  1FA2               	btfss	___fladd@b+2,7
  5191  0F82  2F84               	goto	u4071
  5192  0F83  2F85               	goto	u4070
  5193  0F84                     u4071:	
  5194  0F84  2F63               	goto	l2964
  5195  0F85                     u4070:	
  5196  0F85                     l2980:	
  5197  0F85  01F4               	clrf	___fladd@aexp
  5198  0F86                     l2982:	
  5199  0F86  1FF6               	btfss	___fladd@grs,7
  5200  0F87  2F89               	goto	u4081
  5201  0F88  2F8A               	goto	u4080
  5202  0F89                     u4081:	
  5203  0F89  2F98               	goto	l2990
  5204  0F8A                     u4080:	
  5205  0F8A                     l2984:	
  5206  0F8A  0876               	movf	___fladd@grs,w
  5207  0F8B  397F               	andlw	127
  5208  0F8C  1903               	btfsc	3,2
  5209  0F8D  2F8F               	goto	u4091
  5210  0F8E  2F90               	goto	u4090
  5211  0F8F                     u4091:	
  5212  0F8F  2F93               	goto	l630
  5213  0F90                     u4090:	
  5214  0F90                     l2986:	
  5215  0F90  01F4               	clrf	___fladd@aexp
  5216  0F91  0AF4               	incf	___fladd@aexp,f
  5217  0F92  2F98               	goto	l2990
  5218  0F93                     l630:	
  5219  0F93  1C20               	btfss	___fladd@b,0
  5220  0F94  2F96               	goto	u4101
  5221  0F95  2F97               	goto	u4100
  5222  0F96                     u4101:	
  5223  0F96  2F98               	goto	l2990
  5224  0F97                     u4100:	
  5225  0F97  2F90               	goto	l2986
  5226  0F98                     l2990:	
  5227  0F98  0874               	movf	___fladd@aexp,w
  5228  0F99  1903               	btfsc	3,2
  5229  0F9A  2F9C               	goto	u4111
  5230  0F9B  2F9D               	goto	u4110
  5231  0F9C                     u4111:	
  5232  0F9C  2FD1               	goto	l633
  5233  0F9D                     u4110:	
  5234  0F9D                     l2992:	
  5235  0F9D  3001               	movlw	1
  5236  0F9E  07A0               	addwf	___fladd@b,f
  5237  0F9F  3000               	movlw	0
  5238  0FA0  1803               	skipnc
  5239  0FA1  3001               	movlw	1
  5240  0FA2  07A1               	addwf	___fladd@b+1,f
  5241  0FA3  3000               	movlw	0
  5242  0FA4  1803               	skipnc
  5243  0FA5  3001               	movlw	1
  5244  0FA6  07A2               	addwf	___fladd@b+2,f
  5245  0FA7  3000               	movlw	0
  5246  0FA8  1803               	skipnc
  5247  0FA9  3001               	movlw	1
  5248  0FAA  07A3               	addwf	___fladd@b+3,f
  5249  0FAB                     l2994:	
  5250  0FAB  1C23               	btfss	___fladd@b+3,0
  5251  0FAC  2FAE               	goto	u4121
  5252  0FAD  2FAF               	goto	u4120
  5253  0FAE                     u4121:	
  5254  0FAE  2FD1               	goto	l633
  5255  0FAF                     u4120:	
  5256  0FAF                     l2996:	
  5257  0FAF  0820               	movf	___fladd@b,w
  5258  0FB0  00A8               	movwf	??___fladd
  5259  0FB1  0821               	movf	___fladd@b+1,w
  5260  0FB2  00A9               	movwf	??___fladd+1
  5261  0FB3  0822               	movf	___fladd@b+2,w
  5262  0FB4  00AA               	movwf	??___fladd+2
  5263  0FB5  0823               	movf	___fladd@b+3,w
  5264  0FB6  00AB               	movwf	??___fladd+3
  5265  0FB7  3001               	movlw	1
  5266  0FB8  00AC               	movwf	??___fladd+4
  5267  0FB9                     u4135:	
  5268  0FB9  0D2B               	rlf	??___fladd+3,w
  5269  0FBA  0CAB               	rrf	??___fladd+3,f
  5270  0FBB  0CAA               	rrf	??___fladd+2,f
  5271  0FBC  0CA9               	rrf	??___fladd+1,f
  5272  0FBD  0CA8               	rrf	??___fladd,f
  5273  0FBE                     u4130:	
  5274  0FBE  0BAC               	decfsz	??___fladd+4,f
  5275  0FBF  2FB9               	goto	u4135
  5276  0FC0  082B               	movf	??___fladd+3,w
  5277  0FC1  00A3               	movwf	___fladd@b+3
  5278  0FC2  082A               	movf	??___fladd+2,w
  5279  0FC3  00A2               	movwf	___fladd@b+2
  5280  0FC4  0829               	movf	??___fladd+1,w
  5281  0FC5  00A1               	movwf	___fladd@b+1
  5282  0FC6  0828               	movf	??___fladd,w
  5283  0FC7  00A0               	movwf	___fladd@b
  5284  0FC8  0A75               	incf	___fladd@bexp,w
  5285  0FC9  1903               	btfsc	3,2
  5286  0FCA  2FCC               	goto	u4141
  5287  0FCB  2FCD               	goto	u4140
  5288  0FCC                     u4141:	
  5289  0FCC  2FD1               	goto	l633
  5290  0FCD                     u4140:	
  5291  0FCD                     l2998:	
  5292  0FCD  3001               	movlw	1
  5293  0FCE  00A8               	movwf	??___fladd
  5294  0FCF  0828               	movf	??___fladd,w
  5295  0FD0  07F5               	addwf	___fladd@bexp,f
  5296  0FD1                     l633:	
  5297  0FD1  0A75               	incf	___fladd@bexp,w
  5298  0FD2  1903               	btfsc	3,2
  5299  0FD3  2FD5               	goto	u4151
  5300  0FD4  2FD6               	goto	u4150
  5301  0FD5                     u4151:	
  5302  0FD5  2FDB               	goto	l3002
  5303  0FD6                     u4150:	
  5304  0FD6                     l3000:	
  5305  0FD6  0875               	movf	___fladd@bexp,w
  5306  0FD7  1D03               	btfss	3,2
  5307  0FD8  2FDA               	goto	u4161
  5308  0FD9  2FDB               	goto	u4160
  5309  0FDA                     u4161:	
  5310  0FDA  2FE9               	goto	l3008
  5311  0FDB                     u4160:	
  5312  0FDB                     l3002:	
  5313  0FDB  3000               	movlw	0
  5314  0FDC  00A3               	movwf	___fladd@b+3
  5315  0FDD  3000               	movlw	0
  5316  0FDE  00A2               	movwf	___fladd@b+2
  5317  0FDF  3000               	movlw	0
  5318  0FE0  00A1               	movwf	___fladd@b+1
  5319  0FE1  3000               	movlw	0
  5320  0FE2  00A0               	movwf	___fladd@b
  5321  0FE3                     l3004:	
  5322  0FE3  0875               	movf	___fladd@bexp,w
  5323  0FE4  1D03               	btfss	3,2
  5324  0FE5  2FE7               	goto	u4171
  5325  0FE6  2FE8               	goto	u4170
  5326  0FE7                     u4171:	
  5327  0FE7  2FE9               	goto	l3008
  5328  0FE8                     u4170:	
  5329  0FE8                     l3006:	
  5330  0FE8  01F3               	clrf	___fladd@signs
  5331  0FE9                     l3008:	
  5332  0FE9  1C75               	btfss	___fladd@bexp,0
  5333  0FEA  2FEC               	goto	u4181
  5334  0FEB  2FED               	goto	u4180
  5335  0FEC                     u4181:	
  5336  0FEC  2FEF               	goto	l3012
  5337  0FED                     u4180:	
  5338  0FED                     l3010:	
  5339  0FED  17A2               	bsf	___fladd@b+2,7
  5340  0FEE  2FF3               	goto	l641
  5341  0FEF                     l3012:	
  5342  0FEF  307F               	movlw	127
  5343  0FF0  00A8               	movwf	??___fladd
  5344  0FF1  0828               	movf	??___fladd,w
  5345  0FF2  05A2               	andwf	___fladd@b+2,f
  5346  0FF3                     l641:	
  5347  0FF3  0875               	movf	___fladd@bexp,w
  5348  0FF4  00A8               	movwf	??___fladd
  5349  0FF5  1003               	clrc
  5350  0FF6  0C28               	rrf	??___fladd,w
  5351  0FF7  00A9               	movwf	??___fladd+1
  5352  0FF8  0829               	movf	??___fladd+1,w
  5353  0FF9  00A3               	movwf	___fladd@b+3
  5354  0FFA                     l3014:	
  5355  0FFA  1FF3               	btfss	___fladd@signs,7
  5356  0FFB  2FFD               	goto	u4191
  5357  0FFC  2FFE               	goto	u4190
  5358  0FFD                     u4191:	
  5359  0FFD  2FFF               	goto	l642
  5360  0FFE                     u4190:	
  5361  0FFE                     l3016:	
  5362  0FFE  17A3               	bsf	___fladd@b+3,7
  5363  0FFF                     l642:	
  5364  0FFF                     l612:	
  5365  0FFF  0008               	return
  5366  1000                     __end_of___fladd:	
  5367                           
  5368                           	psect	text18
  5369  03F8                     __ptext18:	
  5370 ;; *************** function ___flmul *****************
  5371 ;; Defined at:
  5372 ;;		line 8 in file "C:\Program Files (x86)\Microchip\xc8\v2.10\pic\sources\c90\common\sprcmul.c"
  5373 ;; Parameters:    Size  Location     Type
  5374 ;;  b               4   24[BANK0 ] unsigned char 
  5375 ;;  a               4   28[BANK0 ] unsigned char 
  5376 ;; Auto vars:     Size  Location     Type
  5377 ;;  prod            4   44[BANK0 ] struct .
  5378 ;;  grs             4   38[BANK0 ] unsigned long 
  5379 ;;  temp            2   48[BANK0 ] struct .
  5380 ;;  bexp            1   43[BANK0 ] unsigned char 
  5381 ;;  aexp            1   42[BANK0 ] unsigned char 
  5382 ;;  sign            1   37[BANK0 ] unsigned char 
  5383 ;; Return value:  Size  Location     Type
  5384 ;;                  4   24[BANK0 ] unsigned char 
  5385 ;; Registers used:
  5386 ;;		wreg, status,2, status,0, btemp+1, pclath, cstack
  5387 ;; Tracked objects:
  5388 ;;		On entry : 0/0
  5389 ;;		On exit  : 0/0
  5390 ;;		Unchanged: 0/0
  5391 ;; Data sizes:     COMMON   BANK0   BANK1   BANK3   BANK2
  5392 ;;      Params:         0       8       0       0       0
  5393 ;;      Locals:         0      13       0       0       0
  5394 ;;      Temps:          0       5       0       0       0
  5395 ;;      Totals:         0      26       0       0       0
  5396 ;;Total ram usage:       26 bytes
  5397 ;; Hardware stack levels used:    1
  5398 ;; Hardware stack levels required when called:    2
  5399 ;; This function calls:
  5400 ;;		__Umul8_16
  5401 ;; This function is called by:
  5402 ;;		_main
  5403 ;; This function uses a non-reentrant model
  5404 ;;
  5405                           
  5406                           
  5407                           ;psect for function ___flmul
  5408  03F8                     ___flmul:	
  5409  03F8                     l2368:	
  5410                           ;incstack = 0
  5411                           ; Regs used in ___flmul: [wreg+status,2+status,0+btemp+1+pclath+cstack]
  5412                           
  5413  03F8  1283               	bcf	3,5	;RP0=0, select bank0
  5414  03F9  1303               	bcf	3,6	;RP1=0, select bank0
  5415  03FA  083B               	movf	___flmul@b+3,w
  5416  03FB  3980               	andlw	128
  5417  03FC  00C0               	movwf	??___flmul
  5418  03FD  0840               	movf	??___flmul,w
  5419  03FE  00C5               	movwf	___flmul@sign
  5420  03FF                     l2370:	
  5421  03FF  083B               	movf	___flmul@b+3,w
  5422  0400  00C0               	movwf	??___flmul
  5423  0401  0740               	addwf	??___flmul,w
  5424  0402  00C1               	movwf	??___flmul+1
  5425  0403  0841               	movf	??___flmul+1,w
  5426  0404  00CB               	movwf	___flmul@bexp
  5427  0405                     l2372:	
  5428  0405  1FBA               	btfss	___flmul@b+2,7
  5429  0406  2C08               	goto	u2971
  5430  0407  2C09               	goto	u2970
  5431  0408                     u2971:	
  5432  0408  2C0A               	goto	l2376
  5433  0409                     u2970:	
  5434  0409                     l2374:	
  5435  0409  144B               	bsf	___flmul@bexp,0
  5436  040A                     l2376:	
  5437  040A  084B               	movf	___flmul@bexp,w
  5438  040B  1903               	btfsc	3,2
  5439  040C  2C0E               	goto	u2981
  5440  040D  2C0F               	goto	u2980
  5441  040E                     u2981:	
  5442  040E  2C1E               	goto	l2384
  5443  040F                     u2980:	
  5444  040F                     l2378:	
  5445  040F  0A4B               	incf	___flmul@bexp,w
  5446  0410  1D03               	btfss	3,2
  5447  0411  2C13               	goto	u2991
  5448  0412  2C14               	goto	u2990
  5449  0413                     u2991:	
  5450  0413  2C1C               	goto	l2382
  5451  0414                     u2990:	
  5452  0414                     l2380:	
  5453  0414  3000               	movlw	0
  5454  0415  00BB               	movwf	___flmul@b+3
  5455  0416  3000               	movlw	0
  5456  0417  00BA               	movwf	___flmul@b+2
  5457  0418  3000               	movlw	0
  5458  0419  00B9               	movwf	___flmul@b+1
  5459  041A  3000               	movlw	0
  5460  041B  00B8               	movwf	___flmul@b
  5461  041C                     l2382:	
  5462  041C  17BA               	bsf	___flmul@b+2,7
  5463  041D  2C26               	goto	l2386
  5464  041E                     l2384:	
  5465  041E  3000               	movlw	0
  5466  041F  00BB               	movwf	___flmul@b+3
  5467  0420  3000               	movlw	0
  5468  0421  00BA               	movwf	___flmul@b+2
  5469  0422  3000               	movlw	0
  5470  0423  00B9               	movwf	___flmul@b+1
  5471  0424  3000               	movlw	0
  5472  0425  00B8               	movwf	___flmul@b
  5473  0426                     l2386:	
  5474  0426  083F               	movf	___flmul@a+3,w
  5475  0427  3980               	andlw	128
  5476  0428  00C0               	movwf	??___flmul
  5477  0429  0840               	movf	??___flmul,w
  5478  042A  06C5               	xorwf	___flmul@sign,f
  5479  042B                     l2388:	
  5480  042B  083F               	movf	___flmul@a+3,w
  5481  042C  00C0               	movwf	??___flmul
  5482  042D  0740               	addwf	??___flmul,w
  5483  042E  00C1               	movwf	??___flmul+1
  5484  042F  0841               	movf	??___flmul+1,w
  5485  0430  00CA               	movwf	___flmul@aexp
  5486  0431                     l2390:	
  5487  0431  1FBE               	btfss	___flmul@a+2,7
  5488  0432  2C34               	goto	u3001
  5489  0433  2C35               	goto	u3000
  5490  0434                     u3001:	
  5491  0434  2C36               	goto	l2394
  5492  0435                     u3000:	
  5493  0435                     l2392:	
  5494  0435  144A               	bsf	___flmul@aexp,0
  5495  0436                     l2394:	
  5496  0436  084A               	movf	___flmul@aexp,w
  5497  0437  1903               	btfsc	3,2
  5498  0438  2C3A               	goto	u3011
  5499  0439  2C3B               	goto	u3010
  5500  043A                     u3011:	
  5501  043A  2C4A               	goto	l2402
  5502  043B                     u3010:	
  5503  043B                     l2396:	
  5504  043B  0A4A               	incf	___flmul@aexp,w
  5505  043C  1D03               	btfss	3,2
  5506  043D  2C3F               	goto	u3021
  5507  043E  2C40               	goto	u3020
  5508  043F                     u3021:	
  5509  043F  2C48               	goto	l2400
  5510  0440                     u3020:	
  5511  0440                     l2398:	
  5512  0440  3000               	movlw	0
  5513  0441  00BF               	movwf	___flmul@a+3
  5514  0442  3000               	movlw	0
  5515  0443  00BE               	movwf	___flmul@a+2
  5516  0444  3000               	movlw	0
  5517  0445  00BD               	movwf	___flmul@a+1
  5518  0446  3000               	movlw	0
  5519  0447  00BC               	movwf	___flmul@a
  5520  0448                     l2400:	
  5521  0448  17BE               	bsf	___flmul@a+2,7
  5522  0449  2C52               	goto	l2404
  5523  044A                     l2402:	
  5524  044A  3000               	movlw	0
  5525  044B  00BF               	movwf	___flmul@a+3
  5526  044C  3000               	movlw	0
  5527  044D  00BE               	movwf	___flmul@a+2
  5528  044E  3000               	movlw	0
  5529  044F  00BD               	movwf	___flmul@a+1
  5530  0450  3000               	movlw	0
  5531  0451  00BC               	movwf	___flmul@a
  5532  0452                     l2404:	
  5533  0452  084A               	movf	___flmul@aexp,w
  5534  0453  1903               	btfsc	3,2
  5535  0454  2C56               	goto	u3031
  5536  0455  2C57               	goto	u3030
  5537  0456                     u3031:	
  5538  0456  2C5C               	goto	l2408
  5539  0457                     u3030:	
  5540  0457                     l2406:	
  5541  0457  084B               	movf	___flmul@bexp,w
  5542  0458  1D03               	btfss	3,2
  5543  0459  2C5B               	goto	u3041
  5544  045A  2C5C               	goto	u3040
  5545  045B                     u3041:	
  5546  045B  2C65               	goto	l2412
  5547  045C                     u3040:	
  5548  045C                     l2408:	
  5549  045C  3000               	movlw	0
  5550  045D  00BB               	movwf	?___flmul+3
  5551  045E  3000               	movlw	0
  5552  045F  00BA               	movwf	?___flmul+2
  5553  0460  3000               	movlw	0
  5554  0461  00B9               	movwf	?___flmul+1
  5555  0462  3000               	movlw	0
  5556  0463  00B8               	movwf	?___flmul
  5557  0464  2F58               	goto	l695
  5558  0465                     l2412:	
  5559  0465  0838               	movf	___flmul@b,w
  5560  0466  00C0               	movwf	??___flmul
  5561  0467  0840               	movf	??___flmul,w
  5562  0468  00F3               	movwf	__Umul8_16@multiplicand
  5563  0469  083E               	movf	___flmul@a+2,w
  5564  046A  160A  118A  27D7  120A  118A  	fcall	__Umul8_16
  5565  046F  0874               	movf	?__Umul8_16+1,w
  5566  0470  1283               	bcf	3,5	;RP0=0, select bank0
  5567  0471  1303               	bcf	3,6	;RP1=0, select bank0
  5568  0472  00D1               	movwf	___flmul@temp+1
  5569  0473  0873               	movf	?__Umul8_16,w
  5570  0474  00D0               	movwf	___flmul@temp
  5571  0475                     l2414:	
  5572  0475  0850               	movf	___flmul@temp,w
  5573  0476  00C0               	movwf	??___flmul
  5574  0477  01C1               	clrf	??___flmul+1
  5575  0478  01C2               	clrf	??___flmul+2
  5576  0479  01C3               	clrf	??___flmul+3
  5577  047A  0843               	movf	??___flmul+3,w
  5578  047B  00C9               	movwf	___flmul@grs+3
  5579  047C  0842               	movf	??___flmul+2,w
  5580  047D  00C8               	movwf	___flmul@grs+2
  5581  047E  0841               	movf	??___flmul+1,w
  5582  047F  00C7               	movwf	___flmul@grs+1
  5583  0480  0840               	movf	??___flmul,w
  5584  0481  00C6               	movwf	___flmul@grs
  5585  0482                     l2416:	
  5586  0482  0851               	movf	___flmul@temp+1,w
  5587  0483  00C0               	movwf	??___flmul
  5588  0484  01C1               	clrf	??___flmul+1
  5589  0485  01C2               	clrf	??___flmul+2
  5590  0486  01C3               	clrf	??___flmul+3
  5591  0487  0843               	movf	??___flmul+3,w
  5592  0488  00CF               	movwf	___flmul@prod+3
  5593  0489  0842               	movf	??___flmul+2,w
  5594  048A  00CE               	movwf	___flmul@prod+2
  5595  048B  0841               	movf	??___flmul+1,w
  5596  048C  00CD               	movwf	___flmul@prod+1
  5597  048D  0840               	movf	??___flmul,w
  5598  048E  00CC               	movwf	___flmul@prod
  5599  048F  0839               	movf	___flmul@b+1,w
  5600  0490  00C0               	movwf	??___flmul
  5601  0491  0840               	movf	??___flmul,w
  5602  0492  00F3               	movwf	__Umul8_16@multiplicand
  5603  0493  083D               	movf	___flmul@a+1,w
  5604  0494  160A  118A  27D7  120A  118A  	fcall	__Umul8_16
  5605  0499  0874               	movf	?__Umul8_16+1,w
  5606  049A  1283               	bcf	3,5	;RP0=0, select bank0
  5607  049B  1303               	bcf	3,6	;RP1=0, select bank0
  5608  049C  00D1               	movwf	___flmul@temp+1
  5609  049D  0873               	movf	?__Umul8_16,w
  5610  049E  00D0               	movwf	___flmul@temp
  5611  049F                     l2418:	
  5612  049F  0850               	movf	___flmul@temp,w
  5613  04A0  00C0               	movwf	??___flmul
  5614  04A1  01C1               	clrf	??___flmul+1
  5615  04A2  01C2               	clrf	??___flmul+2
  5616  04A3  01C3               	clrf	??___flmul+3
  5617  04A4  0840               	movf	??___flmul,w
  5618  04A5  07C6               	addwf	___flmul@grs,f
  5619  04A6  0841               	movf	??___flmul+1,w
  5620  04A7  1103               	clrz
  5621  04A8  1803               	skipnc
  5622  04A9  3E01               	addlw	1
  5623  04AA  1903               	skipnz
  5624  04AB  2CAD               	goto	u3051
  5625  04AC  07C7               	addwf	___flmul@grs+1,f
  5626  04AD                     u3051:	
  5627  04AD  0842               	movf	??___flmul+2,w
  5628  04AE  1103               	clrz
  5629  04AF  1803               	skipnc
  5630  04B0  3E01               	addlw	1
  5631  04B1  1903               	skipnz
  5632  04B2  2CB4               	goto	u3052
  5633  04B3  07C8               	addwf	___flmul@grs+2,f
  5634  04B4                     u3052:	
  5635  04B4  0843               	movf	??___flmul+3,w
  5636  04B5  1103               	clrz
  5637  04B6  1803               	skipnc
  5638  04B7  3E01               	addlw	1
  5639  04B8  1903               	skipnz
  5640  04B9  2CBB               	goto	u3053
  5641  04BA  07C9               	addwf	___flmul@grs+3,f
  5642  04BB                     u3053:	
  5643  04BB                     l2420:	
  5644  04BB  0851               	movf	___flmul@temp+1,w
  5645  04BC  00C0               	movwf	??___flmul
  5646  04BD  01C1               	clrf	??___flmul+1
  5647  04BE  01C2               	clrf	??___flmul+2
  5648  04BF  01C3               	clrf	??___flmul+3
  5649  04C0  0840               	movf	??___flmul,w
  5650  04C1  07CC               	addwf	___flmul@prod,f
  5651  04C2  0841               	movf	??___flmul+1,w
  5652  04C3  1103               	clrz
  5653  04C4  1803               	skipnc
  5654  04C5  3E01               	addlw	1
  5655  04C6  1903               	skipnz
  5656  04C7  2CC9               	goto	u3061
  5657  04C8  07CD               	addwf	___flmul@prod+1,f
  5658  04C9                     u3061:	
  5659  04C9  0842               	movf	??___flmul+2,w
  5660  04CA  1103               	clrz
  5661  04CB  1803               	skipnc
  5662  04CC  3E01               	addlw	1
  5663  04CD  1903               	skipnz
  5664  04CE  2CD0               	goto	u3062
  5665  04CF  07CE               	addwf	___flmul@prod+2,f
  5666  04D0                     u3062:	
  5667  04D0  0843               	movf	??___flmul+3,w
  5668  04D1  1103               	clrz
  5669  04D2  1803               	skipnc
  5670  04D3  3E01               	addlw	1
  5671  04D4  1903               	skipnz
  5672  04D5  2CD7               	goto	u3063
  5673  04D6  07CF               	addwf	___flmul@prod+3,f
  5674  04D7                     u3063:	
  5675  04D7  083A               	movf	___flmul@b+2,w
  5676  04D8  00C0               	movwf	??___flmul
  5677  04D9  0840               	movf	??___flmul,w
  5678  04DA  00F3               	movwf	__Umul8_16@multiplicand
  5679  04DB  083C               	movf	___flmul@a,w
  5680  04DC  160A  118A  27D7  120A  118A  	fcall	__Umul8_16
  5681  04E1  0874               	movf	?__Umul8_16+1,w
  5682  04E2  1283               	bcf	3,5	;RP0=0, select bank0
  5683  04E3  1303               	bcf	3,6	;RP1=0, select bank0
  5684  04E4  00D1               	movwf	___flmul@temp+1
  5685  04E5  0873               	movf	?__Umul8_16,w
  5686  04E6  00D0               	movwf	___flmul@temp
  5687  04E7                     l2422:	
  5688  04E7  0850               	movf	___flmul@temp,w
  5689  04E8  00C0               	movwf	??___flmul
  5690  04E9  01C1               	clrf	??___flmul+1
  5691  04EA  01C2               	clrf	??___flmul+2
  5692  04EB  01C3               	clrf	??___flmul+3
  5693  04EC  0840               	movf	??___flmul,w
  5694  04ED  07C6               	addwf	___flmul@grs,f
  5695  04EE  0841               	movf	??___flmul+1,w
  5696  04EF  1103               	clrz
  5697  04F0  1803               	skipnc
  5698  04F1  3E01               	addlw	1
  5699  04F2  1903               	skipnz
  5700  04F3  2CF5               	goto	u3071
  5701  04F4  07C7               	addwf	___flmul@grs+1,f
  5702  04F5                     u3071:	
  5703  04F5  0842               	movf	??___flmul+2,w
  5704  04F6  1103               	clrz
  5705  04F7  1803               	skipnc
  5706  04F8  3E01               	addlw	1
  5707  04F9  1903               	skipnz
  5708  04FA  2CFC               	goto	u3072
  5709  04FB  07C8               	addwf	___flmul@grs+2,f
  5710  04FC                     u3072:	
  5711  04FC  0843               	movf	??___flmul+3,w
  5712  04FD  1103               	clrz
  5713  04FE  1803               	skipnc
  5714  04FF  3E01               	addlw	1
  5715  0500  1903               	skipnz
  5716  0501  2D03               	goto	u3073
  5717  0502  07C9               	addwf	___flmul@grs+3,f
  5718  0503                     u3073:	
  5719  0503                     l2424:	
  5720  0503  0851               	movf	___flmul@temp+1,w
  5721  0504  00C0               	movwf	??___flmul
  5722  0505  01C1               	clrf	??___flmul+1
  5723  0506  01C2               	clrf	??___flmul+2
  5724  0507  01C3               	clrf	??___flmul+3
  5725  0508  0840               	movf	??___flmul,w
  5726  0509  07CC               	addwf	___flmul@prod,f
  5727  050A  0841               	movf	??___flmul+1,w
  5728  050B  1103               	clrz
  5729  050C  1803               	skipnc
  5730  050D  3E01               	addlw	1
  5731  050E  1903               	skipnz
  5732  050F  2D11               	goto	u3081
  5733  0510  07CD               	addwf	___flmul@prod+1,f
  5734  0511                     u3081:	
  5735  0511  0842               	movf	??___flmul+2,w
  5736  0512  1103               	clrz
  5737  0513  1803               	skipnc
  5738  0514  3E01               	addlw	1
  5739  0515  1903               	skipnz
  5740  0516  2D18               	goto	u3082
  5741  0517  07CE               	addwf	___flmul@prod+2,f
  5742  0518                     u3082:	
  5743  0518  0843               	movf	??___flmul+3,w
  5744  0519  1103               	clrz
  5745  051A  1803               	skipnc
  5746  051B  3E01               	addlw	1
  5747  051C  1903               	skipnz
  5748  051D  2D1F               	goto	u3083
  5749  051E  07CF               	addwf	___flmul@prod+3,f
  5750  051F                     u3083:	
  5751  051F                     l2426:	
  5752  051F  3008               	movlw	8
  5753  0520  00C0               	movwf	??___flmul
  5754  0521                     u3095:	
  5755  0521  1003               	clrc
  5756  0522  0DC6               	rlf	___flmul@grs,f
  5757  0523  0DC7               	rlf	___flmul@grs+1,f
  5758  0524  0DC8               	rlf	___flmul@grs+2,f
  5759  0525  0DC9               	rlf	___flmul@grs+3,f
  5760  0526  0BC0               	decfsz	??___flmul,f
  5761  0527  2D21               	goto	u3095
  5762  0528                     l2428:	
  5763  0528  0839               	movf	___flmul@b+1,w
  5764  0529  00C0               	movwf	??___flmul
  5765  052A  0840               	movf	??___flmul,w
  5766  052B  00F3               	movwf	__Umul8_16@multiplicand
  5767  052C  083C               	movf	___flmul@a,w
  5768  052D  160A  118A  27D7  120A  118A  	fcall	__Umul8_16
  5769  0532  0874               	movf	?__Umul8_16+1,w
  5770  0533  1283               	bcf	3,5	;RP0=0, select bank0
  5771  0534  1303               	bcf	3,6	;RP1=0, select bank0
  5772  0535  00D1               	movwf	___flmul@temp+1
  5773  0536  0873               	movf	?__Umul8_16,w
  5774  0537  00D0               	movwf	___flmul@temp
  5775  0538                     l2430:	
  5776  0538  0850               	movf	___flmul@temp,w
  5777  0539  00C0               	movwf	??___flmul
  5778  053A  0851               	movf	___flmul@temp+1,w
  5779  053B  00C1               	movwf	??___flmul+1
  5780  053C  01C2               	clrf	??___flmul+2
  5781  053D  01C3               	clrf	??___flmul+3
  5782  053E  0840               	movf	??___flmul,w
  5783  053F  07C6               	addwf	___flmul@grs,f
  5784  0540  0841               	movf	??___flmul+1,w
  5785  0541  1103               	clrz
  5786  0542  1803               	skipnc
  5787  0543  3E01               	addlw	1
  5788  0544  1903               	skipnz
  5789  0545  2D47               	goto	u3101
  5790  0546  07C7               	addwf	___flmul@grs+1,f
  5791  0547                     u3101:	
  5792  0547  0842               	movf	??___flmul+2,w
  5793  0548  1103               	clrz
  5794  0549  1803               	skipnc
  5795  054A  3E01               	addlw	1
  5796  054B  1903               	skipnz
  5797  054C  2D4E               	goto	u3102
  5798  054D  07C8               	addwf	___flmul@grs+2,f
  5799  054E                     u3102:	
  5800  054E  0843               	movf	??___flmul+3,w
  5801  054F  1103               	clrz
  5802  0550  1803               	skipnc
  5803  0551  3E01               	addlw	1
  5804  0552  1903               	skipnz
  5805  0553  2D55               	goto	u3103
  5806  0554  07C9               	addwf	___flmul@grs+3,f
  5807  0555                     u3103:	
  5808  0555                     l2432:	
  5809  0555  0838               	movf	___flmul@b,w
  5810  0556  00C0               	movwf	??___flmul
  5811  0557  0840               	movf	??___flmul,w
  5812  0558  00F3               	movwf	__Umul8_16@multiplicand
  5813  0559  083D               	movf	___flmul@a+1,w
  5814  055A  160A  118A  27D7  120A  118A  	fcall	__Umul8_16
  5815  055F  0874               	movf	?__Umul8_16+1,w
  5816  0560  1283               	bcf	3,5	;RP0=0, select bank0
  5817  0561  1303               	bcf	3,6	;RP1=0, select bank0
  5818  0562  00D1               	movwf	___flmul@temp+1
  5819  0563  0873               	movf	?__Umul8_16,w
  5820  0564  00D0               	movwf	___flmul@temp
  5821  0565                     l2434:	
  5822  0565  0850               	movf	___flmul@temp,w
  5823  0566  00C0               	movwf	??___flmul
  5824  0567  0851               	movf	___flmul@temp+1,w
  5825  0568  00C1               	movwf	??___flmul+1
  5826  0569  01C2               	clrf	??___flmul+2
  5827  056A  01C3               	clrf	??___flmul+3
  5828  056B  0840               	movf	??___flmul,w
  5829  056C  07C6               	addwf	___flmul@grs,f
  5830  056D  0841               	movf	??___flmul+1,w
  5831  056E  1103               	clrz
  5832  056F  1803               	skipnc
  5833  0570  3E01               	addlw	1
  5834  0571  1903               	skipnz
  5835  0572  2D74               	goto	u3111
  5836  0573  07C7               	addwf	___flmul@grs+1,f
  5837  0574                     u3111:	
  5838  0574  0842               	movf	??___flmul+2,w
  5839  0575  1103               	clrz
  5840  0576  1803               	skipnc
  5841  0577  3E01               	addlw	1
  5842  0578  1903               	skipnz
  5843  0579  2D7B               	goto	u3112
  5844  057A  07C8               	addwf	___flmul@grs+2,f
  5845  057B                     u3112:	
  5846  057B  0843               	movf	??___flmul+3,w
  5847  057C  1103               	clrz
  5848  057D  1803               	skipnc
  5849  057E  3E01               	addlw	1
  5850  057F  1903               	skipnz
  5851  0580  2D82               	goto	u3113
  5852  0581  07C9               	addwf	___flmul@grs+3,f
  5853  0582                     u3113:	
  5854  0582                     l2436:	
  5855  0582  3008               	movlw	8
  5856  0583  00C0               	movwf	??___flmul
  5857  0584                     u3125:	
  5858  0584  1003               	clrc
  5859  0585  0DC6               	rlf	___flmul@grs,f
  5860  0586  0DC7               	rlf	___flmul@grs+1,f
  5861  0587  0DC8               	rlf	___flmul@grs+2,f
  5862  0588  0DC9               	rlf	___flmul@grs+3,f
  5863  0589  0BC0               	decfsz	??___flmul,f
  5864  058A  2D84               	goto	u3125
  5865  058B  0838               	movf	___flmul@b,w
  5866  058C  00C0               	movwf	??___flmul
  5867  058D  0840               	movf	??___flmul,w
  5868  058E  00F3               	movwf	__Umul8_16@multiplicand
  5869  058F  083C               	movf	___flmul@a,w
  5870  0590  160A  118A  27D7  120A  118A  	fcall	__Umul8_16
  5871  0595  0874               	movf	?__Umul8_16+1,w
  5872  0596  1283               	bcf	3,5	;RP0=0, select bank0
  5873  0597  1303               	bcf	3,6	;RP1=0, select bank0
  5874  0598  00D1               	movwf	___flmul@temp+1
  5875  0599  0873               	movf	?__Umul8_16,w
  5876  059A  00D0               	movwf	___flmul@temp
  5877  059B                     l2438:	
  5878  059B  0850               	movf	___flmul@temp,w
  5879  059C  00C0               	movwf	??___flmul
  5880  059D  0851               	movf	___flmul@temp+1,w
  5881  059E  00C1               	movwf	??___flmul+1
  5882  059F  01C2               	clrf	??___flmul+2
  5883  05A0  01C3               	clrf	??___flmul+3
  5884  05A1  0840               	movf	??___flmul,w
  5885  05A2  07C6               	addwf	___flmul@grs,f
  5886  05A3  0841               	movf	??___flmul+1,w
  5887  05A4  1103               	clrz
  5888  05A5  1803               	skipnc
  5889  05A6  3E01               	addlw	1
  5890  05A7  1903               	skipnz
  5891  05A8  2DAA               	goto	u3131
  5892  05A9  07C7               	addwf	___flmul@grs+1,f
  5893  05AA                     u3131:	
  5894  05AA  0842               	movf	??___flmul+2,w
  5895  05AB  1103               	clrz
  5896  05AC  1803               	skipnc
  5897  05AD  3E01               	addlw	1
  5898  05AE  1903               	skipnz
  5899  05AF  2DB1               	goto	u3132
  5900  05B0  07C8               	addwf	___flmul@grs+2,f
  5901  05B1                     u3132:	
  5902  05B1  0843               	movf	??___flmul+3,w
  5903  05B2  1103               	clrz
  5904  05B3  1803               	skipnc
  5905  05B4  3E01               	addlw	1
  5906  05B5  1903               	skipnz
  5907  05B6  2DB8               	goto	u3133
  5908  05B7  07C9               	addwf	___flmul@grs+3,f
  5909  05B8                     u3133:	
  5910  05B8                     l2440:	
  5911  05B8  0839               	movf	___flmul@b+1,w
  5912  05B9  00C0               	movwf	??___flmul
  5913  05BA  0840               	movf	??___flmul,w
  5914  05BB  00F3               	movwf	__Umul8_16@multiplicand
  5915  05BC  083E               	movf	___flmul@a+2,w
  5916  05BD  160A  118A  27D7  120A  118A  	fcall	__Umul8_16
  5917  05C2  0874               	movf	?__Umul8_16+1,w
  5918  05C3  1283               	bcf	3,5	;RP0=0, select bank0
  5919  05C4  1303               	bcf	3,6	;RP1=0, select bank0
  5920  05C5  00D1               	movwf	___flmul@temp+1
  5921  05C6  0873               	movf	?__Umul8_16,w
  5922  05C7  00D0               	movwf	___flmul@temp
  5923  05C8  0850               	movf	___flmul@temp,w
  5924  05C9  00C0               	movwf	??___flmul
  5925  05CA  0851               	movf	___flmul@temp+1,w
  5926  05CB  00C1               	movwf	??___flmul+1
  5927  05CC  01C2               	clrf	??___flmul+2
  5928  05CD  01C3               	clrf	??___flmul+3
  5929  05CE  0840               	movf	??___flmul,w
  5930  05CF  07CC               	addwf	___flmul@prod,f
  5931  05D0  0841               	movf	??___flmul+1,w
  5932  05D1  1103               	clrz
  5933  05D2  1803               	skipnc
  5934  05D3  3E01               	addlw	1
  5935  05D4  1903               	skipnz
  5936  05D5  2DD7               	goto	u3141
  5937  05D6  07CD               	addwf	___flmul@prod+1,f
  5938  05D7                     u3141:	
  5939  05D7  0842               	movf	??___flmul+2,w
  5940  05D8  1103               	clrz
  5941  05D9  1803               	skipnc
  5942  05DA  3E01               	addlw	1
  5943  05DB  1903               	skipnz
  5944  05DC  2DDE               	goto	u3142
  5945  05DD  07CE               	addwf	___flmul@prod+2,f
  5946  05DE                     u3142:	
  5947  05DE  0843               	movf	??___flmul+3,w
  5948  05DF  1103               	clrz
  5949  05E0  1803               	skipnc
  5950  05E1  3E01               	addlw	1
  5951  05E2  1903               	skipnz
  5952  05E3  2DE5               	goto	u3143
  5953  05E4  07CF               	addwf	___flmul@prod+3,f
  5954  05E5                     u3143:	
  5955  05E5                     l2442:	
  5956  05E5  083A               	movf	___flmul@b+2,w
  5957  05E6  00C0               	movwf	??___flmul
  5958  05E7  0840               	movf	??___flmul,w
  5959  05E8  00F3               	movwf	__Umul8_16@multiplicand
  5960  05E9  083D               	movf	___flmul@a+1,w
  5961  05EA  160A  118A  27D7  120A  118A  	fcall	__Umul8_16
  5962  05EF  0874               	movf	?__Umul8_16+1,w
  5963  05F0  1283               	bcf	3,5	;RP0=0, select bank0
  5964  05F1  1303               	bcf	3,6	;RP1=0, select bank0
  5965  05F2  00D1               	movwf	___flmul@temp+1
  5966  05F3  0873               	movf	?__Umul8_16,w
  5967  05F4  00D0               	movwf	___flmul@temp
  5968  05F5                     l2444:	
  5969  05F5  0850               	movf	___flmul@temp,w
  5970  05F6  00C0               	movwf	??___flmul
  5971  05F7  0851               	movf	___flmul@temp+1,w
  5972  05F8  00C1               	movwf	??___flmul+1
  5973  05F9  01C2               	clrf	??___flmul+2
  5974  05FA  01C3               	clrf	??___flmul+3
  5975  05FB  0840               	movf	??___flmul,w
  5976  05FC  07CC               	addwf	___flmul@prod,f
  5977  05FD  0841               	movf	??___flmul+1,w
  5978  05FE  1103               	clrz
  5979  05FF  1803               	skipnc
  5980  0600  3E01               	addlw	1
  5981  0601  1903               	skipnz
  5982  0602  2E04               	goto	u3151
  5983  0603  07CD               	addwf	___flmul@prod+1,f
  5984  0604                     u3151:	
  5985  0604  0842               	movf	??___flmul+2,w
  5986  0605  1103               	clrz
  5987  0606  1803               	skipnc
  5988  0607  3E01               	addlw	1
  5989  0608  1903               	skipnz
  5990  0609  2E0B               	goto	u3152
  5991  060A  07CE               	addwf	___flmul@prod+2,f
  5992  060B                     u3152:	
  5993  060B  0843               	movf	??___flmul+3,w
  5994  060C  1103               	clrz
  5995  060D  1803               	skipnc
  5996  060E  3E01               	addlw	1
  5997  060F  1903               	skipnz
  5998  0610  2E12               	goto	u3153
  5999  0611  07CF               	addwf	___flmul@prod+3,f
  6000  0612                     u3153:	
  6001  0612  083A               	movf	___flmul@b+2,w
  6002  0613  00C0               	movwf	??___flmul
  6003  0614  0840               	movf	??___flmul,w
  6004  0615  00F3               	movwf	__Umul8_16@multiplicand
  6005  0616  083E               	movf	___flmul@a+2,w
  6006  0617  160A  118A  27D7  120A  118A  	fcall	__Umul8_16
  6007  061C  0874               	movf	?__Umul8_16+1,w
  6008  061D  1283               	bcf	3,5	;RP0=0, select bank0
  6009  061E  1303               	bcf	3,6	;RP1=0, select bank0
  6010  061F  00D1               	movwf	___flmul@temp+1
  6011  0620  0873               	movf	?__Umul8_16,w
  6012  0621  00D0               	movwf	___flmul@temp
  6013  0622                     l2446:	
  6014  0622  0850               	movf	___flmul@temp,w
  6015  0623  00C0               	movwf	??___flmul
  6016  0624  0851               	movf	___flmul@temp+1,w
  6017  0625  00C1               	movwf	??___flmul+1
  6018  0626  01C2               	clrf	??___flmul+2
  6019  0627  01C3               	clrf	??___flmul+3
  6020  0628  3008               	movlw	8
  6021  0629                     u3165:	
  6022  0629  1003               	clrc
  6023  062A  0DC0               	rlf	??___flmul,f
  6024  062B  0DC1               	rlf	??___flmul+1,f
  6025  062C  0DC2               	rlf	??___flmul+2,f
  6026  062D  0DC3               	rlf	??___flmul+3,f
  6027  062E                     u3160:	
  6028  062E  3EFF               	addlw	-1
  6029  062F  1D03               	skipz
  6030  0630  2E29               	goto	u3165
  6031  0631  0840               	movf	??___flmul,w
  6032  0632  07CC               	addwf	___flmul@prod,f
  6033  0633  0841               	movf	??___flmul+1,w
  6034  0634  1103               	clrz
  6035  0635  1803               	skipnc
  6036  0636  3E01               	addlw	1
  6037  0637  1903               	skipnz
  6038  0638  2E3A               	goto	u3171
  6039  0639  07CD               	addwf	___flmul@prod+1,f
  6040  063A                     u3171:	
  6041  063A  0842               	movf	??___flmul+2,w
  6042  063B  1103               	clrz
  6043  063C  1803               	skipnc
  6044  063D  3E01               	addlw	1
  6045  063E  1903               	skipnz
  6046  063F  2E41               	goto	u3172
  6047  0640  07CE               	addwf	___flmul@prod+2,f
  6048  0641                     u3172:	
  6049  0641  0843               	movf	??___flmul+3,w
  6050  0642  1103               	clrz
  6051  0643  1803               	skipnc
  6052  0644  3E01               	addlw	1
  6053  0645  1903               	skipnz
  6054  0646  2E48               	goto	u3173
  6055  0647  07CF               	addwf	___flmul@prod+3,f
  6056  0648                     u3173:	
  6057  0648                     l2448:	
  6058  0648  0846               	movf	___flmul@grs,w
  6059  0649  00C0               	movwf	??___flmul
  6060  064A  0847               	movf	___flmul@grs+1,w
  6061  064B  00C1               	movwf	??___flmul+1
  6062  064C  0848               	movf	___flmul@grs+2,w
  6063  064D  00C2               	movwf	??___flmul+2
  6064  064E  0849               	movf	___flmul@grs+3,w
  6065  064F  00C3               	movwf	??___flmul+3
  6066  0650  3018               	movlw	24
  6067  0651                     u3185:	
  6068  0651  1003               	clrc
  6069  0652  0CC3               	rrf	??___flmul+3,f
  6070  0653  0CC2               	rrf	??___flmul+2,f
  6071  0654  0CC1               	rrf	??___flmul+1,f
  6072  0655  0CC0               	rrf	??___flmul,f
  6073  0656                     u3180:	
  6074  0656  3EFF               	addlw	-1
  6075  0657  1D03               	skipz
  6076  0658  2E51               	goto	u3185
  6077  0659  0840               	movf	??___flmul,w
  6078  065A  07CC               	addwf	___flmul@prod,f
  6079  065B  0841               	movf	??___flmul+1,w
  6080  065C  1103               	clrz
  6081  065D  1803               	skipnc
  6082  065E  3E01               	addlw	1
  6083  065F  1903               	skipnz
  6084  0660  2E62               	goto	u3191
  6085  0661  07CD               	addwf	___flmul@prod+1,f
  6086  0662                     u3191:	
  6087  0662  0842               	movf	??___flmul+2,w
  6088  0663  1103               	clrz
  6089  0664  1803               	skipnc
  6090  0665  3E01               	addlw	1
  6091  0666  1903               	skipnz
  6092  0667  2E69               	goto	u3192
  6093  0668  07CE               	addwf	___flmul@prod+2,f
  6094  0669                     u3192:	
  6095  0669  0843               	movf	??___flmul+3,w
  6096  066A  1103               	clrz
  6097  066B  1803               	skipnc
  6098  066C  3E01               	addlw	1
  6099  066D  1903               	skipnz
  6100  066E  2E70               	goto	u3193
  6101  066F  07CF               	addwf	___flmul@prod+3,f
  6102  0670                     u3193:	
  6103  0670                     l2450:	
  6104  0670  3008               	movlw	8
  6105  0671  00C0               	movwf	??___flmul
  6106  0672                     u3205:	
  6107  0672  1003               	clrc
  6108  0673  0DC6               	rlf	___flmul@grs,f
  6109  0674  0DC7               	rlf	___flmul@grs+1,f
  6110  0675  0DC8               	rlf	___flmul@grs+2,f
  6111  0676  0DC9               	rlf	___flmul@grs+3,f
  6112  0677  0BC0               	decfsz	??___flmul,f
  6113  0678  2E72               	goto	u3205
  6114  0679                     l2452:	
  6115  0679  084B               	movf	___flmul@bexp,w
  6116  067A  074A               	addwf	___flmul@aexp,w
  6117  067B  00C0               	movwf	??___flmul
  6118  067C  01C1               	clrf	??___flmul+1
  6119  067D  0DC1               	rlf	??___flmul+1,f
  6120  067E  0840               	movf	??___flmul,w
  6121  067F  3E82               	addlw	130
  6122  0680  00D0               	movwf	___flmul@temp
  6123  0681  0841               	movf	??___flmul+1,w
  6124  0682  1803               	skipnc
  6125  0683  3E01               	addlw	1
  6126  0684  3EFF               	addlw	255
  6127  0685  00D1               	movwf	___flmul@temp+1
  6128  0686  2EA4               	goto	l2464
  6129  0687                     l2454:	
  6130  0687  3001               	movlw	1
  6131  0688  00C0               	movwf	??___flmul
  6132  0689                     u3215:	
  6133  0689  1003               	clrc
  6134  068A  0DCC               	rlf	___flmul@prod,f
  6135  068B  0DCD               	rlf	___flmul@prod+1,f
  6136  068C  0DCE               	rlf	___flmul@prod+2,f
  6137  068D  0DCF               	rlf	___flmul@prod+3,f
  6138  068E  0BC0               	decfsz	??___flmul,f
  6139  068F  2E89               	goto	u3215
  6140  0690                     l2456:	
  6141  0690  1FC9               	btfss	___flmul@grs+3,7
  6142  0691  2E93               	goto	u3221
  6143  0692  2E94               	goto	u3220
  6144  0693                     u3221:	
  6145  0693  2E95               	goto	l2460
  6146  0694                     u3220:	
  6147  0694                     l2458:	
  6148  0694  144C               	bsf	___flmul@prod,0
  6149  0695                     l2460:	
  6150  0695  3001               	movlw	1
  6151  0696  00C0               	movwf	??___flmul
  6152  0697                     u3235:	
  6153  0697  1003               	clrc
  6154  0698  0DC6               	rlf	___flmul@grs,f
  6155  0699  0DC7               	rlf	___flmul@grs+1,f
  6156  069A  0DC8               	rlf	___flmul@grs+2,f
  6157  069B  0DC9               	rlf	___flmul@grs+3,f
  6158  069C  0BC0               	decfsz	??___flmul,f
  6159  069D  2E97               	goto	u3235
  6160  069E                     l2462:	
  6161  069E  30FF               	movlw	255
  6162  069F  07D0               	addwf	___flmul@temp,f
  6163  06A0  1803               	skipnc
  6164  06A1  0AD1               	incf	___flmul@temp+1,f
  6165  06A2  30FF               	movlw	255
  6166  06A3  07D1               	addwf	___flmul@temp+1,f
  6167  06A4                     l2464:	
  6168  06A4  1FCE               	btfss	___flmul@prod+2,7
  6169  06A5  2EA7               	goto	u3241
  6170  06A6  2EA8               	goto	u3240
  6171  06A7                     u3241:	
  6172  06A7  2E87               	goto	l2454
  6173  06A8                     u3240:	
  6174  06A8                     l2466:	
  6175  06A8  01CA               	clrf	___flmul@aexp
  6176  06A9                     l2468:	
  6177  06A9  1FC9               	btfss	___flmul@grs+3,7
  6178  06AA  2EAC               	goto	u3251
  6179  06AB  2EAD               	goto	u3250
  6180  06AC                     u3251:	
  6181  06AC  2EC9               	goto	l2476
  6182  06AD                     u3250:	
  6183  06AD                     l2470:	
  6184  06AD  30FF               	movlw	255
  6185  06AE  0546               	andwf	___flmul@grs,w
  6186  06AF  00C0               	movwf	??___flmul
  6187  06B0  30FF               	movlw	255
  6188  06B1  0547               	andwf	___flmul@grs+1,w
  6189  06B2  00C1               	movwf	??___flmul+1
  6190  06B3  30FF               	movlw	255
  6191  06B4  0548               	andwf	___flmul@grs+2,w
  6192  06B5  00C2               	movwf	??___flmul+2
  6193  06B6  307F               	movlw	127
  6194  06B7  0549               	andwf	___flmul@grs+3,w
  6195  06B8  00C3               	movwf	??___flmul+3
  6196  06B9  0843               	movf	??___flmul+3,w
  6197  06BA  0442               	iorwf	??___flmul+2,w
  6198  06BB  0441               	iorwf	??___flmul+1,w
  6199  06BC  0440               	iorwf	??___flmul,w
  6200  06BD  1903               	skipnz
  6201  06BE  2EC0               	goto	u3261
  6202  06BF  2EC1               	goto	u3260
  6203  06C0                     u3261:	
  6204  06C0  2EC4               	goto	l701
  6205  06C1                     u3260:	
  6206  06C1                     l2472:	
  6207  06C1  01CA               	clrf	___flmul@aexp
  6208  06C2  0ACA               	incf	___flmul@aexp,f
  6209  06C3  2EC9               	goto	l2476
  6210  06C4                     l701:	
  6211  06C4  1C4C               	btfss	___flmul@prod,0
  6212  06C5  2EC7               	goto	u3271
  6213  06C6  2EC8               	goto	u3270
  6214  06C7                     u3271:	
  6215  06C7  2EC9               	goto	l2476
  6216  06C8                     u3270:	
  6217  06C8  2EC1               	goto	l2472
  6218  06C9                     l2476:	
  6219  06C9  084A               	movf	___flmul@aexp,w
  6220  06CA  1903               	btfsc	3,2
  6221  06CB  2ECD               	goto	u3281
  6222  06CC  2ECE               	goto	u3280
  6223  06CD                     u3281:	
  6224  06CD  2EFF               	goto	l2486
  6225  06CE                     u3280:	
  6226  06CE                     l2478:	
  6227  06CE  3001               	movlw	1
  6228  06CF  07CC               	addwf	___flmul@prod,f
  6229  06D0  3000               	movlw	0
  6230  06D1  1803               	skipnc
  6231  06D2  3001               	movlw	1
  6232  06D3  07CD               	addwf	___flmul@prod+1,f
  6233  06D4  3000               	movlw	0
  6234  06D5  1803               	skipnc
  6235  06D6  3001               	movlw	1
  6236  06D7  07CE               	addwf	___flmul@prod+2,f
  6237  06D8  3000               	movlw	0
  6238  06D9  1803               	skipnc
  6239  06DA  3001               	movlw	1
  6240  06DB  07CF               	addwf	___flmul@prod+3,f
  6241  06DC                     l2480:	
  6242  06DC  1C4F               	btfss	___flmul@prod+3,0
  6243  06DD  2EDF               	goto	u3291
  6244  06DE  2EE0               	goto	u3290
  6245  06DF                     u3291:	
  6246  06DF  2EFF               	goto	l2486
  6247  06E0                     u3290:	
  6248  06E0                     l2482:	
  6249  06E0  084C               	movf	___flmul@prod,w
  6250  06E1  00C0               	movwf	??___flmul
  6251  06E2  084D               	movf	___flmul@prod+1,w
  6252  06E3  00C1               	movwf	??___flmul+1
  6253  06E4  084E               	movf	___flmul@prod+2,w
  6254  06E5  00C2               	movwf	??___flmul+2
  6255  06E6  084F               	movf	___flmul@prod+3,w
  6256  06E7  00C3               	movwf	??___flmul+3
  6257  06E8  3001               	movlw	1
  6258  06E9  00C4               	movwf	??___flmul+4
  6259  06EA                     u3305:	
  6260  06EA  0D43               	rlf	??___flmul+3,w
  6261  06EB  0CC3               	rrf	??___flmul+3,f
  6262  06EC  0CC2               	rrf	??___flmul+2,f
  6263  06ED  0CC1               	rrf	??___flmul+1,f
  6264  06EE  0CC0               	rrf	??___flmul,f
  6265  06EF                     u3300:	
  6266  06EF  0BC4               	decfsz	??___flmul+4,f
  6267  06F0  2EEA               	goto	u3305
  6268  06F1  0843               	movf	??___flmul+3,w
  6269  06F2  00CF               	movwf	___flmul@prod+3
  6270  06F3  0842               	movf	??___flmul+2,w
  6271  06F4  00CE               	movwf	___flmul@prod+2
  6272  06F5  0841               	movf	??___flmul+1,w
  6273  06F6  00CD               	movwf	___flmul@prod+1
  6274  06F7  0840               	movf	??___flmul,w
  6275  06F8  00CC               	movwf	___flmul@prod
  6276  06F9                     l2484:	
  6277  06F9  3001               	movlw	1
  6278  06FA  07D0               	addwf	___flmul@temp,f
  6279  06FB  1803               	skipnc
  6280  06FC  0AD1               	incf	___flmul@temp+1,f
  6281  06FD  3000               	movlw	0
  6282  06FE  07D1               	addwf	___flmul@temp+1,f
  6283  06FF                     l2486:	
  6284  06FF  0851               	movf	___flmul@temp+1,w
  6285  0700  3A80               	xorlw	128
  6286  0701  00FF               	movwf	btemp+1
  6287  0702  3080               	movlw	128
  6288  0703  027F               	subwf	btemp+1,w
  6289  0704  1D03               	skipz
  6290  0705  2F08               	goto	u3315
  6291  0706  30FF               	movlw	255
  6292  0707  0250               	subwf	___flmul@temp,w
  6293  0708                     u3315:	
  6294  0708  1C03               	skipc
  6295  0709  2F0B               	goto	u3311
  6296  070A  2F0C               	goto	u3310
  6297  070B                     u3311:	
  6298  070B  2F17               	goto	l2490
  6299  070C                     u3310:	
  6300  070C                     l2488:	
  6301  070C  307F               	movlw	127
  6302  070D  1283               	bcf	3,5	;RP0=0, select bank0
  6303  070E  1303               	bcf	3,6	;RP1=0, select bank0
  6304  070F  00CF               	movwf	___flmul@prod+3
  6305  0710  3080               	movlw	128
  6306  0711  00CE               	movwf	___flmul@prod+2
  6307  0712  3000               	movlw	0
  6308  0713  00CD               	movwf	___flmul@prod+1
  6309  0714  3000               	movlw	0
  6310  0715  00CC               	movwf	___flmul@prod
  6311  0716  2F4C               	goto	l707
  6312  0717                     l2490:	
  6313  0717  1283               	bcf	3,5	;RP0=0, select bank0
  6314  0718  1303               	bcf	3,6	;RP1=0, select bank0
  6315  0719  0851               	movf	___flmul@temp+1,w
  6316  071A  3A80               	xorlw	128
  6317  071B  00FF               	movwf	btemp+1
  6318  071C  3080               	movlw	128
  6319  071D  027F               	subwf	btemp+1,w
  6320  071E  1D03               	skipz
  6321  071F  2F22               	goto	u3325
  6322  0720  3001               	movlw	1
  6323  0721  0250               	subwf	___flmul@temp,w
  6324  0722                     u3325:	
  6325  0722  1803               	skipnc
  6326  0723  2F25               	goto	u3321
  6327  0724  2F26               	goto	u3320
  6328  0725                     u3321:	
  6329  0725  2F32               	goto	l2496
  6330  0726                     u3320:	
  6331  0726                     l2492:	
  6332  0726  3000               	movlw	0
  6333  0727  1283               	bcf	3,5	;RP0=0, select bank0
  6334  0728  1303               	bcf	3,6	;RP1=0, select bank0
  6335  0729  00CF               	movwf	___flmul@prod+3
  6336  072A  3000               	movlw	0
  6337  072B  00CE               	movwf	___flmul@prod+2
  6338  072C  3000               	movlw	0
  6339  072D  00CD               	movwf	___flmul@prod+1
  6340  072E  3000               	movlw	0
  6341  072F  00CC               	movwf	___flmul@prod
  6342  0730                     l2494:	
  6343  0730  01C5               	clrf	___flmul@sign
  6344  0731  2F4C               	goto	l707
  6345  0732                     l2496:	
  6346  0732  1283               	bcf	3,5	;RP0=0, select bank0
  6347  0733  1303               	bcf	3,6	;RP1=0, select bank0
  6348  0734  0850               	movf	___flmul@temp,w
  6349  0735  00C0               	movwf	??___flmul
  6350  0736  0840               	movf	??___flmul,w
  6351  0737  00CB               	movwf	___flmul@bexp
  6352  0738  30FF               	movlw	255
  6353  0739  05CC               	andwf	___flmul@prod,f
  6354  073A  30FF               	movlw	255
  6355  073B  05CD               	andwf	___flmul@prod+1,f
  6356  073C  307F               	movlw	127
  6357  073D  05CE               	andwf	___flmul@prod+2,f
  6358  073E  3000               	movlw	0
  6359  073F  05CF               	andwf	___flmul@prod+3,f
  6360  0740                     l2498:	
  6361  0740  1C4B               	btfss	___flmul@bexp,0
  6362  0741  2F43               	goto	u3331
  6363  0742  2F44               	goto	u3330
  6364  0743                     u3331:	
  6365  0743  2F45               	goto	l2502
  6366  0744                     u3330:	
  6367  0744                     l2500:	
  6368  0744  17CE               	bsf	___flmul@prod+2,7
  6369  0745                     l2502:	
  6370  0745  084B               	movf	___flmul@bexp,w
  6371  0746  00C0               	movwf	??___flmul
  6372  0747  1003               	clrc
  6373  0748  0C40               	rrf	??___flmul,w
  6374  0749  00C1               	movwf	??___flmul+1
  6375  074A  0841               	movf	??___flmul+1,w
  6376  074B  00CF               	movwf	___flmul@prod+3
  6377  074C                     l707:	
  6378  074C  0845               	movf	___flmul@sign,w
  6379  074D  00C0               	movwf	??___flmul
  6380  074E  0840               	movf	??___flmul,w
  6381  074F  04CF               	iorwf	___flmul@prod+3,f
  6382  0750                     l2504:	
  6383  0750  084F               	movf	___flmul@prod+3,w
  6384  0751  00BB               	movwf	?___flmul+3
  6385  0752  084E               	movf	___flmul@prod+2,w
  6386  0753  00BA               	movwf	?___flmul+2
  6387  0754  084D               	movf	___flmul@prod+1,w
  6388  0755  00B9               	movwf	?___flmul+1
  6389  0756  084C               	movf	___flmul@prod,w
  6390  0757  00B8               	movwf	?___flmul
  6391  0758                     l695:	
  6392  0758  0008               	return
  6393  0759                     __end_of___flmul:	
  6394                           
  6395                           	psect	text19
  6396  17D7                     __ptext19:	
  6397 ;; *************** function __Umul8_16 *****************
  6398 ;; Defined at:
  6399 ;;		line 4 in file "C:\Program Files (x86)\Microchip\xc8\v2.10\pic\sources\c90\common\Umul8_16.c"
  6400 ;; Parameters:    Size  Location     Type
  6401 ;;  multiplier      1    wreg     unsigned char 
  6402 ;;  multiplicand    1    3[COMMON] unsigned char 
  6403 ;; Auto vars:     Size  Location     Type
  6404 ;;  multiplier      1    4[BANK0 ] unsigned char 
  6405 ;;  word_mpld       2    2[BANK0 ] unsigned int 
  6406 ;;  product         2    0[BANK0 ] unsigned int 
  6407 ;; Return value:  Size  Location     Type
  6408 ;;                  2    3[COMMON] unsigned int 
  6409 ;; Registers used:
  6410 ;;		wreg, status,2, status,0
  6411 ;; Tracked objects:
  6412 ;;		On entry : 0/0
  6413 ;;		On exit  : 0/0
  6414 ;;		Unchanged: 0/0
  6415 ;; Data sizes:     COMMON   BANK0   BANK1   BANK3   BANK2
  6416 ;;      Params:         2       0       0       0       0
  6417 ;;      Locals:         0       5       0       0       0
  6418 ;;      Temps:          2       0       0       0       0
  6419 ;;      Totals:         4       5       0       0       0
  6420 ;;Total ram usage:        9 bytes
  6421 ;; Hardware stack levels used:    1
  6422 ;; Hardware stack levels required when called:    1
  6423 ;; This function calls:
  6424 ;;		Nothing
  6425 ;; This function is called by:
  6426 ;;		___flmul
  6427 ;; This function uses a non-reentrant model
  6428 ;;
  6429                           
  6430                           
  6431                           ;psect for function __Umul8_16
  6432  17D7                     __Umul8_16:	
  6433                           
  6434                           ;incstack = 0
  6435                           ; Regs used in __Umul8_16: [wreg+status,2+status,0]
  6436                           ;__Umul8_16@multiplier stored from wreg
  6437  17D7  1283               	bcf	3,5	;RP0=0, select bank0
  6438  17D8  1303               	bcf	3,6	;RP1=0, select bank0
  6439  17D9  00A4               	movwf	__Umul8_16@multiplier
  6440  17DA                     l2098:	
  6441  17DA  01A0               	clrf	__Umul8_16@product
  6442  17DB  01A1               	clrf	__Umul8_16@product+1
  6443  17DC                     l2100:	
  6444  17DC  0873               	movf	__Umul8_16@multiplicand,w
  6445  17DD  00F5               	movwf	??__Umul8_16
  6446  17DE  01F6               	clrf	??__Umul8_16+1
  6447  17DF  0875               	movf	??__Umul8_16,w
  6448  17E0  00A2               	movwf	__Umul8_16@word_mpld
  6449  17E1  0876               	movf	??__Umul8_16+1,w
  6450  17E2  00A3               	movwf	__Umul8_16@word_mpld+1
  6451  17E3                     l2102:	
  6452  17E3  1C24               	btfss	__Umul8_16@multiplier,0
  6453  17E4  2FE6               	goto	u2481
  6454  17E5  2FE7               	goto	u2480
  6455  17E6                     u2481:	
  6456  17E6  2FED               	goto	l752
  6457  17E7                     u2480:	
  6458  17E7                     l2104:	
  6459  17E7  0822               	movf	__Umul8_16@word_mpld,w
  6460  17E8  07A0               	addwf	__Umul8_16@product,f
  6461  17E9  1803               	skipnc
  6462  17EA  0AA1               	incf	__Umul8_16@product+1,f
  6463  17EB  0823               	movf	__Umul8_16@word_mpld+1,w
  6464  17EC  07A1               	addwf	__Umul8_16@product+1,f
  6465  17ED                     l752:	
  6466  17ED  3001               	movlw	1
  6467  17EE                     u2495:	
  6468  17EE  1003               	clrc
  6469  17EF  0DA2               	rlf	__Umul8_16@word_mpld,f
  6470  17F0  0DA3               	rlf	__Umul8_16@word_mpld+1,f
  6471  17F1  3EFF               	addlw	-1
  6472  17F2  1D03               	skipz
  6473  17F3  2FEE               	goto	u2495
  6474  17F4  1003               	clrc
  6475  17F5  0CA4               	rrf	__Umul8_16@multiplier,f
  6476  17F6                     l2106:	
  6477  17F6  0824               	movf	__Umul8_16@multiplier,w
  6478  17F7  1D03               	btfss	3,2
  6479  17F8  2FFA               	goto	u2501
  6480  17F9  2FFB               	goto	u2500
  6481  17FA                     u2501:	
  6482  17FA  2FE3               	goto	l2102
  6483  17FB                     u2500:	
  6484  17FB                     l2108:	
  6485  17FB  0821               	movf	__Umul8_16@product+1,w
  6486  17FC  00F4               	movwf	?__Umul8_16+1
  6487  17FD  0820               	movf	__Umul8_16@product,w
  6488  17FE  00F3               	movwf	?__Umul8_16
  6489  17FF                     l754:	
  6490  17FF  0008               	return
  6491  1800                     __end_of__Umul8_16:	
  6492                           
  6493                           	psect	text20
  6494  0B93                     __ptext20:	
  6495 ;; *************** function ___fldiv *****************
  6496 ;; Defined at:
  6497 ;;		line 8 in file "C:\Program Files (x86)\Microchip\xc8\v2.10\pic\sources\c90\common\sprcdiv.c"
  6498 ;; Parameters:    Size  Location     Type
  6499 ;;  a               4   50[BANK0 ] unsigned int 
  6500 ;;  b               4   54[BANK0 ] unsigned int 
  6501 ;; Auto vars:     Size  Location     Type
  6502 ;;  grs             4   70[BANK0 ] unsigned long 
  6503 ;;  rem             4   63[BANK0 ] unsigned long 
  6504 ;;  new_exp         2   68[BANK0 ] int 
  6505 ;;  aexp            1   75[BANK0 ] unsigned char 
  6506 ;;  bexp            1   74[BANK0 ] unsigned char 
  6507 ;;  sign            1   67[BANK0 ] unsigned char 
  6508 ;; Return value:  Size  Location     Type
  6509 ;;                  4   50[BANK0 ] unsigned char 
  6510 ;; Registers used:
  6511 ;;		wreg, status,2, status,0, btemp+1
  6512 ;; Tracked objects:
  6513 ;;		On entry : 0/0
  6514 ;;		On exit  : 0/0
  6515 ;;		Unchanged: 0/0
  6516 ;; Data sizes:     COMMON   BANK0   BANK1   BANK3   BANK2
  6517 ;;      Params:         0       8       0       0       0
  6518 ;;      Locals:         0      13       0       0       0
  6519 ;;      Temps:          0       5       0       0       0
  6520 ;;      Totals:         0      26       0       0       0
  6521 ;;Total ram usage:       26 bytes
  6522 ;; Hardware stack levels used:    1
  6523 ;; Hardware stack levels required when called:    1
  6524 ;; This function calls:
  6525 ;;		Nothing
  6526 ;; This function is called by:
  6527 ;;		_main
  6528 ;; This function uses a non-reentrant model
  6529 ;;
  6530                           
  6531                           
  6532                           ;psect for function ___fldiv
  6533  0B93                     ___fldiv:	
  6534  0B93                     l2226:	
  6535                           ;incstack = 0
  6536                           ; Regs used in ___fldiv: [wreg+status,2+status,0+btemp+1]
  6537                           
  6538  0B93  1283               	bcf	3,5	;RP0=0, select bank0
  6539  0B94  1303               	bcf	3,6	;RP1=0, select bank0
  6540  0B95  0859               	movf	___fldiv@b+3,w
  6541  0B96  3980               	andlw	128
  6542  0B97  00DA               	movwf	??___fldiv
  6543  0B98  085A               	movf	??___fldiv,w
  6544  0B99  00E3               	movwf	___fldiv@sign
  6545  0B9A                     l2228:	
  6546  0B9A  0859               	movf	___fldiv@b+3,w
  6547  0B9B  00DA               	movwf	??___fldiv
  6548  0B9C  075A               	addwf	??___fldiv,w
  6549  0B9D  00DB               	movwf	??___fldiv+1
  6550  0B9E  085B               	movf	??___fldiv+1,w
  6551  0B9F  00EA               	movwf	___fldiv@bexp
  6552  0BA0                     l2230:	
  6553  0BA0  1FD8               	btfss	___fldiv@b+2,7
  6554  0BA1  2BA3               	goto	u2681
  6555  0BA2  2BA4               	goto	u2680
  6556  0BA3                     u2681:	
  6557  0BA3  2BA5               	goto	l2234
  6558  0BA4                     u2680:	
  6559  0BA4                     l2232:	
  6560  0BA4  146A               	bsf	___fldiv@bexp,0
  6561  0BA5                     l2234:	
  6562  0BA5  086A               	movf	___fldiv@bexp,w
  6563  0BA6  1903               	btfsc	3,2
  6564  0BA7  2BA9               	goto	u2691
  6565  0BA8  2BAA               	goto	u2690
  6566  0BA9                     u2691:	
  6567  0BA9  2BBA               	goto	l2244
  6568  0BAA                     u2690:	
  6569  0BAA                     l2236:	
  6570  0BAA  0A6A               	incf	___fldiv@bexp,w
  6571  0BAB  1D03               	btfss	3,2
  6572  0BAC  2BAE               	goto	u2701
  6573  0BAD  2BAF               	goto	u2700
  6574  0BAE                     u2701:	
  6575  0BAE  2BB7               	goto	l2240
  6576  0BAF                     u2700:	
  6577  0BAF                     l2238:	
  6578  0BAF  3000               	movlw	0
  6579  0BB0  00D9               	movwf	___fldiv@b+3
  6580  0BB1  3000               	movlw	0
  6581  0BB2  00D8               	movwf	___fldiv@b+2
  6582  0BB3  3000               	movlw	0
  6583  0BB4  00D7               	movwf	___fldiv@b+1
  6584  0BB5  3000               	movlw	0
  6585  0BB6  00D6               	movwf	___fldiv@b
  6586  0BB7                     l2240:	
  6587  0BB7  17D8               	bsf	___fldiv@b+2,7
  6588  0BB8                     l2242:	
  6589  0BB8  01D9               	clrf	___fldiv@b+3
  6590  0BB9  2BC2               	goto	l2246
  6591  0BBA                     l2244:	
  6592  0BBA  3000               	movlw	0
  6593  0BBB  00D9               	movwf	___fldiv@b+3
  6594  0BBC  3000               	movlw	0
  6595  0BBD  00D8               	movwf	___fldiv@b+2
  6596  0BBE  3000               	movlw	0
  6597  0BBF  00D7               	movwf	___fldiv@b+1
  6598  0BC0  3000               	movlw	0
  6599  0BC1  00D6               	movwf	___fldiv@b
  6600  0BC2                     l2246:	
  6601  0BC2  0855               	movf	___fldiv@a+3,w
  6602  0BC3  3980               	andlw	128
  6603  0BC4  00DA               	movwf	??___fldiv
  6604  0BC5  085A               	movf	??___fldiv,w
  6605  0BC6  06E3               	xorwf	___fldiv@sign,f
  6606  0BC7                     l2248:	
  6607  0BC7  0855               	movf	___fldiv@a+3,w
  6608  0BC8  00DA               	movwf	??___fldiv
  6609  0BC9  075A               	addwf	??___fldiv,w
  6610  0BCA  00DB               	movwf	??___fldiv+1
  6611  0BCB  085B               	movf	??___fldiv+1,w
  6612  0BCC  00EB               	movwf	___fldiv@aexp
  6613  0BCD                     l2250:	
  6614  0BCD  1FD4               	btfss	___fldiv@a+2,7
  6615  0BCE  2BD0               	goto	u2711
  6616  0BCF  2BD1               	goto	u2710
  6617  0BD0                     u2711:	
  6618  0BD0  2BD2               	goto	l2254
  6619  0BD1                     u2710:	
  6620  0BD1                     l2252:	
  6621  0BD1  146B               	bsf	___fldiv@aexp,0
  6622  0BD2                     l2254:	
  6623  0BD2  086B               	movf	___fldiv@aexp,w
  6624  0BD3  1903               	btfsc	3,2
  6625  0BD4  2BD6               	goto	u2721
  6626  0BD5  2BD7               	goto	u2720
  6627  0BD6                     u2721:	
  6628  0BD6  2BE7               	goto	l2264
  6629  0BD7                     u2720:	
  6630  0BD7                     l2256:	
  6631  0BD7  0A6B               	incf	___fldiv@aexp,w
  6632  0BD8  1D03               	btfss	3,2
  6633  0BD9  2BDB               	goto	u2731
  6634  0BDA  2BDC               	goto	u2730
  6635  0BDB                     u2731:	
  6636  0BDB  2BE4               	goto	l2260
  6637  0BDC                     u2730:	
  6638  0BDC                     l2258:	
  6639  0BDC  3000               	movlw	0
  6640  0BDD  00D5               	movwf	___fldiv@a+3
  6641  0BDE  3000               	movlw	0
  6642  0BDF  00D4               	movwf	___fldiv@a+2
  6643  0BE0  3000               	movlw	0
  6644  0BE1  00D3               	movwf	___fldiv@a+1
  6645  0BE2  3000               	movlw	0
  6646  0BE3  00D2               	movwf	___fldiv@a
  6647  0BE4                     l2260:	
  6648  0BE4  17D4               	bsf	___fldiv@a+2,7
  6649  0BE5                     l2262:	
  6650  0BE5  01D5               	clrf	___fldiv@a+3
  6651  0BE6  2BEF               	goto	l655
  6652  0BE7                     l2264:	
  6653  0BE7  3000               	movlw	0
  6654  0BE8  00D5               	movwf	___fldiv@a+3
  6655  0BE9  3000               	movlw	0
  6656  0BEA  00D4               	movwf	___fldiv@a+2
  6657  0BEB  3000               	movlw	0
  6658  0BEC  00D3               	movwf	___fldiv@a+1
  6659  0BED  3000               	movlw	0
  6660  0BEE  00D2               	movwf	___fldiv@a
  6661  0BEF                     l655:	
  6662  0BEF  0855               	movf	___fldiv@a+3,w
  6663  0BF0  0454               	iorwf	___fldiv@a+2,w
  6664  0BF1  0453               	iorwf	___fldiv@a+1,w
  6665  0BF2  0452               	iorwf	___fldiv@a,w
  6666  0BF3  1D03               	skipz
  6667  0BF4  2BF6               	goto	u2741
  6668  0BF5  2BF7               	goto	u2740
  6669  0BF6                     u2741:	
  6670  0BF6  2C10               	goto	l2274
  6671  0BF7                     u2740:	
  6672  0BF7                     l2266:	
  6673  0BF7  3000               	movlw	0
  6674  0BF8  00D9               	movwf	___fldiv@b+3
  6675  0BF9  3000               	movlw	0
  6676  0BFA  00D8               	movwf	___fldiv@b+2
  6677  0BFB  3000               	movlw	0
  6678  0BFC  00D7               	movwf	___fldiv@b+1
  6679  0BFD  3000               	movlw	0
  6680  0BFE  00D6               	movwf	___fldiv@b
  6681  0BFF  3080               	movlw	128
  6682  0C00  04D8               	iorwf	___fldiv@b+2,f
  6683  0C01  307F               	movlw	127
  6684  0C02  04D9               	iorwf	___fldiv@b+3,f
  6685  0C03                     l2268:	
  6686  0C03  0863               	movf	___fldiv@sign,w
  6687  0C04  00DA               	movwf	??___fldiv
  6688  0C05  085A               	movf	??___fldiv,w
  6689  0C06  04D9               	iorwf	___fldiv@b+3,f
  6690  0C07                     l2270:	
  6691  0C07  0859               	movf	___fldiv@b+3,w
  6692  0C08  00D5               	movwf	?___fldiv+3
  6693  0C09  0858               	movf	___fldiv@b+2,w
  6694  0C0A  00D4               	movwf	?___fldiv+2
  6695  0C0B  0857               	movf	___fldiv@b+1,w
  6696  0C0C  00D3               	movwf	?___fldiv+1
  6697  0C0D  0856               	movf	___fldiv@b,w
  6698  0C0E  00D2               	movwf	?___fldiv
  6699  0C0F  2D6F               	goto	l657
  6700  0C10                     l2274:	
  6701  0C10  086A               	movf	___fldiv@bexp,w
  6702  0C11  1D03               	btfss	3,2
  6703  0C12  2C14               	goto	u2751
  6704  0C13  2C15               	goto	u2750
  6705  0C14                     u2751:	
  6706  0C14  2C1E               	goto	l2280
  6707  0C15                     u2750:	
  6708  0C15                     l2276:	
  6709  0C15  3000               	movlw	0
  6710  0C16  00D5               	movwf	?___fldiv+3
  6711  0C17  3000               	movlw	0
  6712  0C18  00D4               	movwf	?___fldiv+2
  6713  0C19  3000               	movlw	0
  6714  0C1A  00D3               	movwf	?___fldiv+1
  6715  0C1B  3000               	movlw	0
  6716  0C1C  00D2               	movwf	?___fldiv
  6717  0C1D  2D6F               	goto	l657
  6718  0C1E                     l2280:	
  6719  0C1E  086A               	movf	___fldiv@bexp,w
  6720  0C1F  00DA               	movwf	??___fldiv
  6721  0C20  01DB               	clrf	??___fldiv+1
  6722  0C21  085B               	movf	??___fldiv+1,w
  6723  0C22  00DD               	movwf	??___fldiv+3
  6724  0C23  086B               	movf	___fldiv@aexp,w
  6725  0C24  025A               	subwf	??___fldiv,w
  6726  0C25  00DC               	movwf	??___fldiv+2
  6727  0C26  1C03               	skipc
  6728  0C27  03DD               	decf	??___fldiv+3,f
  6729  0C28  085C               	movf	??___fldiv+2,w
  6730  0C29  3E7F               	addlw	127
  6731  0C2A  00E4               	movwf	___fldiv@new_exp
  6732  0C2B  085D               	movf	??___fldiv+3,w
  6733  0C2C  1803               	skipnc
  6734  0C2D  3E01               	addlw	1
  6735  0C2E  3E00               	addlw	0
  6736  0C2F  00E5               	movwf	___fldiv@new_exp+1
  6737  0C30                     l2282:	
  6738  0C30  0859               	movf	___fldiv@b+3,w
  6739  0C31  00E2               	movwf	___fldiv@rem+3
  6740  0C32  0858               	movf	___fldiv@b+2,w
  6741  0C33  00E1               	movwf	___fldiv@rem+2
  6742  0C34  0857               	movf	___fldiv@b+1,w
  6743  0C35  00E0               	movwf	___fldiv@rem+1
  6744  0C36  0856               	movf	___fldiv@b,w
  6745  0C37  00DF               	movwf	___fldiv@rem
  6746  0C38                     l2284:	
  6747  0C38  3000               	movlw	0
  6748  0C39  00D9               	movwf	___fldiv@b+3
  6749  0C3A  3000               	movlw	0
  6750  0C3B  00D8               	movwf	___fldiv@b+2
  6751  0C3C  3000               	movlw	0
  6752  0C3D  00D7               	movwf	___fldiv@b+1
  6753  0C3E  3000               	movlw	0
  6754  0C3F  00D6               	movwf	___fldiv@b
  6755  0C40                     l2286:	
  6756  0C40  3000               	movlw	0
  6757  0C41  00E9               	movwf	___fldiv@grs+3
  6758  0C42  3000               	movlw	0
  6759  0C43  00E8               	movwf	___fldiv@grs+2
  6760  0C44  3000               	movlw	0
  6761  0C45  00E7               	movwf	___fldiv@grs+1
  6762  0C46  3000               	movlw	0
  6763  0C47  00E6               	movwf	___fldiv@grs
  6764  0C48                     l2288:	
  6765  0C48  01EB               	clrf	___fldiv@aexp
  6766  0C49  2C94               	goto	l2308
  6767  0C4A                     l2290:	
  6768  0C4A  086B               	movf	___fldiv@aexp,w
  6769  0C4B  1903               	btfsc	3,2
  6770  0C4C  2C4E               	goto	u2761
  6771  0C4D  2C4F               	goto	u2760
  6772  0C4E                     u2761:	
  6773  0C4E  2C6F               	goto	l2300
  6774  0C4F                     u2760:	
  6775  0C4F                     l2292:	
  6776  0C4F  3001               	movlw	1
  6777  0C50  00DA               	movwf	??___fldiv
  6778  0C51                     u2775:	
  6779  0C51  1003               	clrc
  6780  0C52  0DDF               	rlf	___fldiv@rem,f
  6781  0C53  0DE0               	rlf	___fldiv@rem+1,f
  6782  0C54  0DE1               	rlf	___fldiv@rem+2,f
  6783  0C55  0DE2               	rlf	___fldiv@rem+3,f
  6784  0C56  0BDA               	decfsz	??___fldiv,f
  6785  0C57  2C51               	goto	u2775
  6786  0C58  3001               	movlw	1
  6787  0C59  00DA               	movwf	??___fldiv
  6788  0C5A                     u2785:	
  6789  0C5A  1003               	clrc
  6790  0C5B  0DD6               	rlf	___fldiv@b,f
  6791  0C5C  0DD7               	rlf	___fldiv@b+1,f
  6792  0C5D  0DD8               	rlf	___fldiv@b+2,f
  6793  0C5E  0DD9               	rlf	___fldiv@b+3,f
  6794  0C5F  0BDA               	decfsz	??___fldiv,f
  6795  0C60  2C5A               	goto	u2785
  6796  0C61                     l2294:	
  6797  0C61  1FE9               	btfss	___fldiv@grs+3,7
  6798  0C62  2C64               	goto	u2791
  6799  0C63  2C65               	goto	u2790
  6800  0C64                     u2791:	
  6801  0C64  2C66               	goto	l2298
  6802  0C65                     u2790:	
  6803  0C65                     l2296:	
  6804  0C65  1456               	bsf	___fldiv@b,0
  6805  0C66                     l2298:	
  6806  0C66  3001               	movlw	1
  6807  0C67  00DA               	movwf	??___fldiv
  6808  0C68                     u2805:	
  6809  0C68  1003               	clrc
  6810  0C69  0DE6               	rlf	___fldiv@grs,f
  6811  0C6A  0DE7               	rlf	___fldiv@grs+1,f
  6812  0C6B  0DE8               	rlf	___fldiv@grs+2,f
  6813  0C6C  0DE9               	rlf	___fldiv@grs+3,f
  6814  0C6D  0BDA               	decfsz	??___fldiv,f
  6815  0C6E  2C68               	goto	u2805
  6816  0C6F                     l2300:	
  6817  0C6F  0855               	movf	___fldiv@a+3,w
  6818  0C70  0262               	subwf	___fldiv@rem+3,w
  6819  0C71  1D03               	skipz
  6820  0C72  2C7D               	goto	u2815
  6821  0C73  0854               	movf	___fldiv@a+2,w
  6822  0C74  0261               	subwf	___fldiv@rem+2,w
  6823  0C75  1D03               	skipz
  6824  0C76  2C7D               	goto	u2815
  6825  0C77  0853               	movf	___fldiv@a+1,w
  6826  0C78  0260               	subwf	___fldiv@rem+1,w
  6827  0C79  1D03               	skipz
  6828  0C7A  2C7D               	goto	u2815
  6829  0C7B  0852               	movf	___fldiv@a,w
  6830  0C7C  025F               	subwf	___fldiv@rem,w
  6831  0C7D                     u2815:	
  6832  0C7D  1C03               	skipc
  6833  0C7E  2C80               	goto	u2811
  6834  0C7F  2C81               	goto	u2810
  6835  0C80                     u2811:	
  6836  0C80  2C90               	goto	l2306
  6837  0C81                     u2810:	
  6838  0C81                     l2302:	
  6839  0C81  1769               	bsf	___fldiv@grs+3,6
  6840  0C82                     l2304:	
  6841  0C82  0852               	movf	___fldiv@a,w
  6842  0C83  02DF               	subwf	___fldiv@rem,f
  6843  0C84  0853               	movf	___fldiv@a+1,w
  6844  0C85  1C03               	skipc
  6845  0C86  0F53               	incfsz	___fldiv@a+1,w
  6846  0C87  02E0               	subwf	___fldiv@rem+1,f
  6847  0C88  0854               	movf	___fldiv@a+2,w
  6848  0C89  1C03               	skipc
  6849  0C8A  0F54               	incfsz	___fldiv@a+2,w
  6850  0C8B  02E1               	subwf	___fldiv@rem+2,f
  6851  0C8C  0855               	movf	___fldiv@a+3,w
  6852  0C8D  1C03               	skipc
  6853  0C8E  0F55               	incfsz	___fldiv@a+3,w
  6854  0C8F  02E2               	subwf	___fldiv@rem+3,f
  6855  0C90                     l2306:	
  6856  0C90  3001               	movlw	1
  6857  0C91  00DA               	movwf	??___fldiv
  6858  0C92  085A               	movf	??___fldiv,w
  6859  0C93  07EB               	addwf	___fldiv@aexp,f
  6860  0C94                     l2308:	
  6861  0C94  301A               	movlw	26
  6862  0C95  026B               	subwf	___fldiv@aexp,w
  6863  0C96  1C03               	skipc
  6864  0C97  2C99               	goto	u2821
  6865  0C98  2C9A               	goto	u2820
  6866  0C99                     u2821:	
  6867  0C99  2C4A               	goto	l2290
  6868  0C9A                     u2820:	
  6869  0C9A                     l2310:	
  6870  0C9A  0862               	movf	___fldiv@rem+3,w
  6871  0C9B  0461               	iorwf	___fldiv@rem+2,w
  6872  0C9C  0460               	iorwf	___fldiv@rem+1,w
  6873  0C9D  045F               	iorwf	___fldiv@rem,w
  6874  0C9E  1903               	skipnz
  6875  0C9F  2CA1               	goto	u2831
  6876  0CA0  2CA2               	goto	u2830
  6877  0CA1                     u2831:	
  6878  0CA1  2CC1               	goto	l2324
  6879  0CA2                     u2830:	
  6880  0CA2                     l2312:	
  6881  0CA2  1466               	bsf	___fldiv@grs,0
  6882  0CA3  2CC1               	goto	l2324
  6883  0CA4                     l2314:	
  6884  0CA4  3001               	movlw	1
  6885  0CA5  00DA               	movwf	??___fldiv
  6886  0CA6                     u2845:	
  6887  0CA6  1003               	clrc
  6888  0CA7  0DD6               	rlf	___fldiv@b,f
  6889  0CA8  0DD7               	rlf	___fldiv@b+1,f
  6890  0CA9  0DD8               	rlf	___fldiv@b+2,f
  6891  0CAA  0DD9               	rlf	___fldiv@b+3,f
  6892  0CAB  0BDA               	decfsz	??___fldiv,f
  6893  0CAC  2CA6               	goto	u2845
  6894  0CAD                     l2316:	
  6895  0CAD  1FE9               	btfss	___fldiv@grs+3,7
  6896  0CAE  2CB0               	goto	u2851
  6897  0CAF  2CB1               	goto	u2850
  6898  0CB0                     u2851:	
  6899  0CB0  2CB2               	goto	l2320
  6900  0CB1                     u2850:	
  6901  0CB1                     l2318:	
  6902  0CB1  1456               	bsf	___fldiv@b,0
  6903  0CB2                     l2320:	
  6904  0CB2  3001               	movlw	1
  6905  0CB3  00DA               	movwf	??___fldiv
  6906  0CB4                     u2865:	
  6907  0CB4  1003               	clrc
  6908  0CB5  0DE6               	rlf	___fldiv@grs,f
  6909  0CB6  0DE7               	rlf	___fldiv@grs+1,f
  6910  0CB7  0DE8               	rlf	___fldiv@grs+2,f
  6911  0CB8  0DE9               	rlf	___fldiv@grs+3,f
  6912  0CB9  0BDA               	decfsz	??___fldiv,f
  6913  0CBA  2CB4               	goto	u2865
  6914  0CBB                     l2322:	
  6915  0CBB  30FF               	movlw	255
  6916  0CBC  07E4               	addwf	___fldiv@new_exp,f
  6917  0CBD  1803               	skipnc
  6918  0CBE  0AE5               	incf	___fldiv@new_exp+1,f
  6919  0CBF  30FF               	movlw	255
  6920  0CC0  07E5               	addwf	___fldiv@new_exp+1,f
  6921  0CC1                     l2324:	
  6922  0CC1  1FD8               	btfss	___fldiv@b+2,7
  6923  0CC2  2CC4               	goto	u2871
  6924  0CC3  2CC5               	goto	u2870
  6925  0CC4                     u2871:	
  6926  0CC4  2CA4               	goto	l2314
  6927  0CC5                     u2870:	
  6928  0CC5                     l2326:	
  6929  0CC5  01EB               	clrf	___fldiv@aexp
  6930  0CC6                     l2328:	
  6931  0CC6  1FE9               	btfss	___fldiv@grs+3,7
  6932  0CC7  2CC9               	goto	u2881
  6933  0CC8  2CCA               	goto	u2880
  6934  0CC9                     u2881:	
  6935  0CC9  2CE6               	goto	l2336
  6936  0CCA                     u2880:	
  6937  0CCA                     l2330:	
  6938  0CCA  30FF               	movlw	255
  6939  0CCB  0566               	andwf	___fldiv@grs,w
  6940  0CCC  00DA               	movwf	??___fldiv
  6941  0CCD  30FF               	movlw	255
  6942  0CCE  0567               	andwf	___fldiv@grs+1,w
  6943  0CCF  00DB               	movwf	??___fldiv+1
  6944  0CD0  30FF               	movlw	255
  6945  0CD1  0568               	andwf	___fldiv@grs+2,w
  6946  0CD2  00DC               	movwf	??___fldiv+2
  6947  0CD3  307F               	movlw	127
  6948  0CD4  0569               	andwf	___fldiv@grs+3,w
  6949  0CD5  00DD               	movwf	??___fldiv+3
  6950  0CD6  085D               	movf	??___fldiv+3,w
  6951  0CD7  045C               	iorwf	??___fldiv+2,w
  6952  0CD8  045B               	iorwf	??___fldiv+1,w
  6953  0CD9  045A               	iorwf	??___fldiv,w
  6954  0CDA  1903               	skipnz
  6955  0CDB  2CDD               	goto	u2891
  6956  0CDC  2CDE               	goto	u2890
  6957  0CDD                     u2891:	
  6958  0CDD  2CE1               	goto	l671
  6959  0CDE                     u2890:	
  6960  0CDE                     l2332:	
  6961  0CDE  01EB               	clrf	___fldiv@aexp
  6962  0CDF  0AEB               	incf	___fldiv@aexp,f
  6963  0CE0  2CE6               	goto	l2336
  6964  0CE1                     l671:	
  6965  0CE1  1C56               	btfss	___fldiv@b,0
  6966  0CE2  2CE4               	goto	u2901
  6967  0CE3  2CE5               	goto	u2900
  6968  0CE4                     u2901:	
  6969  0CE4  2CE6               	goto	l2336
  6970  0CE5                     u2900:	
  6971  0CE5  2CDE               	goto	l2332
  6972  0CE6                     l2336:	
  6973  0CE6  086B               	movf	___fldiv@aexp,w
  6974  0CE7  1903               	btfsc	3,2
  6975  0CE8  2CEA               	goto	u2911
  6976  0CE9  2CEB               	goto	u2910
  6977  0CEA                     u2911:	
  6978  0CEA  2D1C               	goto	l2346
  6979  0CEB                     u2910:	
  6980  0CEB                     l2338:	
  6981  0CEB  3001               	movlw	1
  6982  0CEC  07D6               	addwf	___fldiv@b,f
  6983  0CED  3000               	movlw	0
  6984  0CEE  1803               	skipnc
  6985  0CEF  3001               	movlw	1
  6986  0CF0  07D7               	addwf	___fldiv@b+1,f
  6987  0CF1  3000               	movlw	0
  6988  0CF2  1803               	skipnc
  6989  0CF3  3001               	movlw	1
  6990  0CF4  07D8               	addwf	___fldiv@b+2,f
  6991  0CF5  3000               	movlw	0
  6992  0CF6  1803               	skipnc
  6993  0CF7  3001               	movlw	1
  6994  0CF8  07D9               	addwf	___fldiv@b+3,f
  6995  0CF9                     l2340:	
  6996  0CF9  1C59               	btfss	___fldiv@b+3,0
  6997  0CFA  2CFC               	goto	u2921
  6998  0CFB  2CFD               	goto	u2920
  6999  0CFC                     u2921:	
  7000  0CFC  2D1C               	goto	l2346
  7001  0CFD                     u2920:	
  7002  0CFD                     l2342:	
  7003  0CFD  0856               	movf	___fldiv@b,w
  7004  0CFE  00DA               	movwf	??___fldiv
  7005  0CFF  0857               	movf	___fldiv@b+1,w
  7006  0D00  00DB               	movwf	??___fldiv+1
  7007  0D01  0858               	movf	___fldiv@b+2,w
  7008  0D02  00DC               	movwf	??___fldiv+2
  7009  0D03  0859               	movf	___fldiv@b+3,w
  7010  0D04  00DD               	movwf	??___fldiv+3
  7011  0D05  3001               	movlw	1
  7012  0D06  00DE               	movwf	??___fldiv+4
  7013  0D07                     u2935:	
  7014  0D07  0D5D               	rlf	??___fldiv+3,w
  7015  0D08  0CDD               	rrf	??___fldiv+3,f
  7016  0D09  0CDC               	rrf	??___fldiv+2,f
  7017  0D0A  0CDB               	rrf	??___fldiv+1,f
  7018  0D0B  0CDA               	rrf	??___fldiv,f
  7019  0D0C                     u2930:	
  7020  0D0C  0BDE               	decfsz	??___fldiv+4,f
  7021  0D0D  2D07               	goto	u2935
  7022  0D0E  085D               	movf	??___fldiv+3,w
  7023  0D0F  00D9               	movwf	___fldiv@b+3
  7024  0D10  085C               	movf	??___fldiv+2,w
  7025  0D11  00D8               	movwf	___fldiv@b+2
  7026  0D12  085B               	movf	??___fldiv+1,w
  7027  0D13  00D7               	movwf	___fldiv@b+1
  7028  0D14  085A               	movf	??___fldiv,w
  7029  0D15  00D6               	movwf	___fldiv@b
  7030  0D16                     l2344:	
  7031  0D16  3001               	movlw	1
  7032  0D17  07E4               	addwf	___fldiv@new_exp,f
  7033  0D18  1803               	skipnc
  7034  0D19  0AE5               	incf	___fldiv@new_exp+1,f
  7035  0D1A  3000               	movlw	0
  7036  0D1B  07E5               	addwf	___fldiv@new_exp+1,f
  7037  0D1C                     l2346:	
  7038  0D1C  0865               	movf	___fldiv@new_exp+1,w
  7039  0D1D  3A80               	xorlw	128
  7040  0D1E  00FF               	movwf	btemp+1
  7041  0D1F  3080               	movlw	128
  7042  0D20  027F               	subwf	btemp+1,w
  7043  0D21  1D03               	skipz
  7044  0D22  2D25               	goto	u2945
  7045  0D23  30FF               	movlw	255
  7046  0D24  0264               	subwf	___fldiv@new_exp,w
  7047  0D25                     u2945:	
  7048  0D25  1C03               	skipc
  7049  0D26  2D28               	goto	u2941
  7050  0D27  2D29               	goto	u2940
  7051  0D28                     u2941:	
  7052  0D28  2D37               	goto	l2350
  7053  0D29                     u2940:	
  7054  0D29                     l2348:	
  7055  0D29  30FF               	movlw	255
  7056  0D2A  1283               	bcf	3,5	;RP0=0, select bank0
  7057  0D2B  1303               	bcf	3,6	;RP1=0, select bank0
  7058  0D2C  00E4               	movwf	___fldiv@new_exp
  7059  0D2D  3000               	movlw	0
  7060  0D2E  00E5               	movwf	___fldiv@new_exp+1
  7061  0D2F  3000               	movlw	0
  7062  0D30  00D9               	movwf	___fldiv@b+3
  7063  0D31  3000               	movlw	0
  7064  0D32  00D8               	movwf	___fldiv@b+2
  7065  0D33  3000               	movlw	0
  7066  0D34  00D7               	movwf	___fldiv@b+1
  7067  0D35  3000               	movlw	0
  7068  0D36  00D6               	movwf	___fldiv@b
  7069  0D37                     l2350:	
  7070  0D37  1283               	bcf	3,5	;RP0=0, select bank0
  7071  0D38  1303               	bcf	3,6	;RP1=0, select bank0
  7072  0D39  0865               	movf	___fldiv@new_exp+1,w
  7073  0D3A  3A80               	xorlw	128
  7074  0D3B  00FF               	movwf	btemp+1
  7075  0D3C  3080               	movlw	128
  7076  0D3D  027F               	subwf	btemp+1,w
  7077  0D3E  1D03               	skipz
  7078  0D3F  2D42               	goto	u2955
  7079  0D40  3001               	movlw	1
  7080  0D41  0264               	subwf	___fldiv@new_exp,w
  7081  0D42                     u2955:	
  7082  0D42  1803               	skipnc
  7083  0D43  2D45               	goto	u2951
  7084  0D44  2D46               	goto	u2950
  7085  0D45                     u2951:	
  7086  0D45  2D53               	goto	l677
  7087  0D46                     u2950:	
  7088  0D46                     l2352:	
  7089  0D46  1283               	bcf	3,5	;RP0=0, select bank0
  7090  0D47  1303               	bcf	3,6	;RP1=0, select bank0
  7091  0D48  01E4               	clrf	___fldiv@new_exp
  7092  0D49  01E5               	clrf	___fldiv@new_exp+1
  7093  0D4A                     l2354:	
  7094  0D4A  3000               	movlw	0
  7095  0D4B  00D9               	movwf	___fldiv@b+3
  7096  0D4C  3000               	movlw	0
  7097  0D4D  00D8               	movwf	___fldiv@b+2
  7098  0D4E  3000               	movlw	0
  7099  0D4F  00D7               	movwf	___fldiv@b+1
  7100  0D50  3000               	movlw	0
  7101  0D51  00D6               	movwf	___fldiv@b
  7102  0D52                     l2356:	
  7103  0D52  01E3               	clrf	___fldiv@sign
  7104  0D53                     l677:	
  7105  0D53  1283               	bcf	3,5	;RP0=0, select bank0
  7106  0D54  1303               	bcf	3,6	;RP1=0, select bank0
  7107  0D55  0864               	movf	___fldiv@new_exp,w
  7108  0D56  00DA               	movwf	??___fldiv
  7109  0D57  085A               	movf	??___fldiv,w
  7110  0D58  00EA               	movwf	___fldiv@bexp
  7111  0D59                     l2358:	
  7112  0D59  1C6A               	btfss	___fldiv@bexp,0
  7113  0D5A  2D5C               	goto	u2961
  7114  0D5B  2D5D               	goto	u2960
  7115  0D5C                     u2961:	
  7116  0D5C  2D5F               	goto	l2362
  7117  0D5D                     u2960:	
  7118  0D5D                     l2360:	
  7119  0D5D  17D8               	bsf	___fldiv@b+2,7
  7120  0D5E  2D63               	goto	l679
  7121  0D5F                     l2362:	
  7122  0D5F  307F               	movlw	127
  7123  0D60  00DA               	movwf	??___fldiv
  7124  0D61  085A               	movf	??___fldiv,w
  7125  0D62  05D8               	andwf	___fldiv@b+2,f
  7126  0D63                     l679:	
  7127  0D63  086A               	movf	___fldiv@bexp,w
  7128  0D64  00DA               	movwf	??___fldiv
  7129  0D65  1003               	clrc
  7130  0D66  0C5A               	rrf	??___fldiv,w
  7131  0D67  00DB               	movwf	??___fldiv+1
  7132  0D68  085B               	movf	??___fldiv+1,w
  7133  0D69  00D9               	movwf	___fldiv@b+3
  7134  0D6A  0863               	movf	___fldiv@sign,w
  7135  0D6B  00DA               	movwf	??___fldiv
  7136  0D6C  085A               	movf	??___fldiv,w
  7137  0D6D  04D9               	iorwf	___fldiv@b+3,f
  7138  0D6E  2C07               	goto	l2270
  7139  0D6F                     l657:	
  7140  0D6F  0008               	return
  7141  0D70                     __end_of___fldiv:	
  7142                           
  7143                           	psect	text21
  7144  1779                     __ptext21:	
  7145 ;; *************** function _ISR *****************
  7146 ;; Defined at:
  7147 ;;		line 35 in file "LCD.c"
  7148 ;; Parameters:    Size  Location     Type
  7149 ;;		None
  7150 ;; Auto vars:     Size  Location     Type
  7151 ;;		None
  7152 ;; Return value:  Size  Location     Type
  7153 ;;                  1    wreg      void 
  7154 ;; Registers used:
  7155 ;;		wreg
  7156 ;; Tracked objects:
  7157 ;;		On entry : 0/0
  7158 ;;		On exit  : 0/0
  7159 ;;		Unchanged: 0/0
  7160 ;; Data sizes:     COMMON   BANK0   BANK1   BANK3   BANK2
  7161 ;;      Params:         0       0       0       0       0
  7162 ;;      Locals:         0       0       0       0       0
  7163 ;;      Temps:          3       0       0       0       0
  7164 ;;      Totals:         3       0       0       0       0
  7165 ;;Total ram usage:        3 bytes
  7166 ;; Hardware stack levels used:    1
  7167 ;; This function calls:
  7168 ;;		Nothing
  7169 ;; This function is called by:
  7170 ;;		Interrupt level 1
  7171 ;; This function uses a non-reentrant model
  7172 ;;
  7173                           
  7174                           
  7175                           ;psect for function _ISR
  7176  1779                     _ISR:	
  7177  1779                     i1l2552:	
  7178                           
  7179                           ;LCD.c: 36:     INTCONbits.GIE = 0;
  7180  1779  138B               	bcf	11,7	;volatile
  7181                           
  7182                           ;LCD.c: 37:     INTCONbits.PEIE = 0;
  7183  177A  130B               	bcf	11,6	;volatile
  7184                           
  7185                           ;LCD.c: 39:     if(ADCON0bits.GO_DONE == 0){
  7186  177B  1283               	bcf	3,5	;RP0=0, select bank0
  7187  177C  1303               	bcf	3,6	;RP1=0, select bank0
  7188  177D  189F               	btfsc	31,1	;volatile
  7189  177E  2F80               	goto	u348_21
  7190  177F  2F81               	goto	u348_20
  7191  1780                     u348_21:	
  7192  1780  2F84               	goto	i1l73
  7193  1781                     u348_20:	
  7194  1781                     i1l2554:	
  7195                           
  7196                           ;LCD.c: 40:         ready = 1;
  7197  1781  01EE               	clrf	_ready
  7198  1782  0AEE               	incf	_ready,f
  7199                           
  7200                           ;LCD.c: 41:         PIR1bits.ADIF = 0;
  7201  1783  130C               	bcf	12,6	;volatile
  7202  1784                     i1l73:	
  7203                           ;LCD.c: 42:     }
  7204                           
  7205                           
  7206                           ;LCD.c: 44:     if (PIR1bits.RCIF == 1){
  7207  1784  1E8C               	btfss	12,5	;volatile
  7208  1785  2F87               	goto	u349_21
  7209  1786  2F88               	goto	u349_20
  7210  1787                     u349_21:	
  7211  1787  2F8C               	goto	i1l2558
  7212  1788                     u349_20:	
  7213  1788                     i1l2556:	
  7214                           
  7215                           ;LCD.c: 45:         ttl = RCREG;
  7216  1788  081A               	movf	26,w	;volatile
  7217  1789  00F0               	movwf	??_ISR
  7218  178A  0870               	movf	??_ISR,w
  7219  178B  00F8               	movwf	_ttl
  7220  178C                     i1l2558:	
  7221                           
  7222                           ;LCD.c: 48:     INTCONbits.GIE = 1;
  7223  178C  178B               	bsf	11,7	;volatile
  7224  178D                     i1l2560:	
  7225                           
  7226                           ;LCD.c: 49:     INTCONbits.PEIE = 1;
  7227  178D  170B               	bsf	11,6	;volatile
  7228  178E                     i1l75:	
  7229  178E  0872               	movf	??_ISR+2,w
  7230  178F  008A               	movwf	10
  7231  1790  0E71               	swapf	(??_ISR+1)^(0+4294967168),w
  7232  1791  0083               	movwf	3
  7233  1792  0EFE               	swapf	btemp,f
  7234  1793  0E7E               	swapf	btemp,w
  7235  1794  0009               	retfie
  7236  1795                     __end_of_ISR:	
  7237  007E                     btemp	set	126	;btemp
  7238  007E                     wtemp0	set	126
  7239                           
  7240                           	psect	intentry
  7241  0004                     __pintentry:	
  7242                           ;incstack = 0
  7243                           ; Regs used in _ISR: [wreg]
  7244                           
  7245  0004                     interrupt_function:	
  7246  007E                     saved_w	set	btemp
  7247  0004  00FE               	movwf	btemp
  7248  0005  0E03               	swapf	3,w
  7249  0006  00F1               	movwf	??_ISR+1
  7250  0007  080A               	movf	10,w
  7251  0008  00F2               	movwf	??_ISR+2
  7252  0009  160A  118A  2F79   	ljmp	_ISR


Data Sizes:
    Strings     23
    Constant    10
    Data        0
    BSS         22
    Persistent  0
    Stack       0

Auto Spaces:
    Space          Size  Autos    Used
    COMMON           14      8      11
    BANK0            80     76      79
    BANK1            80      4      20
    BANK3            96      0       0
    BANK2            96      0       0

Pointer List with Targets:

    sprintf@f	PTR const unsigned char  size(1) Largest target is 3
		 -> STR_10(CODE[3]), 

    sprintf@sp	PTR unsigned char  size(1) Largest target is 4
		 -> lcd_write_int@buffer(BANK0[4]), 

    sprintf@ap	PTR void [1] size(1) Largest target is 2
		 -> ?_sprintf(BANK0[2]), 

    lcd_write_string@var	PTR unsigned char  size(2) Largest target is 6
		 -> lcd_write_int@buffer(BANK0[4]), STR_9(CODE[2]), STR_8(CODE[2]), STR_7(CODE[2]), 
		 -> STR_6(CODE[2]), STR_5(CODE[2]), STR_4(CODE[2]), STR_3(CODE[4]), 
		 -> STR_2(CODE[6]), STR_1(CODE[6]), 


Critical Paths under _main in COMMON

    _main->_initLCD
    _main->_lcd_set_cursor
    _main->_lcd_write_string
    _lcd_write_int->_lcd_write_string
    _sprintf->___lwdiv
    ___lwmod->___lwdiv
    _lcd_write_string->_lcd_write_char
    _lcd_set_cursor->_lcd_cmd
    _lcd_clr->_lcd_cmd
    _initLCD->_lcd_cmd
    ___flsub->___fladd
    ___flsub->___xxtofl
    ___flmul->__Umul8_16
    ___flmul->___xxtofl

Critical Paths under _ISR in COMMON

    None.

Critical Paths under _main in BANK0

    _main->___fldiv
    _lcd_write_int->_sprintf
    _sprintf->___lwmod
    ___lwmod->___lwdiv
    ___flsub->___fladd
    ___flmul->___flsub
    ___fldiv->___flmul

Critical Paths under _ISR in BANK0

    None.

Critical Paths under _main in BANK1

    None.

Critical Paths under _ISR in BANK1

    None.

Critical Paths under _main in BANK3

    None.

Critical Paths under _ISR in BANK3

    None.

Critical Paths under _main in BANK2

    None.

Critical Paths under _ISR in BANK2

    None.

Call Graph Tables:

 ---------------------------------------------------------------------------------
 (Depth) Function   	        Calls       Base Space   Used Autos Params    Refs
 ---------------------------------------------------------------------------------
 (0) _main                                                 4     4      0   14607
                                              0 BANK1      4     4      0
                            ___fldiv
                            ___flmul
                            ___flsub
                            ___fltol
                           ___xxtofl
                            _initADC
                            _initLCD
                         _initSerial
                            _lcd_clr
                     _lcd_set_cursor
                     _lcd_write_char
                      _lcd_write_int
                   _lcd_write_string
                           _send_int
 ---------------------------------------------------------------------------------
 (1) _send_int                                             2     0      2     478
                                              3 COMMON     2     0      2
 ---------------------------------------------------------------------------------
 (1) _lcd_write_int                                        8     8      0    2729
                                             22 BANK0      8     8      0
                   _lcd_write_string
                            _sprintf
 ---------------------------------------------------------------------------------
 (2) _sprintf                                             21    18      3    1554
                                              9 BANK0     13    10      3
                            ___lwdiv
                            ___lwmod
 ---------------------------------------------------------------------------------
 (3) ___lwmod                                              6     2      4     311
                                              3 BANK0      6     2      4
                            ___lwdiv (ARG)
 ---------------------------------------------------------------------------------
 (3) ___lwdiv                                              8     4      4     421
                                              3 COMMON     5     1      4
                                              0 BANK0      3     3      0
 ---------------------------------------------------------------------------------
 (1) _lcd_write_string                                     7     5      2    1052
                                              6 COMMON     2     0      2
                                              0 BANK0      5     5      0
                     _lcd_write_char
 ---------------------------------------------------------------------------------
 (2) _lcd_write_char                                       3     3      0      22
                                              3 COMMON     3     3      0
 ---------------------------------------------------------------------------------
 (1) _lcd_set_cursor                                       2     1      1     718
                                              6 COMMON     2     1      1
                            _lcd_cmd
 ---------------------------------------------------------------------------------
 (1) _lcd_clr                                              0     0      0      22
                            _lcd_cmd
 ---------------------------------------------------------------------------------
 (1) _initSerial                                           2     0      2     164
                                              3 COMMON     2     0      2
 ---------------------------------------------------------------------------------
 (1) _initLCD                                              2     2      0      22
                                              6 COMMON     2     2      0
                            _lcd_cmd
 ---------------------------------------------------------------------------------
 (2) _lcd_cmd                                              3     3      0      22
                                              3 COMMON     3     3      0
 ---------------------------------------------------------------------------------
 (1) _initADC                                              3     3      0      22
                                              3 COMMON     3     3      0
 ---------------------------------------------------------------------------------
 (1) ___xxtofl                                            14    10      4     836
                                              3 COMMON     4     0      4
                                              0 BANK0     10    10      0
 ---------------------------------------------------------------------------------
 (1) ___fltol                                             11     7      4     697
                                              3 COMMON     4     0      4
                                              0 BANK0      7     7      0
 ---------------------------------------------------------------------------------
 (1) ___flsub                                              8     0      8    3547
                                             16 BANK0      8     0      8
                            ___fladd
                           ___xxtofl (ARG)
 ---------------------------------------------------------------------------------
 (2) ___fladd                                             20    12      8    3122
                                              3 COMMON     4     4      0
                                              0 BANK0     16     8      8
 ---------------------------------------------------------------------------------
 (1) ___flmul                                             26    18      8    2873
                                             24 BANK0     26    18      8
                          __Umul8_16
                            ___flsub (ARG)
                           ___xxtofl (ARG)
 ---------------------------------------------------------------------------------
 (2) __Umul8_16                                            9     7      2     799
                                              3 COMMON     4     2      2
                                              0 BANK0      5     5      0
 ---------------------------------------------------------------------------------
 (1) ___fldiv                                             26    18      8    1425
                                             50 BANK0     26    18      8
                            ___flmul (ARG)
 ---------------------------------------------------------------------------------
 Estimated maximum stack depth 3
 ---------------------------------------------------------------------------------
 (Depth) Function   	        Calls       Base Space   Used Autos Params    Refs
 ---------------------------------------------------------------------------------
 (4) _ISR                                                  3     3      0       0
                                              0 COMMON     3     3      0
 ---------------------------------------------------------------------------------
 Estimated maximum stack depth 4
 ---------------------------------------------------------------------------------

 Call Graph Graphs:

 _main (ROOT)
   ___fldiv
     ___flmul (ARG)
       __Umul8_16
       ___flsub (ARG)
         ___fladd
         ___xxtofl (ARG)
       ___xxtofl (ARG)
   ___flmul
     __Umul8_16
     ___flsub (ARG)
       ___fladd
       ___xxtofl (ARG)
     ___xxtofl (ARG)
   ___flsub
     ___fladd
     ___xxtofl (ARG)
   ___fltol
   ___xxtofl
   _initADC
   _initLCD
     _lcd_cmd
   _initSerial
   _lcd_clr
     _lcd_cmd
   _lcd_set_cursor
     _lcd_cmd
   _lcd_write_char
   _lcd_write_int
     _lcd_write_string
       _lcd_write_char
     _sprintf
       ___lwdiv
       ___lwmod
         ___lwdiv (ARG)
   _lcd_write_string
     _lcd_write_char
   _send_int

 _ISR (ROOT)

 Address spaces:
Name               Size   Autos  Total    Cost      Usage
BITCOMMON            E      0       0       0        0.0%
EEDATA             100      0       0       0        0.0%
NULL                 0      0       0       0        0.0%
CODE                 0      0       0       0        0.0%
COMMON               E      8       B       1       78.6%
BITSFR0              0      0       0       1        0.0%
SFR0                 0      0       0       1        0.0%
BITSFR1              0      0       0       2        0.0%
SFR1                 0      0       0       2        0.0%
STACK                0      0       0       2        0.0%
ABS                  0      0      6E       3        0.0%
BITBANK0            50      0       0       4        0.0%
BITSFR3              0      0       0       4        0.0%
SFR3                 0      0       0       4        0.0%
BANK0               50     4C      4F       5       98.8%
BITSFR2              0      0       0       5        0.0%
SFR2                 0      0       0       5        0.0%
BITBANK1            50      0       0       6        0.0%
BANK1               50      4      14       7       25.0%
BITBANK3            60      0       0       8        0.0%
BANK3               60      0       0       9        0.0%
BITBANK2            60      0       0      10        0.0%
BANK2               60      0       0      11        0.0%
DATA                 0      0      6E      12        0.0%


Microchip Technology PIC Macro Assembler V2.10 build 88905656 
Symbol Table                                                                                   Sat Feb 08 22:37:14 2020

             ___fldiv@aexp 006B               ___fldiv@bexp 006A                          pc 0002  
             ___fldiv@sign 0063                __CFG_CP$OFF 0000                         fsr 0004  
      __Umul8_16@word_mpld 0022                        l112 173E                        l120 0816  
                      l106 0970                        l109 175D                        l117 1778  
                      l150 0784                        l126 08DB                        l302 0B92  
                      l151 0789                        l143 0766                        l160 07F6  
                      l152 078E                        l153 0793                        l145 076B  
                      l129 17B2                        l154 0798                        l146 0770  
                      l155 079D                        l147 0775                        l156 07A2  
                      l148 077A             lcd_cmd@command 0075                        l157 07A7  
                      l149 077F                        l502 09EC                        l158 07AC  
                      l182 0895                        l159 07B1                        l192 1749  
                      l186 0895                        l603 0E7C                        l620 0F4D  
                      l612 0FFF                        l701 06C4                        l605 0E51  
                      l189 173F                        l630 0F93                        l624 0F71  
                      l641 0FF3                        l633 0FD1                        l642 0FFF  
                      l707 074C                        l492 09EC                        l645 17D6  
                      l733 0A11                        l671 0CE1                        l655 0BEF  
                      l735 0AA8                        l752 17ED                        l657 0D6F  
                      l754 17FF                        l746 0A72                        l578 0921  
                      l499 09D7                        l747 0A7E                        l739 0A56  
                      l588 0852                        l677 0D53                        l679 0D63  
                      l695 0758                        l599 0DD3               __CFG_CPD$OFF 0000  
                      _ISR 1779                        fsr0 0004                        _ttl 0078  
                      indf 0000               ___flmul@aexp 004A               ___flmul@bexp 004B  
             ___flmul@sign 0045               ___flmul@temp 0050               ___flmul@prod 004C  
          ?_lcd_set_cursor 0076               __CFG_LVP$OFF 0000                       ?_ISR 0070  
             ___fltol@exp1 0026                       l2100 17DC                       l2102 17E3  
                     l2104 17E7                       l3000 0FD6                       l2120 0948  
                     l2112 0922                       l2106 17F6                       l3010 0FED  
                     l3002 0FDB                       l2130 096A                       l2122 0952  
                     l2114 092B                       l2300 0C6F                       l2108 17FB  
                     l3012 0FEF                       l3004 0FE3                       l3020 0971  
                     l3100 0A9F                       l2124 0958                       l2116 0931  
                     l2140 086A                       l2132 0853                       l2310 0C9A  
                     l2302 0C81                       l2230 0BA0                       l3014 0FFA  
                     l3006 0FE8                       l3030 099D                       l3022 097E  
                     l3102 0AA0                       l2126 095E                       l2118 093F  
                     l2150 0889                       l2142 086F                       l2134 0857  
                     l3110 0029                       l2320 0CB2                       l2312 0CA2  
                     l2304 0C82                       l2240 0BB7                       l2232 0BA4  
                     l2400 0448                       l3016 0FFE                       l3008 0FE9  
                     l3032 09A5                       l2128 0964                       l2152 0890  
                     l2144 0878                       l2136 085E                       l2160 176B  
                     l3200 0330                       l3120 0043                       l3112 002A  
                     l2330 0CCA                       l2322 0CBB                       l2314 0CA4  
                     l2306 0C90                       l2250 0BCD                       l2242 0BB8  
                     l2234 0BA5                       l2226 0B93                       l2402 044A  
                     l3050 09CC                       l3042 09B3                       l3034 09A7  
                     l3026 0987                       l2170 07F0                       l2146 087D  
                     l2138 0861                       l2154 1738                       l2162 1771  
                     l3018 1798                       l3210 036C                       l3202 0348  
                     l3130 006A                       l3122 0048                       l3114 002B  
                     l3106 0024                       l2340 0CF9                       l2332 0CDE  
                     l2316 0CAD                       l2324 0CC1                       l2308 0C94  
                     l2260 0BE4                       l2252 0BD1                       l2236 0BAA  
                     l2244 0BBA                       l2228 0B9A                       l2500 0744  
                     l2420 04BB                       l2412 0465                       l2404 0452  
                     l3052 09DC                       l3036 09AB                       l3044 09C5  
                     l3028 099C                       l2172 07F3                       l2164 075A  
                     l2148 0884                       l2156 175F                       l2180 173F  
                     l3220 03A9                       l3212 0372                       l3204 0353  
                     l3140 00A7                       l3132 0072                       l3124 0050  
                     l3116 0035                       l3108 0028                       l2350 0D37  
                     l2342 0CFD                       l2326 0CC5                       l2318 0CB1  
                     l2270 0C07                       l2262 0BE5                       l2254 0BD2  
                     l2246 0BC2                       l2238 0BAF                       l2502 0745  
                     l2430 0538                       l2422 04E7                       l2414 0475  
                     l2406 0457                       l3054 09E1                       l3070 0A19  
                     l3062 09F0                       l2158 1764                       l2182 1745  
                     l3230 03EB                       l3214 0378                       l3222 03AF  
                     l3206 0359                       l3150 017F                       l3142 00AA  
                     l3134 007B                       l3126 0059                       l3118 003A  
                     l2360 0D5D                       l2352 0D46                       l2344 0D16  
                     l2336 0CE6                       l2328 0CC6                       l2280 0C1E  
                     l2256 0BD7                       l2264 0BE7                       l2248 0BC7  
                     l2504 0750                       l2440 05B8                       l2432 0555  
                     l2424 0503                       l2416 0482                       l2408 045C  
                     l3056 17B3                       l3080 0A3B                       l3064 09F5  
                     l2168 07B6                       l3224 03BF                       l3216 038A  
                     l3208 0365                       l3160 01B0                       l3152 0192  
                     l3144 00AB                       l3136 0081                       l3128 0061  
                     l2362 0D5F                       l2354 0D4A                       l2338 0CEB  
                     l2346 0D1C                       l2290 0C4A                       l2282 0C30  
                     l2266 0BF7                       l2274 0C10                       l2258 0BDC  
                     l2098 17DA                       l2450 0670                       l2442 05E5  
                     l2434 0565                       l2426 051F                       l2418 049F  
                     l2370 03FF                       l3058 17B7                       l3090 0A6C  
                     l3082 0A3F                       l3074 0A22                       l3066 09F9  
                     l1810 0829                       l3226 03CD                       l3218 0391  
                     l3170 01E0                       l3162 01C0                       l3154 019C  
                     l3146 00FF                       l3138 0088                       l2356 0D52  
                     l2348 0D29                       l2292 0C4F                       l2284 0C38  
                     l2276 0C15                       l2268 0C03                       l2460 0695  
                     l2452 0679                       l2444 05F5                       l2436 0582  
                     l2428 0528                       l2380 0414                       l2372 0405  
                     l3092 0A76                       l3084 0A4D                       l3076 0A27  
                     l3068 0A09                       l1820 0848                       l1812 082D  
                     l1804 0817                       l3228 03DD                       l3180 021A  
                     l3172 01EB                       l3164 01C9                       l3156 01A4  
                     l3148 0114                       l2358 0D59                       l2294 0C61  
                     l2286 0C40                       l2470 06AD                       l2462 069E  
                     l2454 0687                       l2446 0622                       l2438 059B  
                     l2390 0431                       l2382 041C                       l2374 0409  
                     l3094 0A80                       l3086 0A5D                       l3078 0A34  
                     l1814 0831                       l1806 081F                       l1822 084E  
                     l3190 0302                       l3182 021B                       l3174 01F1  
                     l3166 01D1                       l3158 01AA                       l2296 0C65  
                     l2288 0C48                       l2480 06DC                       l2472 06C1  
                     l2456 0690                       l2464 06A4                       l2448 0648  
                     l2392 0435                       l2384 041E                       l2376 040A  
                     l2368 03F8                       l3096 0A96                       l3088 0A68  
                     l1840 175A                       l1816 083B                       l1808 0822  
                     l2800 0B28                       l3272 0AD6                       l3192 030C  
                     l3184 026F                       l3176 01F8                       l3168 01D7  
                     l2298 0C66                       l2490 0717                       l2482 06E0  
                     l2466 06A8                       l2458 0694                       l2394 0436  
                     l2386 0426                       l2378 040F                       l3098 0A9B  
                     l3274 07BE                       l1834 174B                       l1770 0804  
                     l2730 08E0                       l1818 0841                       l2810 0B6F  
                     l2802 0B2F                       l3194 0314                       l3186 0284  
                     l3178 0217                       l2492 0726                       l2484 06F9  
                     l2476 06C9                       l2468 06A9                       l2396 043B  
                     l2388 042B                       l2900 0E19                       l1836 174E  
                     l1772 0807                       l2740 08F8                       l2732 08E6  
                     l2812 0B73                       l2804 0B33                       l3196 031A  
                     l3188 02EF                       l2494 0730                       l2478 06CE  
                     l2486 06FF                       l2398 0440                       l2910 0E60  
                     l2902 0E1D                       l2830 0D81                       l1838 1750  
                     l1774 0809                       l2742 0909                       l2734 08E9  
                     l2750 091D                       l2806 0B38                       l2814 0B7C  
                     l3198 0320                       l2496 0732                       l2488 070C  
                     l2912 0E62                       l2920 0E76                       l2904 0E1E  
                     l2840 0D95                       l2832 0D82                       l2824 0D70  
                     l1776 0813                       l2760 08BF                       l2744 090F  
                     l2736 08F0                       l2728 08DC                       l2808 0B68  
                     l2816 0B8E                       l2498 0740                       l2930 0EA9  
                     l2922 0E80                       l2914 0E68                       l2906 0E35  
                     l2850 0DAB                       l2834 0D87                       l2842 0D97  
                     l2826 0D77                       l2754 0896                       l2746 0910  
                     l2738 08F4                       l2770 0AC3                       l2762 0AAC  
                     l2940 0EC0                       l2932 0EAD                       l2924 0E85  
                     l2916 0E69                       l2908 0E55                       l2860 0DC0  
                     l2852 0DB1                       l2844 0D9F                       l2836 0D8C  
                     l2828 0D7D                       l2756 089B                       l2748 0917  
                     l2780 0AED                       l2764 0AB1                       l2950 0F25  
                     l2942 0EC1                       l2934 0EB1                       l2918 0E72  
                     l2870 0DDD                       l2862 0DC8                       l2854 0DB5  
                     l2846 0DA4                       l2838 0D94                       l2758 08B7  
                     l2782 0AF1                       l2774 0AC4                       l2766 0AB7  
                     l2960 0F5A                       l2952 0F2B                       l2944 0ECA  
                     l2936 0EBA                       l2928 0E90                       l2880 0DF1  
                     l2872 0DE1                       l2864 0DC9                       l2856 0DB6  
                     l2848 0DAA                       l2792 0AFC                       l2784 0AF5  
                     l2776 0AE1                       l2768 0ABE                       l2970 0F75  
                     l2954 0F30                       l2938 0EBC                       l2946 0ECF  
                     l2890 0E05                       l2882 0DF5                       l2874 0DE5  
                     l2858 0DBB                       l2866 0DCB                       l2786 0AFA  
                     l2778 0AE9                       l2972 0F78                       l2964 0F63  
                     l2948 0EE7                       l2956 0F3F                       l2980 0F85  
                     l2892 0E09                       l2884 0DF9                       l2876 0DE9  
                     l2868 0DD9                       l2796 0B18                       l2990 0F98  
                     l2982 0F86                       l2974 0F7A                       l2966 0F6C  
                     l2958 0F55                       l2894 0E0D                       l2886 0DFD  
                     l2878 0DED                       l2798 0B22                       l2992 0F9D  
                     l2984 0F8A                       l2976 0F7F                       l2968 0F70  
                     l2896 0E11                       l2888 0E01                       l2994 0FAB  
                     l2986 0F90                       l2978 0F81                       l2898 0E15  
                     l2996 0FAF                       l2998 0FCD                       STR_1 101A  
                     STR_2 1020                       STR_3 1026                       STR_4 102F  
                     STR_5 102D                       STR_6 102F                       STR_7 102F  
                     STR_8 102D                       STR_9 102F                       u3000 0435  
                     u3001 0434                       u3010 043B                       u3011 043A  
                     u3020 0440                       u3101 0547                       u3021 043F  
                     u3102 054E                       u3030 0457                       u3111 0574  
                     u3103 0555                       u3031 0456                       u3112 057B  
                     u3040 045C                       u4000 0F30                       u3113 0582  
                     u3041 045B                       u4001 0F2F                       u4010 0F55  
                     u3131 05AA                       u3051 04AD                       u4011 0F54  
                     u2500 17FB                       u3300 06EF                       u3220 0694  
                     u3132 05B1                       u3052 04B4                       u4100 0F97  
                     u4020 0F5A                       u2501 17FA                       u3221 0693  
                     u3205 0672                       u3141 05D7                       u3133 05B8  
                     u3125 0584                       u3061 04C9                       u3053 04BB  
                     u4101 0F96                       u4021 0F59                       u3310 070C  
                     u3142 05DE                       u3062 04D0                       u4110 0F9D  
                     u2510 086A                       u3311 070B                       u3215 0689  
                     u3151 0604                       u3143 05E5                       u3071 04F5  
                     u3063 04D7                       u4111 0F9C                       u2511 0869  
                     u3320 0726                       u3240 06A8                       u3160 062E  
                     u3152 060B                       u3072 04FC                       u4120 0FAF  
                     u4040 0F70                       u4200 097E                       u2520 0878  
                     u3321 0725                       u3305 06EA                       u3241 06A7  
                     u3153 0612                       u3081 0511                       u3073 0503  
                     u4121 0FAE                       u4041 0F6F                       u4201 097D  
                     u2521 0877                       u3330 0744                       u3250 06AD  
                     u3082 0518                       u4130 0FBE                       u4050 0F75  
                     u4210 0995                       u2530 0884                       u3331 0743  
                     u3315 0708                       u3251 06AC                       u3235 0697  
                     u3171 063A                       u3083 051F                       u4051 0F74  
                     u4035 0F65                       u2531 0883                       u2700 0BAF  
                     u3260 06C1                       u3180 0656                       u3172 0641  
                     u4140 0FCD                       u4060 0F7F                       u4220 09AB  
                     u4300 09F5                       u2540 0890                       u2701 0BAE  
                     u3325 0722                       u3261 06C0                       u3173 0648  
                     u3165 0629                       u4141 0FCC                       u4061 0F7E  
                     u4221 09AA                       u4301 09F4                       u2541 088F  
                     u2710 0BD1                       u3270 06C8                       u4150 0FD6  
                     u4070 0F85                       u4230 09B2                       u4310 09F9  
                     u2550 1764                       u1910 084E                       u2711 0BD0  
                     u3271 06C7                       u3191 0662                       u3095 0521  
                     u4151 0FD5                       u4135 0FB9                       u4071 0F84  
                     u4231 09B1                       u4215 0990                       u4311 09F8  
                     u2551 1763                       u1911 084D                       u2720 0BD7  
                     u2480 17E7                       u3280 06CE                       u3192 0669  
                     u4160 0FDB                       u4080 0F8A                       u4400 0A76  
                     u4320 0A19                       u2560 1771                       u2721 0BD6  
                     u2481 17E6                       u3281 06CD                       u3193 0670  
                     u3185 0651                       u4161 0FDA                       u4081 0F89  
                     u4401 0A75                       u4321 0A18                       u2561 1770  
                     u1905 0842                       u2810 0C81                       u2730 0BDC  
                     u3290 06E0                       u4170 0FE8                       u4090 0F90  
                     u4250 09C4                       u4410 0A8B                       u3610 0909  
                     u2570 1745                       u2811 0C80                       u2731 0BDB  
                     u3291 06DF                       u4171 0FE7                       u4091 0F8F  
                     u4251 09C3                       u3611 0908                       u2571 1744  
                     u2900 0CE5                       u2820 0C9A                       u2740 0BF7  
                     u4180 0FED                       u4260 09CB                       u4420 0A9B  
                     u4340 0A3A                       u1860 081F                       u3700 0B22  
                     u4500 0378                       u2901 0CE4                       u2821 0C99  
                     u2805 0C68                       u2741 0BF6                       u4181 0FEC  
                     u4261 09CA                       u4245 09B4                       u4421 0A9A  
                     u4341 0A39                       u3605 08F9                       u1861 081E  
                     u3701 0B21                       u4501 0377                       u2910 0CEB  
                     u2830 0CA2                       u2750 0C15                       u4190 0FFE  
                     u4430 0A9F                       u3630 091D                       u3710 0B28  
                     u2911 0CEA                       u2831 0CA1                       u2815 0C7D  
                     u2751 0C14                       u2495 17EE                       u4191 0FFD  
                     u4431 0A9E                       u4415 0A86                       u4335 0A2C  
                     u3631 091C                       u3615 0905                       u3711 0B27  
                     u2920 0CFD                       u2760 0C4F                       u2680 0BA4  
                     u3800 0DC0                       u4280 09DC                       u4360 0A5C  
                     u3640 08A5                       u1880 0831                       u3720 0B7C  
                     u4440 0088                       u2921 0CFC                       u2761 0C4E  
                     u2681 0BA3                       u3801 0DBF                       u4281 09DB  
                     u4361 0A5B                       u3625 0911                       u1881 0830  
                     u3721 0B7B                       u4441 0087                       u2930 0D0C  
                     u2850 0CB1                       u2690 0BAA                       u3810 0DD9  
                     u4290 09E1                       u3650 08C9                       u3570 08E6  
                     u1890 083B                       u3730 0B8E                       u4450 01B0  
                     u2851 0CB0                       u2691 0BA9                       u3811 0DD8  
                     u4291 09E0                       u4275 09CE                       u4355 0A4E  
                     u3571 08E5                       u1891 083A                       u1875 0823  
                     u3731 0B8D                       u4451 01AF                       u2940 0D29  
                     u3900 0E80                       u3820 0DDD                       u3740 0D81  
                     u4380 0A6C                       u3660 08DB                       u4460 01F8  
                     u2941 0D28                       u2845 0CA6                       u3901 0E7F  
                     u3821 0DDC                       u3741 0D80                       u4381 0A6B  
                     u3661 08DA                       u4461 01F7                       u4517 01E6  
                     u2950 0D46                       u2870 0CC5                       u2790 0C65  
                     u3910 0E85                       u3830 0E35                       u3750 0D87  
                     u4390 0A72                       u3590 08F8                       u3670 0AB7  
                     u4470 0320                       u2951 0D45                       u2935 0D07  
                     u2871 0CC4                       u2791 0C64                       u2775 0C51  
                     u3911 0E84                       u3831 0E34                       u3751 0D86  
                     u4391 0A71                       u4375 0A61                       u3591 08F7  
                     u1895 0837                       u3671 0AB6                       u4527 034E  
                     u4471 031F                       u2960 0D5D                       u2880 0CCA  
                     u3840 0E40                       u3760 0D8C                       u3680 0AF1  
                     u4480 0359                       u2961 0D5C                       u2945 0D25  
                     u2881 0CC9                       u2865 0CB4                       u2785 0C5A  
                     u3921 0E9B                       u3841 0E3E                       u3761 0D8B  
                     u4537 080E                       u3585 08EA                       u3681 0AF0  
                     u4481 0358                       u2890 0CDE                       u2970 0409  
                     u3930 0EAD                       u3922 0EA2                       u3850 0E41  
                     u3770 0DAA                       u3690 0B17                       u4490 0372  
                     u2955 0D42                       u2891 0CDD                       u2971 0408  
                     u3931 0EAC                       u3923 0EA9                       u3835 0E31  
                     u3771 0DA9                       u4547 0926                       u3691 0B16  
                     u4491 0371                       u2980 040F                       u3940 0EB1  
                     u3860 0E55                       u3780 0DB5                       u2981 040E  
                     u3941 0EB0                       u3861 0E54                       u3781 0DB4  
                     u4557 0935                       u2990 0414                       u3950 0EC0  
                     u3870 0E68                       u3790 0DBB                       u2991 0413  
                     u3951 0EBF                       u3871 0E67                       u3791 0DBA  
                     u4567 0943                       u3695 0B13                       i1l73 1784  
                     u4577 0950                       u3970 0EE7                       u3890 0E7C  
                     i1l75 178E                       u3971 0EE6                       u3891 0E7B  
                     u4587 1755                       u3981 0EFE                       u3973 0EE3  
                     u3965 0EC3                       u3885 0E6B                       u3990 0F12  
                     u3982 0EFF                       u3991 0F13                       u3983 0F04  
                     u3992 0F18                       u3984 0F05                       u3993 0F19  
                     u3985 0F0A                       u3986 0F0B               __CFG_WRT$OFF 0000  
                     _adc1 00AC                       _adc2 00A8     __end_of_lcd_write_char 0817  
                     _main 0024                       btemp 007E                       start 000C  
           ?_lcd_write_int 0070              __CFG_IESO$OFF 0000            ___fldiv@new_exp 0064  
                    ??_ISR 0070              ___fltol@sign1 0025            __end_of___fladd 1000  
                    ?_main 0070            __end_of___fldiv 0D70                      STR_10 102A  
            __CFG_WDTE$OFF 0000            __end_of___flmul 0759            __end_of___flsub 17D7  
          __end_of___fltol 09ED                      _ANSEL 0188            __end_of___lwdiv 0922  
          __end_of___lwmod 0853                      _RCREG 001A                      _RCSTA 0018  
                    _SPBRG 0099                      _PORTA 0005                      _PORTB 0006  
                    _PORTC 0007                      _PORTD 0008                      _TRISA 0085  
                    _TRISB 0086                      _TRISC 0087                      _TRISD 0088  
                    _TXREG 0019                      _TXSTA 0098             __CFG_FCMEN$OFF 0000  
          __end_of_lcd_cmd 175E            __end_of_lcd_clr 173F            __end_of_initADC 07F7  
          __end_of_initLCD 0971            __end_of_dpowers 101A                      _ready 006E  
           __CFG_BOREN$OFF 0000                      pclath 000A            ?_lcd_write_char 0070  
                    status 0003                      wtemp0 007E            __end_of_sprintf 0B93  
           __CFG_MCLRE$OFF 0000            __initialization 000F               __end_of_main 03F8  
                   ??_main 00B0                     _ADCON1 009F                     _ADRESH 001E  
                   i1l2560 178D                     i1l2552 1779                     i1l2554 1781  
                   i1l2556 1788                     i1l2558 178C                     u348_20 1781  
                   u348_21 1780                     u349_20 1788                     u349_21 1787  
          ??_lcd_write_int 0036           __end_of___xxtofl 0AA9          lcd_write_char@var 0075  
           __CFG_PWRTE$OFF 0000                  ??___fladd 0028                  ??___fldiv 005A  
                ??___flmul 0040                  ??___flsub 0077                  ??___fltol 0020  
                ??___lwdiv 0077                  ??___lwmod 0027   __end_of_lcd_write_string 08DC  
                ??_lcd_cmd 0073                  ??_lcd_clr 0076                  ??_initADC 0073  
                ??_initLCD 0076           __end_of_send_int 174A         __size_of__Umul8_16 0029  
                   saved_w 007E                  ??_sprintf 002C               ___xxtofl@arg 0026  
             ___xxtofl@exp 0025          lcd_write_string@i 0023               ___xxtofl@val 0073  
  __end_of__initialization 0020                 ___fltol@f1 0073             __pcstackCOMMON 0070  
         ??_lcd_set_cursor 0077                 __pbssBANK0 006C                 __pbssBANK1 00A0  
        __end_of__Umul8_16 1800                 __pmaintext 0024              initADC@analog 0075  
               __pintentry 0004                  ?___xxtofl 0073           ??_lcd_write_char 0073  
               __stringtab 1000                send_int@msg 0073                  ?_send_int 0073  
                  ___fladd 0D70                 _initSerial 0853                    ___fldiv 0B93  
                  ___flmul 03F8                    ___flsub 17B3                    ___fltol 0971  
                  ___lwdiv 08DC                    ___lwmod 0817                    __ptext1 173F  
                  __ptext2 1795                    __ptext3 0AA9                    __ptext4 0817  
                  __ptext5 08DC                    __ptext6 0896                    __ptext7 0803  
                  __ptext8 175E                    __ptext9 1738                    _lcd_cmd 174A  
                  _lcd_clr 1738                    _initADC 0759                    _initLCD 0922  
             __size_of_ISR 001C                    _entero1 006D                    _entero2 006C  
                  _dpowers 1010                 ??___xxtofl 0020                    _sprintf 0AA9  
                  clrloop0 07F8       end_of_initialization 0020                 ??_send_int 0075  
                _PORTBbits 0006          ?_lcd_write_string 0076                ___fladd@grs 0076  
       ??_lcd_write_string 0020              ___xxtofl@sign 0024                ___fldiv@grs 0066  
              ___fldiv@rem 005F                ___flmul@grs 0046                  _TXSTAbits 0098  
    __end_of_lcd_write_int 17B3                ?_initSerial 0073                _BAUDCTLbits 0187  
      start_initialization 000F                __end_of_ISR 1795   __CFG_FOSC$INTRC_NOCLKOUT 0000  
                __Umul8_16 17D7                  ___fladd@a 0024                  ___fladd@b 0020  
                ___fldiv@a 0052                  ___fldiv@b 0056         initSerial@baudrate 0073  
                ___flmul@a 003C                  ___flmul@b 0038                __pbssCOMMON 0078  
                ___flsub@a 0030                  ___flsub@b 0034                  ___latbits 0002  
            __pcstackBANK0 0020              __pcstackBANK1 00B0          __size_of___xxtofl 00BC  
      __size_of_initSerial 0043                sprintf@flag 0030                sprintf@prec 0031  
                _decimale1 007A                  _decimale2 0079           ___lwdiv@dividend 0075  
                 ?___fladd 0020          __size_of_send_int 000B                   ?___fldiv 0052  
                 ?___flmul 0038                   ?___flsub 0030                   ?___fltol 0073  
               ?__Umul8_16 0073                   ?___lwdiv 0073                   ?___lwmod 0023  
                __pstrings 1000                   ?_lcd_cmd 0070                   ?_lcd_clr 0070  
                 ?_initADC 0070                   ?_initLCD 0070           ___lwdiv@quotient 0021  
                 ?_sprintf 0029    __size_of_lcd_set_cursor 001B          interrupt_function 0004  
                clear_ram0 07F7                   _PIE1bits 008C                   _PIR1bits 000C  
               _ADCON0bits 001F                __stringbase 100F  __size_of_lcd_write_string 0046  
  __size_of_lcd_write_char 0014               ??_initSerial 0075                ??__Umul8_16 0075  
         __size_of___fladd 0290           __size_of___fldiv 01DD           __size_of___flmul 0361  
         __size_of___flsub 0024           __size_of___fltol 007C           __size_of___lwdiv 0046  
         __size_of___lwmod 003C         __end_of__stringtab 1010           __size_of_lcd_cmd 0014  
         __size_of_lcd_clr 0007                 sprintf@val 0032         lcd_set_cursor@posx 0077  
       lcd_set_cursor@posy 0076           __size_of_initADC 009E                   _decimal1 00A4  
                 _decimal2 00A0           __size_of_initLCD 004F                   ___xxtofl 09ED  
          ___lwdiv@divisor 0073            ___lwdiv@counter 0020                   __ptext10 0853  
                 __ptext11 0922                   __ptext20 0B93                   __ptext12 174A  
                 __ptext21 1779                   __ptext13 0759                   __ptext14 09ED  
                 __ptext15 0971                   __ptext16 17B3                   __ptext17 0D70  
                 __ptext18 03F8                   __ptext19 17D7          __CFG_BOR4V$BOR40V 0000  
         __size_of_sprintf 00EA        lcd_write_int@buffer 0039         __end_of_initSerial 0896  
            __size_of_main 03D4        lcd_write_int@numero 003D                   _send_int 173F  
               _INTCONbits 000B     __size_of_lcd_write_int 001E                   intlevel1 0000  
           _lcd_set_cursor 175E                  sprintf@ap 002F                  sprintf@sp 0034  
         ___lwmod@dividend 0025                  stringcode 100A     __Umul8_16@multiplicand 0073  
                 sprintf@c 0035                   sprintf@f 0029            ___lwmod@divisor 0023  
          ___lwmod@counter 0028                   stringdir 100A                   stringtab 1000  
   __end_of_lcd_set_cursor 1779              ___fladd@signs 0073           _lcd_write_string 0896  
             ___fladd@aexp 0074               ___fladd@bexp 0075       __Umul8_16@multiplier 0024  
           _lcd_write_char 0803        lcd_write_string@var 0076              _lcd_write_int 1795  
        __Umul8_16@product 0020  
